
template.elf:     file format elf32-littlearm

Sections:
Idx Name          Size      VMA       LMA       File off  Algn
  0 .isr_vector   00000188  08000000  08000000  00010000  2**0
                  CONTENTS, ALLOC, LOAD, READONLY, DATA
  1 .text         0000a930  08000188  08000188  00010188  2**2
                  CONTENTS, ALLOC, LOAD, READONLY, CODE
  2 .rodata       0000004c  0800aab8  0800aab8  0001aab8  2**2
                  CONTENTS, ALLOC, LOAD, READONLY, DATA
  3 .ARM.extab    00000000  0800ab04  0800ab04  00020090  2**0
                  CONTENTS
  4 .ARM          00000008  0800ab04  0800ab04  0001ab04  2**2
                  CONTENTS, ALLOC, LOAD, READONLY, DATA
  5 .preinit_array 00000000  0800ab0c  0800ab0c  00020090  2**0
                  CONTENTS, ALLOC, LOAD, DATA
  6 .init_array   00000004  0800ab0c  0800ab0c  0001ab0c  2**2
                  CONTENTS, ALLOC, LOAD, DATA
  7 .fini_array   00000004  0800ab10  0800ab10  0001ab10  2**2
                  CONTENTS, ALLOC, LOAD, DATA
  8 .data         00000090  20000000  0800ab14  00020000  2**2
                  CONTENTS, ALLOC, LOAD, DATA
  9 .bss          00000ab8  20000090  0800aba4  00020090  2**2
                  ALLOC
 10 ._user_heap_stack 00000600  20000b48  0800aba4  00020b48  2**0
                  ALLOC
 11 .ARM.attributes 00000030  00000000  00000000  00020090  2**0
                  CONTENTS, READONLY
 12 .debug_info   00027f80  00000000  00000000  000200c0  2**0
                  CONTENTS, READONLY, DEBUGGING
 13 .debug_abbrev 00004696  00000000  00000000  00048040  2**0
                  CONTENTS, READONLY, DEBUGGING
 14 .debug_aranges 00001f88  00000000  00000000  0004c6d8  2**3
                  CONTENTS, READONLY, DEBUGGING
 15 .debug_ranges 00001d98  00000000  00000000  0004e660  2**3
                  CONTENTS, READONLY, DEBUGGING
 16 .debug_macro  0002d98a  00000000  00000000  000503f8  2**0
                  CONTENTS, READONLY, DEBUGGING
 17 .debug_line   0001aa27  00000000  00000000  0007dd82  2**0
                  CONTENTS, READONLY, DEBUGGING
 18 .debug_str    00114bc8  00000000  00000000  000987a9  2**0
                  CONTENTS, READONLY, DEBUGGING
 19 .comment      0000007b  00000000  00000000  001ad371  2**0
                  CONTENTS, READONLY
 20 .debug_frame  000088f0  00000000  00000000  001ad3ec  2**2
                  CONTENTS, READONLY, DEBUGGING

Disassembly of section .text:

08000188 <__do_global_dtors_aux>:
 8000188:	b510      	push	{r4, lr}
 800018a:	4c05      	ldr	r4, [pc, #20]	; (80001a0 <__do_global_dtors_aux+0x18>)
 800018c:	7823      	ldrb	r3, [r4, #0]
 800018e:	b933      	cbnz	r3, 800019e <__do_global_dtors_aux+0x16>
 8000190:	4b04      	ldr	r3, [pc, #16]	; (80001a4 <__do_global_dtors_aux+0x1c>)
 8000192:	b113      	cbz	r3, 800019a <__do_global_dtors_aux+0x12>
 8000194:	4804      	ldr	r0, [pc, #16]	; (80001a8 <__do_global_dtors_aux+0x20>)
 8000196:	f3af 8000 	nop.w
 800019a:	2301      	movs	r3, #1
 800019c:	7023      	strb	r3, [r4, #0]
 800019e:	bd10      	pop	{r4, pc}
 80001a0:	20000090 	.word	0x20000090
 80001a4:	00000000 	.word	0x00000000
 80001a8:	0800aaa0 	.word	0x0800aaa0

080001ac <frame_dummy>:
 80001ac:	b508      	push	{r3, lr}
 80001ae:	4b03      	ldr	r3, [pc, #12]	; (80001bc <frame_dummy+0x10>)
 80001b0:	b11b      	cbz	r3, 80001ba <frame_dummy+0xe>
 80001b2:	4903      	ldr	r1, [pc, #12]	; (80001c0 <frame_dummy+0x14>)
 80001b4:	4803      	ldr	r0, [pc, #12]	; (80001c4 <frame_dummy+0x18>)
 80001b6:	f3af 8000 	nop.w
 80001ba:	bd08      	pop	{r3, pc}
 80001bc:	00000000 	.word	0x00000000
 80001c0:	20000094 	.word	0x20000094
 80001c4:	0800aaa0 	.word	0x0800aaa0

080001c8 <__aeabi_uldivmod>:
 80001c8:	b953      	cbnz	r3, 80001e0 <__aeabi_uldivmod+0x18>
 80001ca:	b94a      	cbnz	r2, 80001e0 <__aeabi_uldivmod+0x18>
 80001cc:	2900      	cmp	r1, #0
 80001ce:	bf08      	it	eq
 80001d0:	2800      	cmpeq	r0, #0
 80001d2:	bf1c      	itt	ne
 80001d4:	f04f 31ff 	movne.w	r1, #4294967295
 80001d8:	f04f 30ff 	movne.w	r0, #4294967295
 80001dc:	f000 b972 	b.w	80004c4 <__aeabi_idiv0>
 80001e0:	f1ad 0c08 	sub.w	ip, sp, #8
 80001e4:	e96d ce04 	strd	ip, lr, [sp, #-16]!
 80001e8:	f000 f806 	bl	80001f8 <__udivmoddi4>
 80001ec:	f8dd e004 	ldr.w	lr, [sp, #4]
 80001f0:	e9dd 2302 	ldrd	r2, r3, [sp, #8]
 80001f4:	b004      	add	sp, #16
 80001f6:	4770      	bx	lr

080001f8 <__udivmoddi4>:
 80001f8:	e92d 47f0 	stmdb	sp!, {r4, r5, r6, r7, r8, r9, sl, lr}
 80001fc:	9e08      	ldr	r6, [sp, #32]
 80001fe:	4604      	mov	r4, r0
 8000200:	4688      	mov	r8, r1
 8000202:	2b00      	cmp	r3, #0
 8000204:	d14b      	bne.n	800029e <__udivmoddi4+0xa6>
 8000206:	428a      	cmp	r2, r1
 8000208:	4615      	mov	r5, r2
 800020a:	d967      	bls.n	80002dc <__udivmoddi4+0xe4>
 800020c:	fab2 f282 	clz	r2, r2
 8000210:	b14a      	cbz	r2, 8000226 <__udivmoddi4+0x2e>
 8000212:	f1c2 0720 	rsb	r7, r2, #32
 8000216:	fa01 f302 	lsl.w	r3, r1, r2
 800021a:	fa20 f707 	lsr.w	r7, r0, r7
 800021e:	4095      	lsls	r5, r2
 8000220:	ea47 0803 	orr.w	r8, r7, r3
 8000224:	4094      	lsls	r4, r2
 8000226:	ea4f 4e15 	mov.w	lr, r5, lsr #16
 800022a:	0c23      	lsrs	r3, r4, #16
 800022c:	fbb8 f7fe 	udiv	r7, r8, lr
 8000230:	fa1f fc85 	uxth.w	ip, r5
 8000234:	fb0e 8817 	mls	r8, lr, r7, r8
 8000238:	ea43 4308 	orr.w	r3, r3, r8, lsl #16
 800023c:	fb07 f10c 	mul.w	r1, r7, ip
 8000240:	4299      	cmp	r1, r3
 8000242:	d909      	bls.n	8000258 <__udivmoddi4+0x60>
 8000244:	18eb      	adds	r3, r5, r3
 8000246:	f107 30ff 	add.w	r0, r7, #4294967295
 800024a:	f080 811b 	bcs.w	8000484 <__udivmoddi4+0x28c>
 800024e:	4299      	cmp	r1, r3
 8000250:	f240 8118 	bls.w	8000484 <__udivmoddi4+0x28c>
 8000254:	3f02      	subs	r7, #2
 8000256:	442b      	add	r3, r5
 8000258:	1a5b      	subs	r3, r3, r1
 800025a:	b2a4      	uxth	r4, r4
 800025c:	fbb3 f0fe 	udiv	r0, r3, lr
 8000260:	fb0e 3310 	mls	r3, lr, r0, r3
 8000264:	ea44 4403 	orr.w	r4, r4, r3, lsl #16
 8000268:	fb00 fc0c 	mul.w	ip, r0, ip
 800026c:	45a4      	cmp	ip, r4
 800026e:	d909      	bls.n	8000284 <__udivmoddi4+0x8c>
 8000270:	192c      	adds	r4, r5, r4
 8000272:	f100 33ff 	add.w	r3, r0, #4294967295
 8000276:	f080 8107 	bcs.w	8000488 <__udivmoddi4+0x290>
 800027a:	45a4      	cmp	ip, r4
 800027c:	f240 8104 	bls.w	8000488 <__udivmoddi4+0x290>
 8000280:	3802      	subs	r0, #2
 8000282:	442c      	add	r4, r5
 8000284:	ea40 4007 	orr.w	r0, r0, r7, lsl #16
 8000288:	eba4 040c 	sub.w	r4, r4, ip
 800028c:	2700      	movs	r7, #0
 800028e:	b11e      	cbz	r6, 8000298 <__udivmoddi4+0xa0>
 8000290:	40d4      	lsrs	r4, r2
 8000292:	2300      	movs	r3, #0
 8000294:	e9c6 4300 	strd	r4, r3, [r6]
 8000298:	4639      	mov	r1, r7
 800029a:	e8bd 87f0 	ldmia.w	sp!, {r4, r5, r6, r7, r8, r9, sl, pc}
 800029e:	428b      	cmp	r3, r1
 80002a0:	d909      	bls.n	80002b6 <__udivmoddi4+0xbe>
 80002a2:	2e00      	cmp	r6, #0
 80002a4:	f000 80eb 	beq.w	800047e <__udivmoddi4+0x286>
 80002a8:	2700      	movs	r7, #0
 80002aa:	e9c6 0100 	strd	r0, r1, [r6]
 80002ae:	4638      	mov	r0, r7
 80002b0:	4639      	mov	r1, r7
 80002b2:	e8bd 87f0 	ldmia.w	sp!, {r4, r5, r6, r7, r8, r9, sl, pc}
 80002b6:	fab3 f783 	clz	r7, r3
 80002ba:	2f00      	cmp	r7, #0
 80002bc:	d147      	bne.n	800034e <__udivmoddi4+0x156>
 80002be:	428b      	cmp	r3, r1
 80002c0:	d302      	bcc.n	80002c8 <__udivmoddi4+0xd0>
 80002c2:	4282      	cmp	r2, r0
 80002c4:	f200 80fa 	bhi.w	80004bc <__udivmoddi4+0x2c4>
 80002c8:	1a84      	subs	r4, r0, r2
 80002ca:	eb61 0303 	sbc.w	r3, r1, r3
 80002ce:	2001      	movs	r0, #1
 80002d0:	4698      	mov	r8, r3
 80002d2:	2e00      	cmp	r6, #0
 80002d4:	d0e0      	beq.n	8000298 <__udivmoddi4+0xa0>
 80002d6:	e9c6 4800 	strd	r4, r8, [r6]
 80002da:	e7dd      	b.n	8000298 <__udivmoddi4+0xa0>
 80002dc:	b902      	cbnz	r2, 80002e0 <__udivmoddi4+0xe8>
 80002de:	deff      	udf	#255	; 0xff
 80002e0:	fab2 f282 	clz	r2, r2
 80002e4:	2a00      	cmp	r2, #0
 80002e6:	f040 808f 	bne.w	8000408 <__udivmoddi4+0x210>
 80002ea:	1b49      	subs	r1, r1, r5
 80002ec:	ea4f 4e15 	mov.w	lr, r5, lsr #16
 80002f0:	fa1f f885 	uxth.w	r8, r5
 80002f4:	2701      	movs	r7, #1
 80002f6:	fbb1 fcfe 	udiv	ip, r1, lr
 80002fa:	0c23      	lsrs	r3, r4, #16
 80002fc:	fb0e 111c 	mls	r1, lr, ip, r1
 8000300:	ea43 4301 	orr.w	r3, r3, r1, lsl #16
 8000304:	fb08 f10c 	mul.w	r1, r8, ip
 8000308:	4299      	cmp	r1, r3
 800030a:	d907      	bls.n	800031c <__udivmoddi4+0x124>
 800030c:	18eb      	adds	r3, r5, r3
 800030e:	f10c 30ff 	add.w	r0, ip, #4294967295
 8000312:	d202      	bcs.n	800031a <__udivmoddi4+0x122>
 8000314:	4299      	cmp	r1, r3
 8000316:	f200 80cd 	bhi.w	80004b4 <__udivmoddi4+0x2bc>
 800031a:	4684      	mov	ip, r0
 800031c:	1a59      	subs	r1, r3, r1
 800031e:	b2a3      	uxth	r3, r4
 8000320:	fbb1 f0fe 	udiv	r0, r1, lr
 8000324:	fb0e 1410 	mls	r4, lr, r0, r1
 8000328:	ea43 4404 	orr.w	r4, r3, r4, lsl #16
 800032c:	fb08 f800 	mul.w	r8, r8, r0
 8000330:	45a0      	cmp	r8, r4
 8000332:	d907      	bls.n	8000344 <__udivmoddi4+0x14c>
 8000334:	192c      	adds	r4, r5, r4
 8000336:	f100 33ff 	add.w	r3, r0, #4294967295
 800033a:	d202      	bcs.n	8000342 <__udivmoddi4+0x14a>
 800033c:	45a0      	cmp	r8, r4
 800033e:	f200 80b6 	bhi.w	80004ae <__udivmoddi4+0x2b6>
 8000342:	4618      	mov	r0, r3
 8000344:	eba4 0408 	sub.w	r4, r4, r8
 8000348:	ea40 400c 	orr.w	r0, r0, ip, lsl #16
 800034c:	e79f      	b.n	800028e <__udivmoddi4+0x96>
 800034e:	f1c7 0c20 	rsb	ip, r7, #32
 8000352:	40bb      	lsls	r3, r7
 8000354:	fa22 fe0c 	lsr.w	lr, r2, ip
 8000358:	ea4e 0e03 	orr.w	lr, lr, r3
 800035c:	fa01 f407 	lsl.w	r4, r1, r7
 8000360:	fa20 f50c 	lsr.w	r5, r0, ip
 8000364:	fa21 f30c 	lsr.w	r3, r1, ip
 8000368:	ea4f 481e 	mov.w	r8, lr, lsr #16
 800036c:	4325      	orrs	r5, r4
 800036e:	fbb3 f9f8 	udiv	r9, r3, r8
 8000372:	0c2c      	lsrs	r4, r5, #16
 8000374:	fb08 3319 	mls	r3, r8, r9, r3
 8000378:	fa1f fa8e 	uxth.w	sl, lr
 800037c:	ea44 4303 	orr.w	r3, r4, r3, lsl #16
 8000380:	fb09 f40a 	mul.w	r4, r9, sl
 8000384:	429c      	cmp	r4, r3
 8000386:	fa02 f207 	lsl.w	r2, r2, r7
 800038a:	fa00 f107 	lsl.w	r1, r0, r7
 800038e:	d90b      	bls.n	80003a8 <__udivmoddi4+0x1b0>
 8000390:	eb1e 0303 	adds.w	r3, lr, r3
 8000394:	f109 30ff 	add.w	r0, r9, #4294967295
 8000398:	f080 8087 	bcs.w	80004aa <__udivmoddi4+0x2b2>
 800039c:	429c      	cmp	r4, r3
 800039e:	f240 8084 	bls.w	80004aa <__udivmoddi4+0x2b2>
 80003a2:	f1a9 0902 	sub.w	r9, r9, #2
 80003a6:	4473      	add	r3, lr
 80003a8:	1b1b      	subs	r3, r3, r4
 80003aa:	b2ad      	uxth	r5, r5
 80003ac:	fbb3 f0f8 	udiv	r0, r3, r8
 80003b0:	fb08 3310 	mls	r3, r8, r0, r3
 80003b4:	ea45 4403 	orr.w	r4, r5, r3, lsl #16
 80003b8:	fb00 fa0a 	mul.w	sl, r0, sl
 80003bc:	45a2      	cmp	sl, r4
 80003be:	d908      	bls.n	80003d2 <__udivmoddi4+0x1da>
 80003c0:	eb1e 0404 	adds.w	r4, lr, r4
 80003c4:	f100 33ff 	add.w	r3, r0, #4294967295
 80003c8:	d26b      	bcs.n	80004a2 <__udivmoddi4+0x2aa>
 80003ca:	45a2      	cmp	sl, r4
 80003cc:	d969      	bls.n	80004a2 <__udivmoddi4+0x2aa>
 80003ce:	3802      	subs	r0, #2
 80003d0:	4474      	add	r4, lr
 80003d2:	ea40 4009 	orr.w	r0, r0, r9, lsl #16
 80003d6:	fba0 8902 	umull	r8, r9, r0, r2
 80003da:	eba4 040a 	sub.w	r4, r4, sl
 80003de:	454c      	cmp	r4, r9
 80003e0:	46c2      	mov	sl, r8
 80003e2:	464b      	mov	r3, r9
 80003e4:	d354      	bcc.n	8000490 <__udivmoddi4+0x298>
 80003e6:	d051      	beq.n	800048c <__udivmoddi4+0x294>
 80003e8:	2e00      	cmp	r6, #0
 80003ea:	d069      	beq.n	80004c0 <__udivmoddi4+0x2c8>
 80003ec:	ebb1 050a 	subs.w	r5, r1, sl
 80003f0:	eb64 0403 	sbc.w	r4, r4, r3
 80003f4:	fa04 fc0c 	lsl.w	ip, r4, ip
 80003f8:	40fd      	lsrs	r5, r7
 80003fa:	40fc      	lsrs	r4, r7
 80003fc:	ea4c 0505 	orr.w	r5, ip, r5
 8000400:	e9c6 5400 	strd	r5, r4, [r6]
 8000404:	2700      	movs	r7, #0
 8000406:	e747      	b.n	8000298 <__udivmoddi4+0xa0>
 8000408:	f1c2 0320 	rsb	r3, r2, #32
 800040c:	fa20 f703 	lsr.w	r7, r0, r3
 8000410:	4095      	lsls	r5, r2
 8000412:	fa01 f002 	lsl.w	r0, r1, r2
 8000416:	fa21 f303 	lsr.w	r3, r1, r3
 800041a:	ea4f 4e15 	mov.w	lr, r5, lsr #16
 800041e:	4338      	orrs	r0, r7
 8000420:	0c01      	lsrs	r1, r0, #16
 8000422:	fbb3 f7fe 	udiv	r7, r3, lr
 8000426:	fa1f f885 	uxth.w	r8, r5
 800042a:	fb0e 3317 	mls	r3, lr, r7, r3
 800042e:	ea41 4103 	orr.w	r1, r1, r3, lsl #16
 8000432:	fb07 f308 	mul.w	r3, r7, r8
 8000436:	428b      	cmp	r3, r1
 8000438:	fa04 f402 	lsl.w	r4, r4, r2
 800043c:	d907      	bls.n	800044e <__udivmoddi4+0x256>
 800043e:	1869      	adds	r1, r5, r1
 8000440:	f107 3cff 	add.w	ip, r7, #4294967295
 8000444:	d22f      	bcs.n	80004a6 <__udivmoddi4+0x2ae>
 8000446:	428b      	cmp	r3, r1
 8000448:	d92d      	bls.n	80004a6 <__udivmoddi4+0x2ae>
 800044a:	3f02      	subs	r7, #2
 800044c:	4429      	add	r1, r5
 800044e:	1acb      	subs	r3, r1, r3
 8000450:	b281      	uxth	r1, r0
 8000452:	fbb3 f0fe 	udiv	r0, r3, lr
 8000456:	fb0e 3310 	mls	r3, lr, r0, r3
 800045a:	ea41 4103 	orr.w	r1, r1, r3, lsl #16
 800045e:	fb00 f308 	mul.w	r3, r0, r8
 8000462:	428b      	cmp	r3, r1
 8000464:	d907      	bls.n	8000476 <__udivmoddi4+0x27e>
 8000466:	1869      	adds	r1, r5, r1
 8000468:	f100 3cff 	add.w	ip, r0, #4294967295
 800046c:	d217      	bcs.n	800049e <__udivmoddi4+0x2a6>
 800046e:	428b      	cmp	r3, r1
 8000470:	d915      	bls.n	800049e <__udivmoddi4+0x2a6>
 8000472:	3802      	subs	r0, #2
 8000474:	4429      	add	r1, r5
 8000476:	1ac9      	subs	r1, r1, r3
 8000478:	ea40 4707 	orr.w	r7, r0, r7, lsl #16
 800047c:	e73b      	b.n	80002f6 <__udivmoddi4+0xfe>
 800047e:	4637      	mov	r7, r6
 8000480:	4630      	mov	r0, r6
 8000482:	e709      	b.n	8000298 <__udivmoddi4+0xa0>
 8000484:	4607      	mov	r7, r0
 8000486:	e6e7      	b.n	8000258 <__udivmoddi4+0x60>
 8000488:	4618      	mov	r0, r3
 800048a:	e6fb      	b.n	8000284 <__udivmoddi4+0x8c>
 800048c:	4541      	cmp	r1, r8
 800048e:	d2ab      	bcs.n	80003e8 <__udivmoddi4+0x1f0>
 8000490:	ebb8 0a02 	subs.w	sl, r8, r2
 8000494:	eb69 020e 	sbc.w	r2, r9, lr
 8000498:	3801      	subs	r0, #1
 800049a:	4613      	mov	r3, r2
 800049c:	e7a4      	b.n	80003e8 <__udivmoddi4+0x1f0>
 800049e:	4660      	mov	r0, ip
 80004a0:	e7e9      	b.n	8000476 <__udivmoddi4+0x27e>
 80004a2:	4618      	mov	r0, r3
 80004a4:	e795      	b.n	80003d2 <__udivmoddi4+0x1da>
 80004a6:	4667      	mov	r7, ip
 80004a8:	e7d1      	b.n	800044e <__udivmoddi4+0x256>
 80004aa:	4681      	mov	r9, r0
 80004ac:	e77c      	b.n	80003a8 <__udivmoddi4+0x1b0>
 80004ae:	3802      	subs	r0, #2
 80004b0:	442c      	add	r4, r5
 80004b2:	e747      	b.n	8000344 <__udivmoddi4+0x14c>
 80004b4:	f1ac 0c02 	sub.w	ip, ip, #2
 80004b8:	442b      	add	r3, r5
 80004ba:	e72f      	b.n	800031c <__udivmoddi4+0x124>
 80004bc:	4638      	mov	r0, r7
 80004be:	e708      	b.n	80002d2 <__udivmoddi4+0xda>
 80004c0:	4637      	mov	r7, r6
 80004c2:	e6e9      	b.n	8000298 <__udivmoddi4+0xa0>

080004c4 <__aeabi_idiv0>:
 80004c4:	4770      	bx	lr
 80004c6:	bf00      	nop

080004c8 <TIM4_IRQHandler>:
/* USER CODE END PFP */

/* Private user code ---------------------------------------------------------*/
/* USER CODE BEGIN 0 */
void TIM4_IRQHandler(void)
{
 80004c8:	b580      	push	{r7, lr}
 80004ca:	af00      	add	r7, sp, #0
	HAL_GPIO_TogglePin(GPIOB, GPIO_PIN_2);
 80004cc:	2104      	movs	r1, #4
 80004ce:	480f      	ldr	r0, [pc, #60]	; (800050c <TIM4_IRQHandler+0x44>)
 80004d0:	f003 f9bc 	bl	800384c <HAL_GPIO_TogglePin>
	HAL_ADC_Start(&hadc1);
 80004d4:	480e      	ldr	r0, [pc, #56]	; (8000510 <TIM4_IRQHandler+0x48>)
 80004d6:	f001 fd15 	bl	8001f04 <HAL_ADC_Start>
	if (HAL_ADC_PollForConversion(&hadc1, 100) == HAL_OK)
 80004da:	2164      	movs	r1, #100	; 0x64
 80004dc:	480c      	ldr	r0, [pc, #48]	; (8000510 <TIM4_IRQHandler+0x48>)
 80004de:	f001 fdff 	bl	80020e0 <HAL_ADC_PollForConversion>
 80004e2:	4603      	mov	r3, r0
 80004e4:	2b00      	cmp	r3, #0
 80004e6:	d106      	bne.n	80004f6 <TIM4_IRQHandler+0x2e>
	{
		g_ADCValue = HAL_ADC_GetValue(&hadc1);
 80004e8:	4809      	ldr	r0, [pc, #36]	; (8000510 <TIM4_IRQHandler+0x48>)
 80004ea:	f001 fec9 	bl	8002280 <HAL_ADC_GetValue>
 80004ee:	4603      	mov	r3, r0
 80004f0:	461a      	mov	r2, r3
 80004f2:	4b08      	ldr	r3, [pc, #32]	; (8000514 <TIM4_IRQHandler+0x4c>)
 80004f4:	601a      	str	r2, [r3, #0]
	}
	HAL_ADC_Stop(&hadc1);
 80004f6:	4806      	ldr	r0, [pc, #24]	; (8000510 <TIM4_IRQHandler+0x48>)
 80004f8:	f001 fdbe 	bl	8002078 <HAL_ADC_Stop>
	__HAL_TIM_CLEAR_FLAG(&Timer4Handle, TIM_FLAG_UPDATE);
 80004fc:	4b06      	ldr	r3, [pc, #24]	; (8000518 <TIM4_IRQHandler+0x50>)
 80004fe:	681b      	ldr	r3, [r3, #0]
 8000500:	f06f 0201 	mvn.w	r2, #1
 8000504:	611a      	str	r2, [r3, #16]
}
 8000506:	bf00      	nop
 8000508:	bd80      	pop	{r7, pc}
 800050a:	bf00      	nop
 800050c:	48000400 	.word	0x48000400
 8000510:	20000288 	.word	0x20000288
 8000514:	200000ac 	.word	0x200000ac
 8000518:	200002ec 	.word	0x200002ec

0800051c <main>:
/**
  * @brief  The application entry point.
  * @retval int
  */
int main(void)
{
 800051c:	b580      	push	{r7, lr}
 800051e:	b086      	sub	sp, #24
 8000520:	af00      	add	r7, sp, #0
  

  /* MCU Configuration--------------------------------------------------------*/

  /* Reset of all peripherals, Initializes the Flash interface and the Systick. */
  HAL_Init();
 8000522:	f001 f8c9 	bl	80016b8 <HAL_Init>
  /* USER CODE BEGIN Init */

  /* USER CODE END Init */

  /* Configure the system clock */
  SystemClock_Config();
 8000526:	f000 f847 	bl	80005b8 <SystemClock_Config>
  /* USER CODE BEGIN SysInit */

  /* USER CODE END SysInit */

  /* Initialize all configured peripherals */
  MX_GPIO_Init();
 800052a:	f000 fba1 	bl	8000c70 <MX_GPIO_Init>
  MX_I2C1_Init();
 800052e:	f000 f973 	bl	8000818 <MX_I2C1_Init>
  MX_I2C2_Init();
 8000532:	f000 f9b1 	bl	8000898 <MX_I2C2_Init>
  MX_LCD_Init();
 8000536:	f000 f9ef 	bl	8000918 <MX_LCD_Init>
  MX_QUADSPI_Init();
 800053a:	f000 fa25 	bl	8000988 <MX_QUADSPI_Init>
  MX_SAI1_Init();
 800053e:	f000 fa49 	bl	80009d4 <MX_SAI1_Init>
  MX_SPI2_Init();
 8000542:	f000 faef 	bl	8000b24 <MX_SPI2_Init>
  MX_USART2_UART_Init();
 8000546:	f000 fb63 	bl	8000c10 <MX_USART2_UART_Init>
  MX_USB_HOST_Init();
 800054a:	f009 fef5 	bl	800a338 <MX_USB_HOST_Init>
  MX_ADC1_Init();
 800054e:	f000 f8e1 	bl	8000714 <MX_ADC1_Init>
  MX_TIM4_Init();
 8000552:	f000 fb25 	bl	8000ba0 <MX_TIM4_Init>

  /* USER CODE END 2 */

  /* Infinite loop */
  /* USER CODE BEGIN WHILE */
  int i = 0;
 8000556:	2300      	movs	r3, #0
 8000558:	60fb      	str	r3, [r7, #12]
    /* USER CODE END WHILE */
    //MX_USB_HOST_Process();
    //HAL_GPIO_TogglePin(GPIOB,GPIO_PIN_2);
    //HAL_Delay(100);
	// crude way of showing g_ADCValue
	int onTime = g_ADCValue;
 800055a:	4b15      	ldr	r3, [pc, #84]	; (80005b0 <main+0x94>)
 800055c:	681b      	ldr	r3, [r3, #0]
 800055e:	60bb      	str	r3, [r7, #8]
	int offTime = 4096 - onTime;
 8000560:	68bb      	ldr	r3, [r7, #8]
 8000562:	f5c3 5380 	rsb	r3, r3, #4096	; 0x1000
 8000566:	607b      	str	r3, [r7, #4]
	HAL_GPIO_WritePin(GPIOE, GPIO_PIN_8, GPIO_PIN_SET);
 8000568:	2201      	movs	r2, #1
 800056a:	f44f 7180 	mov.w	r1, #256	; 0x100
 800056e:	4811      	ldr	r0, [pc, #68]	; (80005b4 <main+0x98>)
 8000570:	f003 f954 	bl	800381c <HAL_GPIO_WritePin>
	for (int i = 0; i < onTime; i++)
 8000574:	2300      	movs	r3, #0
 8000576:	617b      	str	r3, [r7, #20]
 8000578:	e003      	b.n	8000582 <main+0x66>
	  asm("nop");
 800057a:	bf00      	nop
	for (int i = 0; i < onTime; i++)
 800057c:	697b      	ldr	r3, [r7, #20]
 800057e:	3301      	adds	r3, #1
 8000580:	617b      	str	r3, [r7, #20]
 8000582:	697a      	ldr	r2, [r7, #20]
 8000584:	68bb      	ldr	r3, [r7, #8]
 8000586:	429a      	cmp	r2, r3
 8000588:	dbf7      	blt.n	800057a <main+0x5e>

	HAL_GPIO_WritePin(GPIOE, GPIO_PIN_8, GPIO_PIN_RESET);
 800058a:	2200      	movs	r2, #0
 800058c:	f44f 7180 	mov.w	r1, #256	; 0x100
 8000590:	4808      	ldr	r0, [pc, #32]	; (80005b4 <main+0x98>)
 8000592:	f003 f943 	bl	800381c <HAL_GPIO_WritePin>
	for (int i = 0; i < offTime; i++)
 8000596:	2300      	movs	r3, #0
 8000598:	613b      	str	r3, [r7, #16]
 800059a:	e003      	b.n	80005a4 <main+0x88>
	  asm("nop");
 800059c:	bf00      	nop
	for (int i = 0; i < offTime; i++)
 800059e:	693b      	ldr	r3, [r7, #16]
 80005a0:	3301      	adds	r3, #1
 80005a2:	613b      	str	r3, [r7, #16]
 80005a4:	693a      	ldr	r2, [r7, #16]
 80005a6:	687b      	ldr	r3, [r7, #4]
 80005a8:	429a      	cmp	r2, r3
 80005aa:	dbf7      	blt.n	800059c <main+0x80>
  {
 80005ac:	e7d5      	b.n	800055a <main+0x3e>
 80005ae:	bf00      	nop
 80005b0:	200000ac 	.word	0x200000ac
 80005b4:	48001000 	.word	0x48001000

080005b8 <SystemClock_Config>:
/**
  * @brief System Clock Configuration
  * @retval None
  */
void SystemClock_Config(void)
{
 80005b8:	b580      	push	{r7, lr}
 80005ba:	b0b8      	sub	sp, #224	; 0xe0
 80005bc:	af00      	add	r7, sp, #0
  RCC_OscInitTypeDef RCC_OscInitStruct = {0};
 80005be:	f107 039c 	add.w	r3, r7, #156	; 0x9c
 80005c2:	2244      	movs	r2, #68	; 0x44
 80005c4:	2100      	movs	r1, #0
 80005c6:	4618      	mov	r0, r3
 80005c8:	f00a f9a8 	bl	800a91c <memset>
  RCC_ClkInitTypeDef RCC_ClkInitStruct = {0};
 80005cc:	f107 0388 	add.w	r3, r7, #136	; 0x88
 80005d0:	2200      	movs	r2, #0
 80005d2:	601a      	str	r2, [r3, #0]
 80005d4:	605a      	str	r2, [r3, #4]
 80005d6:	609a      	str	r2, [r3, #8]
 80005d8:	60da      	str	r2, [r3, #12]
 80005da:	611a      	str	r2, [r3, #16]
  RCC_PeriphCLKInitTypeDef PeriphClkInit = {0};
 80005dc:	463b      	mov	r3, r7
 80005de:	2288      	movs	r2, #136	; 0x88
 80005e0:	2100      	movs	r1, #0
 80005e2:	4618      	mov	r0, r3
 80005e4:	f00a f99a 	bl	800a91c <memset>

  /** Configure LSE Drive Capability 
  */
  HAL_PWR_EnableBkUpAccess();
 80005e8:	f004 ff54 	bl	8005494 <HAL_PWR_EnableBkUpAccess>
  __HAL_RCC_LSEDRIVE_CONFIG(RCC_LSEDRIVE_LOW);
 80005ec:	4b46      	ldr	r3, [pc, #280]	; (8000708 <SystemClock_Config+0x150>)
 80005ee:	f8d3 3090 	ldr.w	r3, [r3, #144]	; 0x90
 80005f2:	4a45      	ldr	r2, [pc, #276]	; (8000708 <SystemClock_Config+0x150>)
 80005f4:	f023 0318 	bic.w	r3, r3, #24
 80005f8:	f8c2 3090 	str.w	r3, [r2, #144]	; 0x90
  /** Initializes the CPU, AHB and APB busses clocks 
  */
  RCC_OscInitStruct.OscillatorType = RCC_OSCILLATORTYPE_LSI|RCC_OSCILLATORTYPE_LSE
 80005fc:	231c      	movs	r3, #28
 80005fe:	f8c7 309c 	str.w	r3, [r7, #156]	; 0x9c
                              |RCC_OSCILLATORTYPE_MSI;
  RCC_OscInitStruct.LSEState = RCC_LSE_ON;
 8000602:	2301      	movs	r3, #1
 8000604:	f8c7 30a4 	str.w	r3, [r7, #164]	; 0xa4
  RCC_OscInitStruct.LSIState = RCC_LSI_ON;
 8000608:	2301      	movs	r3, #1
 800060a:	f8c7 30b0 	str.w	r3, [r7, #176]	; 0xb0
  RCC_OscInitStruct.MSIState = RCC_MSI_ON;
 800060e:	2301      	movs	r3, #1
 8000610:	f8c7 30b4 	str.w	r3, [r7, #180]	; 0xb4
  RCC_OscInitStruct.MSICalibrationValue = 0;
 8000614:	2300      	movs	r3, #0
 8000616:	f8c7 30b8 	str.w	r3, [r7, #184]	; 0xb8
  RCC_OscInitStruct.MSIClockRange = RCC_MSIRANGE_6;
 800061a:	2360      	movs	r3, #96	; 0x60
 800061c:	f8c7 30bc 	str.w	r3, [r7, #188]	; 0xbc
  RCC_OscInitStruct.PLL.PLLState = RCC_PLL_ON;
 8000620:	2302      	movs	r3, #2
 8000622:	f8c7 30c4 	str.w	r3, [r7, #196]	; 0xc4
  RCC_OscInitStruct.PLL.PLLSource = RCC_PLLSOURCE_MSI;
 8000626:	2301      	movs	r3, #1
 8000628:	f8c7 30c8 	str.w	r3, [r7, #200]	; 0xc8
  RCC_OscInitStruct.PLL.PLLM = 1;
 800062c:	2301      	movs	r3, #1
 800062e:	f8c7 30cc 	str.w	r3, [r7, #204]	; 0xcc
  RCC_OscInitStruct.PLL.PLLN = 20;
 8000632:	2314      	movs	r3, #20
 8000634:	f8c7 30d0 	str.w	r3, [r7, #208]	; 0xd0
  RCC_OscInitStruct.PLL.PLLP = RCC_PLLP_DIV7;
 8000638:	2307      	movs	r3, #7
 800063a:	f8c7 30d4 	str.w	r3, [r7, #212]	; 0xd4
  RCC_OscInitStruct.PLL.PLLQ = RCC_PLLQ_DIV2;
 800063e:	2302      	movs	r3, #2
 8000640:	f8c7 30d8 	str.w	r3, [r7, #216]	; 0xd8
  RCC_OscInitStruct.PLL.PLLR = RCC_PLLR_DIV2;
 8000644:	2302      	movs	r3, #2
 8000646:	f8c7 30dc 	str.w	r3, [r7, #220]	; 0xdc
  if (HAL_RCC_OscConfig(&RCC_OscInitStruct) != HAL_OK)
 800064a:	f107 039c 	add.w	r3, r7, #156	; 0x9c
 800064e:	4618      	mov	r0, r3
 8000650:	f005 f86c 	bl	800572c <HAL_RCC_OscConfig>
 8000654:	4603      	mov	r3, r0
 8000656:	2b00      	cmp	r3, #0
 8000658:	d001      	beq.n	800065e <SystemClock_Config+0xa6>
  {
    Error_Handler();
 800065a:	f000 fc53 	bl	8000f04 <Error_Handler>
  }
  /** Initializes the CPU, AHB and APB busses clocks 
  */
  RCC_ClkInitStruct.ClockType = RCC_CLOCKTYPE_HCLK|RCC_CLOCKTYPE_SYSCLK
 800065e:	230f      	movs	r3, #15
 8000660:	f8c7 3088 	str.w	r3, [r7, #136]	; 0x88
                              |RCC_CLOCKTYPE_PCLK1|RCC_CLOCKTYPE_PCLK2;
  RCC_ClkInitStruct.SYSCLKSource = RCC_SYSCLKSOURCE_PLLCLK;
 8000664:	2303      	movs	r3, #3
 8000666:	f8c7 308c 	str.w	r3, [r7, #140]	; 0x8c
  RCC_ClkInitStruct.AHBCLKDivider = RCC_SYSCLK_DIV2;
 800066a:	2380      	movs	r3, #128	; 0x80
 800066c:	f8c7 3090 	str.w	r3, [r7, #144]	; 0x90
  RCC_ClkInitStruct.APB1CLKDivider = RCC_HCLK_DIV1;
 8000670:	2300      	movs	r3, #0
 8000672:	f8c7 3094 	str.w	r3, [r7, #148]	; 0x94
  RCC_ClkInitStruct.APB2CLKDivider = RCC_HCLK_DIV1;
 8000676:	2300      	movs	r3, #0
 8000678:	f8c7 3098 	str.w	r3, [r7, #152]	; 0x98

  if (HAL_RCC_ClockConfig(&RCC_ClkInitStruct, FLASH_LATENCY_1) != HAL_OK)
 800067c:	f107 0388 	add.w	r3, r7, #136	; 0x88
 8000680:	2101      	movs	r1, #1
 8000682:	4618      	mov	r0, r3
 8000684:	f005 fc02 	bl	8005e8c <HAL_RCC_ClockConfig>
 8000688:	4603      	mov	r3, r0
 800068a:	2b00      	cmp	r3, #0
 800068c:	d001      	beq.n	8000692 <SystemClock_Config+0xda>
  {
    Error_Handler();
 800068e:	f000 fc39 	bl	8000f04 <Error_Handler>
  }
  PeriphClkInit.PeriphClockSelection = RCC_PERIPHCLK_RTC|RCC_PERIPHCLK_USART2
 8000692:	4b1e      	ldr	r3, [pc, #120]	; (800070c <SystemClock_Config+0x154>)
 8000694:	603b      	str	r3, [r7, #0]
                              |RCC_PERIPHCLK_SAI1|RCC_PERIPHCLK_I2C1
                              |RCC_PERIPHCLK_I2C2|RCC_PERIPHCLK_USB
                              |RCC_PERIPHCLK_ADC;
  PeriphClkInit.Usart2ClockSelection = RCC_USART2CLKSOURCE_PCLK1;
 8000696:	2300      	movs	r3, #0
 8000698:	63fb      	str	r3, [r7, #60]	; 0x3c
  PeriphClkInit.I2c1ClockSelection = RCC_I2C1CLKSOURCE_PCLK1;
 800069a:	2300      	movs	r3, #0
 800069c:	653b      	str	r3, [r7, #80]	; 0x50
  PeriphClkInit.I2c2ClockSelection = RCC_I2C2CLKSOURCE_PCLK1;
 800069e:	2300      	movs	r3, #0
 80006a0:	657b      	str	r3, [r7, #84]	; 0x54
  PeriphClkInit.Sai1ClockSelection = RCC_SAI1CLKSOURCE_PLLSAI1;
 80006a2:	2300      	movs	r3, #0
 80006a4:	667b      	str	r3, [r7, #100]	; 0x64
  PeriphClkInit.AdcClockSelection = RCC_ADCCLKSOURCE_PLLSAI1;
 80006a6:	f04f 5380 	mov.w	r3, #268435456	; 0x10000000
 80006aa:	67bb      	str	r3, [r7, #120]	; 0x78
  PeriphClkInit.RTCClockSelection = RCC_RTCCLKSOURCE_LSI;
 80006ac:	f44f 7300 	mov.w	r3, #512	; 0x200
 80006b0:	f8c7 3084 	str.w	r3, [r7, #132]	; 0x84
  PeriphClkInit.UsbClockSelection = RCC_USBCLKSOURCE_PLLSAI1;
 80006b4:	f04f 6380 	mov.w	r3, #67108864	; 0x4000000
 80006b8:	66fb      	str	r3, [r7, #108]	; 0x6c
  PeriphClkInit.PLLSAI1.PLLSAI1Source = RCC_PLLSOURCE_MSI;
 80006ba:	2301      	movs	r3, #1
 80006bc:	607b      	str	r3, [r7, #4]
  PeriphClkInit.PLLSAI1.PLLSAI1M = 1;
 80006be:	2301      	movs	r3, #1
 80006c0:	60bb      	str	r3, [r7, #8]
  PeriphClkInit.PLLSAI1.PLLSAI1N = 24;
 80006c2:	2318      	movs	r3, #24
 80006c4:	60fb      	str	r3, [r7, #12]
  PeriphClkInit.PLLSAI1.PLLSAI1P = RCC_PLLP_DIV7;
 80006c6:	2307      	movs	r3, #7
 80006c8:	613b      	str	r3, [r7, #16]
  PeriphClkInit.PLLSAI1.PLLSAI1Q = RCC_PLLQ_DIV2;
 80006ca:	2302      	movs	r3, #2
 80006cc:	617b      	str	r3, [r7, #20]
  PeriphClkInit.PLLSAI1.PLLSAI1R = RCC_PLLR_DIV2;
 80006ce:	2302      	movs	r3, #2
 80006d0:	61bb      	str	r3, [r7, #24]
  PeriphClkInit.PLLSAI1.PLLSAI1ClockOut = RCC_PLLSAI1_SAI1CLK|RCC_PLLSAI1_48M2CLK
 80006d2:	4b0f      	ldr	r3, [pc, #60]	; (8000710 <SystemClock_Config+0x158>)
 80006d4:	61fb      	str	r3, [r7, #28]
                              |RCC_PLLSAI1_ADC1CLK;
  if (HAL_RCCEx_PeriphCLKConfig(&PeriphClkInit) != HAL_OK)
 80006d6:	463b      	mov	r3, r7
 80006d8:	4618      	mov	r0, r3
 80006da:	f005 fddb 	bl	8006294 <HAL_RCCEx_PeriphCLKConfig>
 80006de:	4603      	mov	r3, r0
 80006e0:	2b00      	cmp	r3, #0
 80006e2:	d001      	beq.n	80006e8 <SystemClock_Config+0x130>
  {
    Error_Handler();
 80006e4:	f000 fc0e 	bl	8000f04 <Error_Handler>
  }
  /** Configure the main internal regulator output voltage 
  */
  if (HAL_PWREx_ControlVoltageScaling(PWR_REGULATOR_VOLTAGE_SCALE1) != HAL_OK)
 80006e8:	f44f 7000 	mov.w	r0, #512	; 0x200
 80006ec:	f004 fef0 	bl	80054d0 <HAL_PWREx_ControlVoltageScaling>
 80006f0:	4603      	mov	r3, r0
 80006f2:	2b00      	cmp	r3, #0
 80006f4:	d001      	beq.n	80006fa <SystemClock_Config+0x142>
  {
    Error_Handler();
 80006f6:	f000 fc05 	bl	8000f04 <Error_Handler>
  }
  /** Enable MSI Auto calibration 
  */
  HAL_RCCEx_EnableMSIPLLMode();
 80006fa:	f006 fd29 	bl	8007150 <HAL_RCCEx_EnableMSIPLLMode>
}
 80006fe:	bf00      	nop
 8000700:	37e0      	adds	r7, #224	; 0xe0
 8000702:	46bd      	mov	sp, r7
 8000704:	bd80      	pop	{r7, pc}
 8000706:	bf00      	nop
 8000708:	40021000 	.word	0x40021000
 800070c:	000268c2 	.word	0x000268c2
 8000710:	01110000 	.word	0x01110000

08000714 <MX_ADC1_Init>:
  * @brief ADC1 Initialization Function
  * @param None
  * @retval None
  */
static void MX_ADC1_Init(void)
{
 8000714:	b580      	push	{r7, lr}
 8000716:	b08a      	sub	sp, #40	; 0x28
 8000718:	af00      	add	r7, sp, #0

  /* USER CODE BEGIN ADC1_Init 0 */

  __ADC_CLK_ENABLE();
 800071a:	4b3b      	ldr	r3, [pc, #236]	; (8000808 <MX_ADC1_Init+0xf4>)
 800071c:	6cdb      	ldr	r3, [r3, #76]	; 0x4c
 800071e:	4a3a      	ldr	r2, [pc, #232]	; (8000808 <MX_ADC1_Init+0xf4>)
 8000720:	f443 5300 	orr.w	r3, r3, #8192	; 0x2000
 8000724:	64d3      	str	r3, [r2, #76]	; 0x4c
 8000726:	4b38      	ldr	r3, [pc, #224]	; (8000808 <MX_ADC1_Init+0xf4>)
 8000728:	6cdb      	ldr	r3, [r3, #76]	; 0x4c
 800072a:	f403 5300 	and.w	r3, r3, #8192	; 0x2000
 800072e:	603b      	str	r3, [r7, #0]
 8000730:	683b      	ldr	r3, [r7, #0]
  /* USER CODE END ADC1_Init 0 */

  ADC_MultiModeTypeDef multimode = {0};
 8000732:	f107 031c 	add.w	r3, r7, #28
 8000736:	2200      	movs	r2, #0
 8000738:	601a      	str	r2, [r3, #0]
 800073a:	605a      	str	r2, [r3, #4]
 800073c:	609a      	str	r2, [r3, #8]
  ADC_ChannelConfTypeDef sConfig = {0};
 800073e:	1d3b      	adds	r3, r7, #4
 8000740:	2200      	movs	r2, #0
 8000742:	601a      	str	r2, [r3, #0]
 8000744:	605a      	str	r2, [r3, #4]
 8000746:	609a      	str	r2, [r3, #8]
 8000748:	60da      	str	r2, [r3, #12]
 800074a:	611a      	str	r2, [r3, #16]
 800074c:	615a      	str	r2, [r3, #20]
  /* USER CODE BEGIN ADC1_Init 1 */

  /* USER CODE END ADC1_Init 1 */
  /** Common config 
  */
  hadc1.Instance = ADC1;
 800074e:	4b2f      	ldr	r3, [pc, #188]	; (800080c <MX_ADC1_Init+0xf8>)
 8000750:	4a2f      	ldr	r2, [pc, #188]	; (8000810 <MX_ADC1_Init+0xfc>)
 8000752:	601a      	str	r2, [r3, #0]
  hadc1.Init.ClockPrescaler = ADC_CLOCK_ASYNC_DIV1;
 8000754:	4b2d      	ldr	r3, [pc, #180]	; (800080c <MX_ADC1_Init+0xf8>)
 8000756:	2200      	movs	r2, #0
 8000758:	605a      	str	r2, [r3, #4]
  hadc1.Init.Resolution = ADC_RESOLUTION_12B;
 800075a:	4b2c      	ldr	r3, [pc, #176]	; (800080c <MX_ADC1_Init+0xf8>)
 800075c:	2200      	movs	r2, #0
 800075e:	609a      	str	r2, [r3, #8]
  hadc1.Init.DataAlign = ADC_DATAALIGN_RIGHT;
 8000760:	4b2a      	ldr	r3, [pc, #168]	; (800080c <MX_ADC1_Init+0xf8>)
 8000762:	2200      	movs	r2, #0
 8000764:	60da      	str	r2, [r3, #12]
  hadc1.Init.ScanConvMode = ADC_SCAN_DISABLE;
 8000766:	4b29      	ldr	r3, [pc, #164]	; (800080c <MX_ADC1_Init+0xf8>)
 8000768:	2200      	movs	r2, #0
 800076a:	611a      	str	r2, [r3, #16]
  hadc1.Init.EOCSelection = ADC_EOC_SINGLE_CONV;
 800076c:	4b27      	ldr	r3, [pc, #156]	; (800080c <MX_ADC1_Init+0xf8>)
 800076e:	2204      	movs	r2, #4
 8000770:	615a      	str	r2, [r3, #20]
  //hadc1.Init.LowPowerAutoWait = DISABLE;
  hadc1.Init.ContinuousConvMode = DISABLE;
 8000772:	4b26      	ldr	r3, [pc, #152]	; (800080c <MX_ADC1_Init+0xf8>)
 8000774:	2200      	movs	r2, #0
 8000776:	765a      	strb	r2, [r3, #25]
  hadc1.Init.NbrOfConversion = 1;
 8000778:	4b24      	ldr	r3, [pc, #144]	; (800080c <MX_ADC1_Init+0xf8>)
 800077a:	2201      	movs	r2, #1
 800077c:	61da      	str	r2, [r3, #28]
  hadc1.Init.DiscontinuousConvMode = DISABLE;
 800077e:	4b23      	ldr	r3, [pc, #140]	; (800080c <MX_ADC1_Init+0xf8>)
 8000780:	2200      	movs	r2, #0
 8000782:	f883 2020 	strb.w	r2, [r3, #32]
  hadc1.Init.ExternalTrigConv = ADC_SOFTWARE_START; // Need to run start to trigger conversion?
 8000786:	4b21      	ldr	r3, [pc, #132]	; (800080c <MX_ADC1_Init+0xf8>)
 8000788:	2200      	movs	r2, #0
 800078a:	629a      	str	r2, [r3, #40]	; 0x28
  hadc1.Init.ExternalTrigConvEdge = ADC_EXTERNALTRIGCONVEDGE_NONE;
 800078c:	4b1f      	ldr	r3, [pc, #124]	; (800080c <MX_ADC1_Init+0xf8>)
 800078e:	2200      	movs	r2, #0
 8000790:	62da      	str	r2, [r3, #44]	; 0x2c
  hadc1.Init.DMAContinuousRequests = DISABLE;
 8000792:	4b1e      	ldr	r3, [pc, #120]	; (800080c <MX_ADC1_Init+0xf8>)
 8000794:	2200      	movs	r2, #0
 8000796:	f883 2030 	strb.w	r2, [r3, #48]	; 0x30
  hadc1.Init.Overrun = ADC_OVR_DATA_PRESERVED;
 800079a:	4b1c      	ldr	r3, [pc, #112]	; (800080c <MX_ADC1_Init+0xf8>)
 800079c:	2200      	movs	r2, #0
 800079e:	635a      	str	r2, [r3, #52]	; 0x34
  hadc1.Init.OversamplingMode = DISABLE;
 80007a0:	4b1a      	ldr	r3, [pc, #104]	; (800080c <MX_ADC1_Init+0xf8>)
 80007a2:	2200      	movs	r2, #0
 80007a4:	f883 2038 	strb.w	r2, [r3, #56]	; 0x38

  if (HAL_ADC_Init(&hadc1) != HAL_OK)
 80007a8:	4818      	ldr	r0, [pc, #96]	; (800080c <MX_ADC1_Init+0xf8>)
 80007aa:	f001 fa57 	bl	8001c5c <HAL_ADC_Init>
 80007ae:	4603      	mov	r3, r0
 80007b0:	2b00      	cmp	r3, #0
 80007b2:	d001      	beq.n	80007b8 <MX_ADC1_Init+0xa4>
  {
    Error_Handler();
 80007b4:	f000 fba6 	bl	8000f04 <Error_Handler>
  }
  /** Configure the ADC multi-mode 
  */
  multimode.Mode = ADC_MODE_INDEPENDENT;
 80007b8:	2300      	movs	r3, #0
 80007ba:	61fb      	str	r3, [r7, #28]
  if (HAL_ADCEx_MultiModeConfigChannel(&hadc1, &multimode) != HAL_OK)
 80007bc:	f107 031c 	add.w	r3, r7, #28
 80007c0:	4619      	mov	r1, r3
 80007c2:	4812      	ldr	r0, [pc, #72]	; (800080c <MX_ADC1_Init+0xf8>)
 80007c4:	f002 fcc4 	bl	8003150 <HAL_ADCEx_MultiModeConfigChannel>
 80007c8:	4603      	mov	r3, r0
 80007ca:	2b00      	cmp	r3, #0
 80007cc:	d001      	beq.n	80007d2 <MX_ADC1_Init+0xbe>
  {
    Error_Handler();
 80007ce:	f000 fb99 	bl	8000f04 <Error_Handler>
  }
  /** Configure Regular Channel 
  */
  sConfig.Channel = ADC_CHANNEL_5;
 80007d2:	4b10      	ldr	r3, [pc, #64]	; (8000814 <MX_ADC1_Init+0x100>)
 80007d4:	607b      	str	r3, [r7, #4]
  sConfig.Rank = ADC_REGULAR_RANK_1;
 80007d6:	2306      	movs	r3, #6
 80007d8:	60bb      	str	r3, [r7, #8]
  sConfig.SamplingTime = ADC_SAMPLETIME_2CYCLES_5;
 80007da:	2300      	movs	r3, #0
 80007dc:	60fb      	str	r3, [r7, #12]
  sConfig.SingleDiff = ADC_SINGLE_ENDED;
 80007de:	237f      	movs	r3, #127	; 0x7f
 80007e0:	613b      	str	r3, [r7, #16]
  sConfig.OffsetNumber = ADC_OFFSET_NONE;
 80007e2:	2304      	movs	r3, #4
 80007e4:	617b      	str	r3, [r7, #20]
  sConfig.Offset = 0;
 80007e6:	2300      	movs	r3, #0
 80007e8:	61bb      	str	r3, [r7, #24]

  if (HAL_ADC_ConfigChannel(&hadc1, &sConfig) != HAL_OK)
 80007ea:	1d3b      	adds	r3, r7, #4
 80007ec:	4619      	mov	r1, r3
 80007ee:	4807      	ldr	r0, [pc, #28]	; (800080c <MX_ADC1_Init+0xf8>)
 80007f0:	f001 ff8c 	bl	800270c <HAL_ADC_ConfigChannel>
 80007f4:	4603      	mov	r3, r0
 80007f6:	2b00      	cmp	r3, #0
 80007f8:	d001      	beq.n	80007fe <MX_ADC1_Init+0xea>
  {
    Error_Handler();
 80007fa:	f000 fb83 	bl	8000f04 <Error_Handler>
  }
  /* USER CODE BEGIN ADC1_Init 2 */

  /* USER CODE END ADC1_Init 2 */

}
 80007fe:	bf00      	nop
 8000800:	3728      	adds	r7, #40	; 0x28
 8000802:	46bd      	mov	sp, r7
 8000804:	bd80      	pop	{r7, pc}
 8000806:	bf00      	nop
 8000808:	40021000 	.word	0x40021000
 800080c:	20000288 	.word	0x20000288
 8000810:	50040000 	.word	0x50040000
 8000814:	14f00020 	.word	0x14f00020

08000818 <MX_I2C1_Init>:
  * @brief I2C1 Initialization Function
  * @param None
  * @retval None
  */
static void MX_I2C1_Init(void)
{
 8000818:	b580      	push	{r7, lr}
 800081a:	af00      	add	r7, sp, #0
  /* USER CODE END I2C1_Init 0 */

  /* USER CODE BEGIN I2C1_Init 1 */

  /* USER CODE END I2C1_Init 1 */
  hi2c1.Instance = I2C1;
 800081c:	4b1b      	ldr	r3, [pc, #108]	; (800088c <MX_I2C1_Init+0x74>)
 800081e:	4a1c      	ldr	r2, [pc, #112]	; (8000890 <MX_I2C1_Init+0x78>)
 8000820:	601a      	str	r2, [r3, #0]
  hi2c1.Init.Timing = 0x00404C74;
 8000822:	4b1a      	ldr	r3, [pc, #104]	; (800088c <MX_I2C1_Init+0x74>)
 8000824:	4a1b      	ldr	r2, [pc, #108]	; (8000894 <MX_I2C1_Init+0x7c>)
 8000826:	605a      	str	r2, [r3, #4]
  hi2c1.Init.OwnAddress1 = 0;
 8000828:	4b18      	ldr	r3, [pc, #96]	; (800088c <MX_I2C1_Init+0x74>)
 800082a:	2200      	movs	r2, #0
 800082c:	609a      	str	r2, [r3, #8]
  hi2c1.Init.AddressingMode = I2C_ADDRESSINGMODE_7BIT;
 800082e:	4b17      	ldr	r3, [pc, #92]	; (800088c <MX_I2C1_Init+0x74>)
 8000830:	2201      	movs	r2, #1
 8000832:	60da      	str	r2, [r3, #12]
  hi2c1.Init.DualAddressMode = I2C_DUALADDRESS_DISABLE;
 8000834:	4b15      	ldr	r3, [pc, #84]	; (800088c <MX_I2C1_Init+0x74>)
 8000836:	2200      	movs	r2, #0
 8000838:	611a      	str	r2, [r3, #16]
  hi2c1.Init.OwnAddress2 = 0;
 800083a:	4b14      	ldr	r3, [pc, #80]	; (800088c <MX_I2C1_Init+0x74>)
 800083c:	2200      	movs	r2, #0
 800083e:	615a      	str	r2, [r3, #20]
  hi2c1.Init.OwnAddress2Masks = I2C_OA2_NOMASK;
 8000840:	4b12      	ldr	r3, [pc, #72]	; (800088c <MX_I2C1_Init+0x74>)
 8000842:	2200      	movs	r2, #0
 8000844:	619a      	str	r2, [r3, #24]
  hi2c1.Init.GeneralCallMode = I2C_GENERALCALL_DISABLE;
 8000846:	4b11      	ldr	r3, [pc, #68]	; (800088c <MX_I2C1_Init+0x74>)
 8000848:	2200      	movs	r2, #0
 800084a:	61da      	str	r2, [r3, #28]
  hi2c1.Init.NoStretchMode = I2C_NOSTRETCH_DISABLE;
 800084c:	4b0f      	ldr	r3, [pc, #60]	; (800088c <MX_I2C1_Init+0x74>)
 800084e:	2200      	movs	r2, #0
 8000850:	621a      	str	r2, [r3, #32]
  if (HAL_I2C_Init(&hi2c1) != HAL_OK)
 8000852:	480e      	ldr	r0, [pc, #56]	; (800088c <MX_I2C1_Init+0x74>)
 8000854:	f004 fc16 	bl	8005084 <HAL_I2C_Init>
 8000858:	4603      	mov	r3, r0
 800085a:	2b00      	cmp	r3, #0
 800085c:	d001      	beq.n	8000862 <MX_I2C1_Init+0x4a>
  {
    Error_Handler();
 800085e:	f000 fb51 	bl	8000f04 <Error_Handler>
  }
  /** Configure Analogue filter 
  */
  if (HAL_I2CEx_ConfigAnalogFilter(&hi2c1, I2C_ANALOGFILTER_ENABLE) != HAL_OK)
 8000862:	2100      	movs	r1, #0
 8000864:	4809      	ldr	r0, [pc, #36]	; (800088c <MX_I2C1_Init+0x74>)
 8000866:	f004 fc9c 	bl	80051a2 <HAL_I2CEx_ConfigAnalogFilter>
 800086a:	4603      	mov	r3, r0
 800086c:	2b00      	cmp	r3, #0
 800086e:	d001      	beq.n	8000874 <MX_I2C1_Init+0x5c>
  {
    Error_Handler();
 8000870:	f000 fb48 	bl	8000f04 <Error_Handler>
  }
  /** Configure Digital filter 
  */
  if (HAL_I2CEx_ConfigDigitalFilter(&hi2c1, 0) != HAL_OK)
 8000874:	2100      	movs	r1, #0
 8000876:	4805      	ldr	r0, [pc, #20]	; (800088c <MX_I2C1_Init+0x74>)
 8000878:	f004 fcde 	bl	8005238 <HAL_I2CEx_ConfigDigitalFilter>
 800087c:	4603      	mov	r3, r0
 800087e:	2b00      	cmp	r3, #0
 8000880:	d001      	beq.n	8000886 <MX_I2C1_Init+0x6e>
  {
    Error_Handler();
 8000882:	f000 fb3f 	bl	8000f04 <Error_Handler>
  }
  /* USER CODE BEGIN I2C1_Init 2 */

  /* USER CODE END I2C1_Init 2 */

}
 8000886:	bf00      	nop
 8000888:	bd80      	pop	{r7, pc}
 800088a:	bf00      	nop
 800088c:	2000016c 	.word	0x2000016c
 8000890:	40005400 	.word	0x40005400
 8000894:	00404c74 	.word	0x00404c74

08000898 <MX_I2C2_Init>:
  * @brief I2C2 Initialization Function
  * @param None
  * @retval None
  */
static void MX_I2C2_Init(void)
{
 8000898:	b580      	push	{r7, lr}
 800089a:	af00      	add	r7, sp, #0
  /* USER CODE END I2C2_Init 0 */

  /* USER CODE BEGIN I2C2_Init 1 */

  /* USER CODE END I2C2_Init 1 */
  hi2c2.Instance = I2C2;
 800089c:	4b1b      	ldr	r3, [pc, #108]	; (800090c <MX_I2C2_Init+0x74>)
 800089e:	4a1c      	ldr	r2, [pc, #112]	; (8000910 <MX_I2C2_Init+0x78>)
 80008a0:	601a      	str	r2, [r3, #0]
  hi2c2.Init.Timing = 0x00404C74;
 80008a2:	4b1a      	ldr	r3, [pc, #104]	; (800090c <MX_I2C2_Init+0x74>)
 80008a4:	4a1b      	ldr	r2, [pc, #108]	; (8000914 <MX_I2C2_Init+0x7c>)
 80008a6:	605a      	str	r2, [r3, #4]
  hi2c2.Init.OwnAddress1 = 0;
 80008a8:	4b18      	ldr	r3, [pc, #96]	; (800090c <MX_I2C2_Init+0x74>)
 80008aa:	2200      	movs	r2, #0
 80008ac:	609a      	str	r2, [r3, #8]
  hi2c2.Init.AddressingMode = I2C_ADDRESSINGMODE_7BIT;
 80008ae:	4b17      	ldr	r3, [pc, #92]	; (800090c <MX_I2C2_Init+0x74>)
 80008b0:	2201      	movs	r2, #1
 80008b2:	60da      	str	r2, [r3, #12]
  hi2c2.Init.DualAddressMode = I2C_DUALADDRESS_DISABLE;
 80008b4:	4b15      	ldr	r3, [pc, #84]	; (800090c <MX_I2C2_Init+0x74>)
 80008b6:	2200      	movs	r2, #0
 80008b8:	611a      	str	r2, [r3, #16]
  hi2c2.Init.OwnAddress2 = 0;
 80008ba:	4b14      	ldr	r3, [pc, #80]	; (800090c <MX_I2C2_Init+0x74>)
 80008bc:	2200      	movs	r2, #0
 80008be:	615a      	str	r2, [r3, #20]
  hi2c2.Init.OwnAddress2Masks = I2C_OA2_NOMASK;
 80008c0:	4b12      	ldr	r3, [pc, #72]	; (800090c <MX_I2C2_Init+0x74>)
 80008c2:	2200      	movs	r2, #0
 80008c4:	619a      	str	r2, [r3, #24]
  hi2c2.Init.GeneralCallMode = I2C_GENERALCALL_DISABLE;
 80008c6:	4b11      	ldr	r3, [pc, #68]	; (800090c <MX_I2C2_Init+0x74>)
 80008c8:	2200      	movs	r2, #0
 80008ca:	61da      	str	r2, [r3, #28]
  hi2c2.Init.NoStretchMode = I2C_NOSTRETCH_DISABLE;
 80008cc:	4b0f      	ldr	r3, [pc, #60]	; (800090c <MX_I2C2_Init+0x74>)
 80008ce:	2200      	movs	r2, #0
 80008d0:	621a      	str	r2, [r3, #32]
  if (HAL_I2C_Init(&hi2c2) != HAL_OK)
 80008d2:	480e      	ldr	r0, [pc, #56]	; (800090c <MX_I2C2_Init+0x74>)
 80008d4:	f004 fbd6 	bl	8005084 <HAL_I2C_Init>
 80008d8:	4603      	mov	r3, r0
 80008da:	2b00      	cmp	r3, #0
 80008dc:	d001      	beq.n	80008e2 <MX_I2C2_Init+0x4a>
  {
    Error_Handler();
 80008de:	f000 fb11 	bl	8000f04 <Error_Handler>
  }
  /** Configure Analogue filter 
  */
  if (HAL_I2CEx_ConfigAnalogFilter(&hi2c2, I2C_ANALOGFILTER_ENABLE) != HAL_OK)
 80008e2:	2100      	movs	r1, #0
 80008e4:	4809      	ldr	r0, [pc, #36]	; (800090c <MX_I2C2_Init+0x74>)
 80008e6:	f004 fc5c 	bl	80051a2 <HAL_I2CEx_ConfigAnalogFilter>
 80008ea:	4603      	mov	r3, r0
 80008ec:	2b00      	cmp	r3, #0
 80008ee:	d001      	beq.n	80008f4 <MX_I2C2_Init+0x5c>
  {
    Error_Handler();
 80008f0:	f000 fb08 	bl	8000f04 <Error_Handler>
  }
  /** Configure Digital filter 
  */
  if (HAL_I2CEx_ConfigDigitalFilter(&hi2c2, 0) != HAL_OK)
 80008f4:	2100      	movs	r1, #0
 80008f6:	4805      	ldr	r0, [pc, #20]	; (800090c <MX_I2C2_Init+0x74>)
 80008f8:	f004 fc9e 	bl	8005238 <HAL_I2CEx_ConfigDigitalFilter>
 80008fc:	4603      	mov	r3, r0
 80008fe:	2b00      	cmp	r3, #0
 8000900:	d001      	beq.n	8000906 <MX_I2C2_Init+0x6e>
  {
    Error_Handler();
 8000902:	f000 faff 	bl	8000f04 <Error_Handler>
  }
  /* USER CODE BEGIN I2C2_Init 2 */

  /* USER CODE END I2C2_Init 2 */

}
 8000906:	bf00      	nop
 8000908:	bd80      	pop	{r7, pc}
 800090a:	bf00      	nop
 800090c:	200001b8 	.word	0x200001b8
 8000910:	40005800 	.word	0x40005800
 8000914:	00404c74 	.word	0x00404c74

08000918 <MX_LCD_Init>:
  * @brief LCD Initialization Function
  * @param None
  * @retval None
  */
static void MX_LCD_Init(void)
{
 8000918:	b580      	push	{r7, lr}
 800091a:	af00      	add	r7, sp, #0
  /* USER CODE END LCD_Init 0 */

  /* USER CODE BEGIN LCD_Init 1 */

  /* USER CODE END LCD_Init 1 */
  hlcd.Instance = LCD;
 800091c:	4b18      	ldr	r3, [pc, #96]	; (8000980 <MX_LCD_Init+0x68>)
 800091e:	4a19      	ldr	r2, [pc, #100]	; (8000984 <MX_LCD_Init+0x6c>)
 8000920:	601a      	str	r2, [r3, #0]
  hlcd.Init.Prescaler = LCD_PRESCALER_1;
 8000922:	4b17      	ldr	r3, [pc, #92]	; (8000980 <MX_LCD_Init+0x68>)
 8000924:	2200      	movs	r2, #0
 8000926:	605a      	str	r2, [r3, #4]
  hlcd.Init.Divider = LCD_DIVIDER_16;
 8000928:	4b15      	ldr	r3, [pc, #84]	; (8000980 <MX_LCD_Init+0x68>)
 800092a:	2200      	movs	r2, #0
 800092c:	609a      	str	r2, [r3, #8]
  hlcd.Init.Duty = LCD_DUTY_1_4;
 800092e:	4b14      	ldr	r3, [pc, #80]	; (8000980 <MX_LCD_Init+0x68>)
 8000930:	220c      	movs	r2, #12
 8000932:	60da      	str	r2, [r3, #12]
  hlcd.Init.Bias = LCD_BIAS_1_4;
 8000934:	4b12      	ldr	r3, [pc, #72]	; (8000980 <MX_LCD_Init+0x68>)
 8000936:	2200      	movs	r2, #0
 8000938:	611a      	str	r2, [r3, #16]
  hlcd.Init.VoltageSource = LCD_VOLTAGESOURCE_INTERNAL;
 800093a:	4b11      	ldr	r3, [pc, #68]	; (8000980 <MX_LCD_Init+0x68>)
 800093c:	2200      	movs	r2, #0
 800093e:	615a      	str	r2, [r3, #20]
  hlcd.Init.Contrast = LCD_CONTRASTLEVEL_0;
 8000940:	4b0f      	ldr	r3, [pc, #60]	; (8000980 <MX_LCD_Init+0x68>)
 8000942:	2200      	movs	r2, #0
 8000944:	619a      	str	r2, [r3, #24]
  hlcd.Init.DeadTime = LCD_DEADTIME_0;
 8000946:	4b0e      	ldr	r3, [pc, #56]	; (8000980 <MX_LCD_Init+0x68>)
 8000948:	2200      	movs	r2, #0
 800094a:	61da      	str	r2, [r3, #28]
  hlcd.Init.PulseOnDuration = LCD_PULSEONDURATION_0;
 800094c:	4b0c      	ldr	r3, [pc, #48]	; (8000980 <MX_LCD_Init+0x68>)
 800094e:	2200      	movs	r2, #0
 8000950:	621a      	str	r2, [r3, #32]
  hlcd.Init.MuxSegment = LCD_MUXSEGMENT_DISABLE;
 8000952:	4b0b      	ldr	r3, [pc, #44]	; (8000980 <MX_LCD_Init+0x68>)
 8000954:	2200      	movs	r2, #0
 8000956:	631a      	str	r2, [r3, #48]	; 0x30
  hlcd.Init.BlinkMode = LCD_BLINKMODE_OFF;
 8000958:	4b09      	ldr	r3, [pc, #36]	; (8000980 <MX_LCD_Init+0x68>)
 800095a:	2200      	movs	r2, #0
 800095c:	629a      	str	r2, [r3, #40]	; 0x28
  hlcd.Init.BlinkFrequency = LCD_BLINKFREQUENCY_DIV8;
 800095e:	4b08      	ldr	r3, [pc, #32]	; (8000980 <MX_LCD_Init+0x68>)
 8000960:	2200      	movs	r2, #0
 8000962:	62da      	str	r2, [r3, #44]	; 0x2c
  hlcd.Init.HighDrive = LCD_HIGHDRIVE_DISABLE;
 8000964:	4b06      	ldr	r3, [pc, #24]	; (8000980 <MX_LCD_Init+0x68>)
 8000966:	2200      	movs	r2, #0
 8000968:	625a      	str	r2, [r3, #36]	; 0x24
  if (HAL_LCD_Init(&hlcd) != HAL_OK)
 800096a:	4805      	ldr	r0, [pc, #20]	; (8000980 <MX_LCD_Init+0x68>)
 800096c:	f004 fcb0 	bl	80052d0 <HAL_LCD_Init>
 8000970:	4603      	mov	r3, r0
 8000972:	2b00      	cmp	r3, #0
 8000974:	d001      	beq.n	800097a <MX_LCD_Init+0x62>
  {
    Error_Handler();
 8000976:	f000 fac5 	bl	8000f04 <Error_Handler>
  }
  /* USER CODE BEGIN LCD_Init 2 */

  /* USER CODE END LCD_Init 2 */

}
 800097a:	bf00      	nop
 800097c:	bd80      	pop	{r7, pc}
 800097e:	bf00      	nop
 8000980:	2000032c 	.word	0x2000032c
 8000984:	40002400 	.word	0x40002400

08000988 <MX_QUADSPI_Init>:
  * @brief QUADSPI Initialization Function
  * @param None
  * @retval None
  */
static void MX_QUADSPI_Init(void)
{
 8000988:	b580      	push	{r7, lr}
 800098a:	af00      	add	r7, sp, #0

  /* USER CODE BEGIN QUADSPI_Init 1 */

  /* USER CODE END QUADSPI_Init 1 */
  /* QUADSPI parameter configuration*/
  hqspi.Instance = QUADSPI;
 800098c:	4b0f      	ldr	r3, [pc, #60]	; (80009cc <MX_QUADSPI_Init+0x44>)
 800098e:	4a10      	ldr	r2, [pc, #64]	; (80009d0 <MX_QUADSPI_Init+0x48>)
 8000990:	601a      	str	r2, [r3, #0]
  hqspi.Init.ClockPrescaler = 255;
 8000992:	4b0e      	ldr	r3, [pc, #56]	; (80009cc <MX_QUADSPI_Init+0x44>)
 8000994:	22ff      	movs	r2, #255	; 0xff
 8000996:	605a      	str	r2, [r3, #4]
  hqspi.Init.FifoThreshold = 1;
 8000998:	4b0c      	ldr	r3, [pc, #48]	; (80009cc <MX_QUADSPI_Init+0x44>)
 800099a:	2201      	movs	r2, #1
 800099c:	609a      	str	r2, [r3, #8]
  hqspi.Init.SampleShifting = QSPI_SAMPLE_SHIFTING_NONE;
 800099e:	4b0b      	ldr	r3, [pc, #44]	; (80009cc <MX_QUADSPI_Init+0x44>)
 80009a0:	2200      	movs	r2, #0
 80009a2:	60da      	str	r2, [r3, #12]
  hqspi.Init.FlashSize = 1;
 80009a4:	4b09      	ldr	r3, [pc, #36]	; (80009cc <MX_QUADSPI_Init+0x44>)
 80009a6:	2201      	movs	r2, #1
 80009a8:	611a      	str	r2, [r3, #16]
  hqspi.Init.ChipSelectHighTime = QSPI_CS_HIGH_TIME_1_CYCLE;
 80009aa:	4b08      	ldr	r3, [pc, #32]	; (80009cc <MX_QUADSPI_Init+0x44>)
 80009ac:	2200      	movs	r2, #0
 80009ae:	615a      	str	r2, [r3, #20]
  hqspi.Init.ClockMode = QSPI_CLOCK_MODE_0;
 80009b0:	4b06      	ldr	r3, [pc, #24]	; (80009cc <MX_QUADSPI_Init+0x44>)
 80009b2:	2200      	movs	r2, #0
 80009b4:	619a      	str	r2, [r3, #24]
  if (HAL_QSPI_Init(&hqspi) != HAL_OK)
 80009b6:	4805      	ldr	r0, [pc, #20]	; (80009cc <MX_QUADSPI_Init+0x44>)
 80009b8:	f004 fdf0 	bl	800559c <HAL_QSPI_Init>
 80009bc:	4603      	mov	r3, r0
 80009be:	2b00      	cmp	r3, #0
 80009c0:	d001      	beq.n	80009c6 <MX_QUADSPI_Init+0x3e>
  {
    Error_Handler();
 80009c2:	f000 fa9f 	bl	8000f04 <Error_Handler>
  }
  /* USER CODE BEGIN QUADSPI_Init 2 */

  /* USER CODE END QUADSPI_Init 2 */

}
 80009c6:	bf00      	nop
 80009c8:	bd80      	pop	{r7, pc}
 80009ca:	bf00      	nop
 80009cc:	2000046c 	.word	0x2000046c
 80009d0:	a0001000 	.word	0xa0001000

080009d4 <MX_SAI1_Init>:
  * @brief SAI1 Initialization Function
  * @param None
  * @retval None
  */
static void MX_SAI1_Init(void)
{
 80009d4:	b580      	push	{r7, lr}
 80009d6:	af00      	add	r7, sp, #0
  /* USER CODE END SAI1_Init 0 */

  /* USER CODE BEGIN SAI1_Init 1 */

  /* USER CODE END SAI1_Init 1 */
  hsai_BlockA1.Instance = SAI1_Block_A;
 80009d8:	4b4d      	ldr	r3, [pc, #308]	; (8000b10 <MX_SAI1_Init+0x13c>)
 80009da:	4a4e      	ldr	r2, [pc, #312]	; (8000b14 <MX_SAI1_Init+0x140>)
 80009dc:	601a      	str	r2, [r3, #0]
  hsai_BlockA1.Init.Protocol = SAI_FREE_PROTOCOL;
 80009de:	4b4c      	ldr	r3, [pc, #304]	; (8000b10 <MX_SAI1_Init+0x13c>)
 80009e0:	2200      	movs	r2, #0
 80009e2:	631a      	str	r2, [r3, #48]	; 0x30
  hsai_BlockA1.Init.AudioMode = SAI_MODEMASTER_TX;
 80009e4:	4b4a      	ldr	r3, [pc, #296]	; (8000b10 <MX_SAI1_Init+0x13c>)
 80009e6:	2200      	movs	r2, #0
 80009e8:	605a      	str	r2, [r3, #4]
  hsai_BlockA1.Init.DataSize = SAI_DATASIZE_8;
 80009ea:	4b49      	ldr	r3, [pc, #292]	; (8000b10 <MX_SAI1_Init+0x13c>)
 80009ec:	2240      	movs	r2, #64	; 0x40
 80009ee:	635a      	str	r2, [r3, #52]	; 0x34
  hsai_BlockA1.Init.FirstBit = SAI_FIRSTBIT_MSB;
 80009f0:	4b47      	ldr	r3, [pc, #284]	; (8000b10 <MX_SAI1_Init+0x13c>)
 80009f2:	2200      	movs	r2, #0
 80009f4:	639a      	str	r2, [r3, #56]	; 0x38
  hsai_BlockA1.Init.ClockStrobing = SAI_CLOCKSTROBING_FALLINGEDGE;
 80009f6:	4b46      	ldr	r3, [pc, #280]	; (8000b10 <MX_SAI1_Init+0x13c>)
 80009f8:	2200      	movs	r2, #0
 80009fa:	63da      	str	r2, [r3, #60]	; 0x3c
  hsai_BlockA1.Init.Synchro = SAI_ASYNCHRONOUS;
 80009fc:	4b44      	ldr	r3, [pc, #272]	; (8000b10 <MX_SAI1_Init+0x13c>)
 80009fe:	2200      	movs	r2, #0
 8000a00:	609a      	str	r2, [r3, #8]
  hsai_BlockA1.Init.OutputDrive = SAI_OUTPUTDRIVE_DISABLE;
 8000a02:	4b43      	ldr	r3, [pc, #268]	; (8000b10 <MX_SAI1_Init+0x13c>)
 8000a04:	2200      	movs	r2, #0
 8000a06:	611a      	str	r2, [r3, #16]
  hsai_BlockA1.Init.NoDivider = SAI_MASTERDIVIDER_ENABLE;
 8000a08:	4b41      	ldr	r3, [pc, #260]	; (8000b10 <MX_SAI1_Init+0x13c>)
 8000a0a:	2200      	movs	r2, #0
 8000a0c:	615a      	str	r2, [r3, #20]
  hsai_BlockA1.Init.FIFOThreshold = SAI_FIFOTHRESHOLD_EMPTY;
 8000a0e:	4b40      	ldr	r3, [pc, #256]	; (8000b10 <MX_SAI1_Init+0x13c>)
 8000a10:	2200      	movs	r2, #0
 8000a12:	619a      	str	r2, [r3, #24]
  hsai_BlockA1.Init.AudioFrequency = SAI_AUDIO_FREQUENCY_192K;
 8000a14:	4b3e      	ldr	r3, [pc, #248]	; (8000b10 <MX_SAI1_Init+0x13c>)
 8000a16:	4a40      	ldr	r2, [pc, #256]	; (8000b18 <MX_SAI1_Init+0x144>)
 8000a18:	61da      	str	r2, [r3, #28]
  hsai_BlockA1.Init.SynchroExt = SAI_SYNCEXT_DISABLE;
 8000a1a:	4b3d      	ldr	r3, [pc, #244]	; (8000b10 <MX_SAI1_Init+0x13c>)
 8000a1c:	2200      	movs	r2, #0
 8000a1e:	60da      	str	r2, [r3, #12]
  hsai_BlockA1.Init.MonoStereoMode = SAI_STEREOMODE;
 8000a20:	4b3b      	ldr	r3, [pc, #236]	; (8000b10 <MX_SAI1_Init+0x13c>)
 8000a22:	2200      	movs	r2, #0
 8000a24:	625a      	str	r2, [r3, #36]	; 0x24
  hsai_BlockA1.Init.CompandingMode = SAI_NOCOMPANDING;
 8000a26:	4b3a      	ldr	r3, [pc, #232]	; (8000b10 <MX_SAI1_Init+0x13c>)
 8000a28:	2200      	movs	r2, #0
 8000a2a:	629a      	str	r2, [r3, #40]	; 0x28
  hsai_BlockA1.Init.TriState = SAI_OUTPUT_NOTRELEASED;
 8000a2c:	4b38      	ldr	r3, [pc, #224]	; (8000b10 <MX_SAI1_Init+0x13c>)
 8000a2e:	2200      	movs	r2, #0
 8000a30:	62da      	str	r2, [r3, #44]	; 0x2c
  hsai_BlockA1.FrameInit.FrameLength = 8;
 8000a32:	4b37      	ldr	r3, [pc, #220]	; (8000b10 <MX_SAI1_Init+0x13c>)
 8000a34:	2208      	movs	r2, #8
 8000a36:	641a      	str	r2, [r3, #64]	; 0x40
  hsai_BlockA1.FrameInit.ActiveFrameLength = 1;
 8000a38:	4b35      	ldr	r3, [pc, #212]	; (8000b10 <MX_SAI1_Init+0x13c>)
 8000a3a:	2201      	movs	r2, #1
 8000a3c:	645a      	str	r2, [r3, #68]	; 0x44
  hsai_BlockA1.FrameInit.FSDefinition = SAI_FS_STARTFRAME;
 8000a3e:	4b34      	ldr	r3, [pc, #208]	; (8000b10 <MX_SAI1_Init+0x13c>)
 8000a40:	2200      	movs	r2, #0
 8000a42:	649a      	str	r2, [r3, #72]	; 0x48
  hsai_BlockA1.FrameInit.FSPolarity = SAI_FS_ACTIVE_LOW;
 8000a44:	4b32      	ldr	r3, [pc, #200]	; (8000b10 <MX_SAI1_Init+0x13c>)
 8000a46:	2200      	movs	r2, #0
 8000a48:	64da      	str	r2, [r3, #76]	; 0x4c
  hsai_BlockA1.FrameInit.FSOffset = SAI_FS_FIRSTBIT;
 8000a4a:	4b31      	ldr	r3, [pc, #196]	; (8000b10 <MX_SAI1_Init+0x13c>)
 8000a4c:	2200      	movs	r2, #0
 8000a4e:	651a      	str	r2, [r3, #80]	; 0x50
  hsai_BlockA1.SlotInit.FirstBitOffset = 0;
 8000a50:	4b2f      	ldr	r3, [pc, #188]	; (8000b10 <MX_SAI1_Init+0x13c>)
 8000a52:	2200      	movs	r2, #0
 8000a54:	655a      	str	r2, [r3, #84]	; 0x54
  hsai_BlockA1.SlotInit.SlotSize = SAI_SLOTSIZE_DATASIZE;
 8000a56:	4b2e      	ldr	r3, [pc, #184]	; (8000b10 <MX_SAI1_Init+0x13c>)
 8000a58:	2200      	movs	r2, #0
 8000a5a:	659a      	str	r2, [r3, #88]	; 0x58
  hsai_BlockA1.SlotInit.SlotNumber = 1;
 8000a5c:	4b2c      	ldr	r3, [pc, #176]	; (8000b10 <MX_SAI1_Init+0x13c>)
 8000a5e:	2201      	movs	r2, #1
 8000a60:	65da      	str	r2, [r3, #92]	; 0x5c
  hsai_BlockA1.SlotInit.SlotActive = 0x00000000;
 8000a62:	4b2b      	ldr	r3, [pc, #172]	; (8000b10 <MX_SAI1_Init+0x13c>)
 8000a64:	2200      	movs	r2, #0
 8000a66:	661a      	str	r2, [r3, #96]	; 0x60
  if (HAL_SAI_Init(&hsai_BlockA1) != HAL_OK)
 8000a68:	4829      	ldr	r0, [pc, #164]	; (8000b10 <MX_SAI1_Init+0x13c>)
 8000a6a:	f006 fe23 	bl	80076b4 <HAL_SAI_Init>
 8000a6e:	4603      	mov	r3, r0
 8000a70:	2b00      	cmp	r3, #0
 8000a72:	d001      	beq.n	8000a78 <MX_SAI1_Init+0xa4>
  {
    Error_Handler();
 8000a74:	f000 fa46 	bl	8000f04 <Error_Handler>
  }
  hsai_BlockB1.Instance = SAI1_Block_B;
 8000a78:	4b28      	ldr	r3, [pc, #160]	; (8000b1c <MX_SAI1_Init+0x148>)
 8000a7a:	4a29      	ldr	r2, [pc, #164]	; (8000b20 <MX_SAI1_Init+0x14c>)
 8000a7c:	601a      	str	r2, [r3, #0]
  hsai_BlockB1.Init.Protocol = SAI_FREE_PROTOCOL;
 8000a7e:	4b27      	ldr	r3, [pc, #156]	; (8000b1c <MX_SAI1_Init+0x148>)
 8000a80:	2200      	movs	r2, #0
 8000a82:	631a      	str	r2, [r3, #48]	; 0x30
  hsai_BlockB1.Init.AudioMode = SAI_MODESLAVE_RX;
 8000a84:	4b25      	ldr	r3, [pc, #148]	; (8000b1c <MX_SAI1_Init+0x148>)
 8000a86:	2203      	movs	r2, #3
 8000a88:	605a      	str	r2, [r3, #4]
  hsai_BlockB1.Init.DataSize = SAI_DATASIZE_8;
 8000a8a:	4b24      	ldr	r3, [pc, #144]	; (8000b1c <MX_SAI1_Init+0x148>)
 8000a8c:	2240      	movs	r2, #64	; 0x40
 8000a8e:	635a      	str	r2, [r3, #52]	; 0x34
  hsai_BlockB1.Init.FirstBit = SAI_FIRSTBIT_MSB;
 8000a90:	4b22      	ldr	r3, [pc, #136]	; (8000b1c <MX_SAI1_Init+0x148>)
 8000a92:	2200      	movs	r2, #0
 8000a94:	639a      	str	r2, [r3, #56]	; 0x38
  hsai_BlockB1.Init.ClockStrobing = SAI_CLOCKSTROBING_FALLINGEDGE;
 8000a96:	4b21      	ldr	r3, [pc, #132]	; (8000b1c <MX_SAI1_Init+0x148>)
 8000a98:	2200      	movs	r2, #0
 8000a9a:	63da      	str	r2, [r3, #60]	; 0x3c
  hsai_BlockB1.Init.Synchro = SAI_SYNCHRONOUS;
 8000a9c:	4b1f      	ldr	r3, [pc, #124]	; (8000b1c <MX_SAI1_Init+0x148>)
 8000a9e:	2201      	movs	r2, #1
 8000aa0:	609a      	str	r2, [r3, #8]
  hsai_BlockB1.Init.OutputDrive = SAI_OUTPUTDRIVE_DISABLE;
 8000aa2:	4b1e      	ldr	r3, [pc, #120]	; (8000b1c <MX_SAI1_Init+0x148>)
 8000aa4:	2200      	movs	r2, #0
 8000aa6:	611a      	str	r2, [r3, #16]
  hsai_BlockB1.Init.FIFOThreshold = SAI_FIFOTHRESHOLD_EMPTY;
 8000aa8:	4b1c      	ldr	r3, [pc, #112]	; (8000b1c <MX_SAI1_Init+0x148>)
 8000aaa:	2200      	movs	r2, #0
 8000aac:	619a      	str	r2, [r3, #24]
  hsai_BlockB1.Init.SynchroExt = SAI_SYNCEXT_DISABLE;
 8000aae:	4b1b      	ldr	r3, [pc, #108]	; (8000b1c <MX_SAI1_Init+0x148>)
 8000ab0:	2200      	movs	r2, #0
 8000ab2:	60da      	str	r2, [r3, #12]
  hsai_BlockB1.Init.MonoStereoMode = SAI_STEREOMODE;
 8000ab4:	4b19      	ldr	r3, [pc, #100]	; (8000b1c <MX_SAI1_Init+0x148>)
 8000ab6:	2200      	movs	r2, #0
 8000ab8:	625a      	str	r2, [r3, #36]	; 0x24
  hsai_BlockB1.Init.CompandingMode = SAI_NOCOMPANDING;
 8000aba:	4b18      	ldr	r3, [pc, #96]	; (8000b1c <MX_SAI1_Init+0x148>)
 8000abc:	2200      	movs	r2, #0
 8000abe:	629a      	str	r2, [r3, #40]	; 0x28
  hsai_BlockB1.Init.TriState = SAI_OUTPUT_NOTRELEASED;
 8000ac0:	4b16      	ldr	r3, [pc, #88]	; (8000b1c <MX_SAI1_Init+0x148>)
 8000ac2:	2200      	movs	r2, #0
 8000ac4:	62da      	str	r2, [r3, #44]	; 0x2c
  hsai_BlockB1.FrameInit.FrameLength = 8;
 8000ac6:	4b15      	ldr	r3, [pc, #84]	; (8000b1c <MX_SAI1_Init+0x148>)
 8000ac8:	2208      	movs	r2, #8
 8000aca:	641a      	str	r2, [r3, #64]	; 0x40
  hsai_BlockB1.FrameInit.ActiveFrameLength = 1;
 8000acc:	4b13      	ldr	r3, [pc, #76]	; (8000b1c <MX_SAI1_Init+0x148>)
 8000ace:	2201      	movs	r2, #1
 8000ad0:	645a      	str	r2, [r3, #68]	; 0x44
  hsai_BlockB1.FrameInit.FSDefinition = SAI_FS_STARTFRAME;
 8000ad2:	4b12      	ldr	r3, [pc, #72]	; (8000b1c <MX_SAI1_Init+0x148>)
 8000ad4:	2200      	movs	r2, #0
 8000ad6:	649a      	str	r2, [r3, #72]	; 0x48
  hsai_BlockB1.FrameInit.FSPolarity = SAI_FS_ACTIVE_LOW;
 8000ad8:	4b10      	ldr	r3, [pc, #64]	; (8000b1c <MX_SAI1_Init+0x148>)
 8000ada:	2200      	movs	r2, #0
 8000adc:	64da      	str	r2, [r3, #76]	; 0x4c
  hsai_BlockB1.FrameInit.FSOffset = SAI_FS_FIRSTBIT;
 8000ade:	4b0f      	ldr	r3, [pc, #60]	; (8000b1c <MX_SAI1_Init+0x148>)
 8000ae0:	2200      	movs	r2, #0
 8000ae2:	651a      	str	r2, [r3, #80]	; 0x50
  hsai_BlockB1.SlotInit.FirstBitOffset = 0;
 8000ae4:	4b0d      	ldr	r3, [pc, #52]	; (8000b1c <MX_SAI1_Init+0x148>)
 8000ae6:	2200      	movs	r2, #0
 8000ae8:	655a      	str	r2, [r3, #84]	; 0x54
  hsai_BlockB1.SlotInit.SlotSize = SAI_SLOTSIZE_DATASIZE;
 8000aea:	4b0c      	ldr	r3, [pc, #48]	; (8000b1c <MX_SAI1_Init+0x148>)
 8000aec:	2200      	movs	r2, #0
 8000aee:	659a      	str	r2, [r3, #88]	; 0x58
  hsai_BlockB1.SlotInit.SlotNumber = 1;
 8000af0:	4b0a      	ldr	r3, [pc, #40]	; (8000b1c <MX_SAI1_Init+0x148>)
 8000af2:	2201      	movs	r2, #1
 8000af4:	65da      	str	r2, [r3, #92]	; 0x5c
  hsai_BlockB1.SlotInit.SlotActive = 0x00000000;
 8000af6:	4b09      	ldr	r3, [pc, #36]	; (8000b1c <MX_SAI1_Init+0x148>)
 8000af8:	2200      	movs	r2, #0
 8000afa:	661a      	str	r2, [r3, #96]	; 0x60
  if (HAL_SAI_Init(&hsai_BlockB1) != HAL_OK)
 8000afc:	4807      	ldr	r0, [pc, #28]	; (8000b1c <MX_SAI1_Init+0x148>)
 8000afe:	f006 fdd9 	bl	80076b4 <HAL_SAI_Init>
 8000b02:	4603      	mov	r3, r0
 8000b04:	2b00      	cmp	r3, #0
 8000b06:	d001      	beq.n	8000b0c <MX_SAI1_Init+0x138>
  {
    Error_Handler();
 8000b08:	f000 f9fc 	bl	8000f04 <Error_Handler>
  }
  /* USER CODE BEGIN SAI1_Init 2 */

  /* USER CODE END SAI1_Init 2 */

}
 8000b0c:	bf00      	nop
 8000b0e:	bd80      	pop	{r7, pc}
 8000b10:	20000368 	.word	0x20000368
 8000b14:	40015404 	.word	0x40015404
 8000b18:	0002ee00 	.word	0x0002ee00
 8000b1c:	20000204 	.word	0x20000204
 8000b20:	40015424 	.word	0x40015424

08000b24 <MX_SPI2_Init>:
  * @brief SPI2 Initialization Function
  * @param None
  * @retval None
  */
static void MX_SPI2_Init(void)
{
 8000b24:	b580      	push	{r7, lr}
 8000b26:	af00      	add	r7, sp, #0

  /* USER CODE BEGIN SPI2_Init 1 */

  /* USER CODE END SPI2_Init 1 */
  /* SPI2 parameter configuration*/
  hspi2.Instance = SPI2;
 8000b28:	4b1b      	ldr	r3, [pc, #108]	; (8000b98 <MX_SPI2_Init+0x74>)
 8000b2a:	4a1c      	ldr	r2, [pc, #112]	; (8000b9c <MX_SPI2_Init+0x78>)
 8000b2c:	601a      	str	r2, [r3, #0]
  hspi2.Init.Mode = SPI_MODE_MASTER;
 8000b2e:	4b1a      	ldr	r3, [pc, #104]	; (8000b98 <MX_SPI2_Init+0x74>)
 8000b30:	f44f 7282 	mov.w	r2, #260	; 0x104
 8000b34:	605a      	str	r2, [r3, #4]
  hspi2.Init.Direction = SPI_DIRECTION_2LINES;
 8000b36:	4b18      	ldr	r3, [pc, #96]	; (8000b98 <MX_SPI2_Init+0x74>)
 8000b38:	2200      	movs	r2, #0
 8000b3a:	609a      	str	r2, [r3, #8]
  hspi2.Init.DataSize = SPI_DATASIZE_4BIT;
 8000b3c:	4b16      	ldr	r3, [pc, #88]	; (8000b98 <MX_SPI2_Init+0x74>)
 8000b3e:	f44f 7240 	mov.w	r2, #768	; 0x300
 8000b42:	60da      	str	r2, [r3, #12]
  hspi2.Init.CLKPolarity = SPI_POLARITY_LOW;
 8000b44:	4b14      	ldr	r3, [pc, #80]	; (8000b98 <MX_SPI2_Init+0x74>)
 8000b46:	2200      	movs	r2, #0
 8000b48:	611a      	str	r2, [r3, #16]
  hspi2.Init.CLKPhase = SPI_PHASE_1EDGE;
 8000b4a:	4b13      	ldr	r3, [pc, #76]	; (8000b98 <MX_SPI2_Init+0x74>)
 8000b4c:	2200      	movs	r2, #0
 8000b4e:	615a      	str	r2, [r3, #20]
  hspi2.Init.NSS = SPI_NSS_SOFT;
 8000b50:	4b11      	ldr	r3, [pc, #68]	; (8000b98 <MX_SPI2_Init+0x74>)
 8000b52:	f44f 7200 	mov.w	r2, #512	; 0x200
 8000b56:	619a      	str	r2, [r3, #24]
  hspi2.Init.BaudRatePrescaler = SPI_BAUDRATEPRESCALER_2;
 8000b58:	4b0f      	ldr	r3, [pc, #60]	; (8000b98 <MX_SPI2_Init+0x74>)
 8000b5a:	2200      	movs	r2, #0
 8000b5c:	61da      	str	r2, [r3, #28]
  hspi2.Init.FirstBit = SPI_FIRSTBIT_MSB;
 8000b5e:	4b0e      	ldr	r3, [pc, #56]	; (8000b98 <MX_SPI2_Init+0x74>)
 8000b60:	2200      	movs	r2, #0
 8000b62:	621a      	str	r2, [r3, #32]
  hspi2.Init.TIMode = SPI_TIMODE_DISABLE;
 8000b64:	4b0c      	ldr	r3, [pc, #48]	; (8000b98 <MX_SPI2_Init+0x74>)
 8000b66:	2200      	movs	r2, #0
 8000b68:	625a      	str	r2, [r3, #36]	; 0x24
  hspi2.Init.CRCCalculation = SPI_CRCCALCULATION_DISABLE;
 8000b6a:	4b0b      	ldr	r3, [pc, #44]	; (8000b98 <MX_SPI2_Init+0x74>)
 8000b6c:	2200      	movs	r2, #0
 8000b6e:	629a      	str	r2, [r3, #40]	; 0x28
  hspi2.Init.CRCPolynomial = 7;
 8000b70:	4b09      	ldr	r3, [pc, #36]	; (8000b98 <MX_SPI2_Init+0x74>)
 8000b72:	2207      	movs	r2, #7
 8000b74:	62da      	str	r2, [r3, #44]	; 0x2c
  hspi2.Init.CRCLength = SPI_CRC_LENGTH_DATASIZE;
 8000b76:	4b08      	ldr	r3, [pc, #32]	; (8000b98 <MX_SPI2_Init+0x74>)
 8000b78:	2200      	movs	r2, #0
 8000b7a:	631a      	str	r2, [r3, #48]	; 0x30
  hspi2.Init.NSSPMode = SPI_NSS_PULSE_ENABLE;
 8000b7c:	4b06      	ldr	r3, [pc, #24]	; (8000b98 <MX_SPI2_Init+0x74>)
 8000b7e:	2208      	movs	r2, #8
 8000b80:	635a      	str	r2, [r3, #52]	; 0x34
  if (HAL_SPI_Init(&hspi2) != HAL_OK)
 8000b82:	4805      	ldr	r0, [pc, #20]	; (8000b98 <MX_SPI2_Init+0x74>)
 8000b84:	f006 ff30 	bl	80079e8 <HAL_SPI_Init>
 8000b88:	4603      	mov	r3, r0
 8000b8a:	2b00      	cmp	r3, #0
 8000b8c:	d001      	beq.n	8000b92 <MX_SPI2_Init+0x6e>
  {
    Error_Handler();
 8000b8e:	f000 f9b9 	bl	8000f04 <Error_Handler>
  }
  /* USER CODE BEGIN SPI2_Init 2 */

  /* USER CODE END SPI2_Init 2 */

}
 8000b92:	bf00      	nop
 8000b94:	bd80      	pop	{r7, pc}
 8000b96:	bf00      	nop
 8000b98:	200000c8 	.word	0x200000c8
 8000b9c:	40003800 	.word	0x40003800

08000ba0 <MX_TIM4_Init>:
  * @brief TIM4 Initialization Function
  * @param None
  * @retval None
  */
static void MX_TIM4_Init(void)
{
 8000ba0:	b580      	push	{r7, lr}
 8000ba2:	b082      	sub	sp, #8
 8000ba4:	af00      	add	r7, sp, #0
	Timer4Handle.Instance = TIM4;
 8000ba6:	4b17      	ldr	r3, [pc, #92]	; (8000c04 <MX_TIM4_Init+0x64>)
 8000ba8:	4a17      	ldr	r2, [pc, #92]	; (8000c08 <MX_TIM4_Init+0x68>)
 8000baa:	601a      	str	r2, [r3, #0]
	Timer4Handle.Init.CounterMode = TIM_COUNTERMODE_UP;
 8000bac:	4b15      	ldr	r3, [pc, #84]	; (8000c04 <MX_TIM4_Init+0x64>)
 8000bae:	2200      	movs	r2, #0
 8000bb0:	609a      	str	r2, [r3, #8]
	Timer4Handle.Init.ClockDivision = 0;
 8000bb2:	4b14      	ldr	r3, [pc, #80]	; (8000c04 <MX_TIM4_Init+0x64>)
 8000bb4:	2200      	movs	r2, #0
 8000bb6:	611a      	str	r2, [r3, #16]
	Timer4Handle.Init.Prescaler = 1000;
 8000bb8:	4b12      	ldr	r3, [pc, #72]	; (8000c04 <MX_TIM4_Init+0x64>)
 8000bba:	f44f 727a 	mov.w	r2, #1000	; 0x3e8
 8000bbe:	605a      	str	r2, [r3, #4]
	Timer4Handle.Init.Period = 15000;
 8000bc0:	4b10      	ldr	r3, [pc, #64]	; (8000c04 <MX_TIM4_Init+0x64>)
 8000bc2:	f643 2298 	movw	r2, #15000	; 0x3a98
 8000bc6:	60da      	str	r2, [r3, #12]
	__HAL_RCC_TIM4_CLK_ENABLE();
 8000bc8:	4b10      	ldr	r3, [pc, #64]	; (8000c0c <MX_TIM4_Init+0x6c>)
 8000bca:	6d9b      	ldr	r3, [r3, #88]	; 0x58
 8000bcc:	4a0f      	ldr	r2, [pc, #60]	; (8000c0c <MX_TIM4_Init+0x6c>)
 8000bce:	f043 0304 	orr.w	r3, r3, #4
 8000bd2:	6593      	str	r3, [r2, #88]	; 0x58
 8000bd4:	4b0d      	ldr	r3, [pc, #52]	; (8000c0c <MX_TIM4_Init+0x6c>)
 8000bd6:	6d9b      	ldr	r3, [r3, #88]	; 0x58
 8000bd8:	f003 0304 	and.w	r3, r3, #4
 8000bdc:	607b      	str	r3, [r7, #4]
 8000bde:	687b      	ldr	r3, [r7, #4]
	HAL_TIM_Base_Init(&Timer4Handle);
 8000be0:	4808      	ldr	r0, [pc, #32]	; (8000c04 <MX_TIM4_Init+0x64>)
 8000be2:	f006 ff8b 	bl	8007afc <HAL_TIM_Base_Init>
	HAL_TIM_Base_Start_IT(&Timer4Handle);
 8000be6:	4807      	ldr	r0, [pc, #28]	; (8000c04 <MX_TIM4_Init+0x64>)
 8000be8:	f006 ffb4 	bl	8007b54 <HAL_TIM_Base_Start_IT>
	HAL_NVIC_SetPriority(TIM4_IRQn, 7, 0); // middle priority
 8000bec:	2200      	movs	r2, #0
 8000bee:	2107      	movs	r1, #7
 8000bf0:	201e      	movs	r0, #30
 8000bf2:	f002 fc34 	bl	800345e <HAL_NVIC_SetPriority>
	HAL_NVIC_EnableIRQ(TIM4_IRQn);
 8000bf6:	201e      	movs	r0, #30
 8000bf8:	f002 fc4d 	bl	8003496 <HAL_NVIC_EnableIRQ>

}
 8000bfc:	bf00      	nop
 8000bfe:	3708      	adds	r7, #8
 8000c00:	46bd      	mov	sp, r7
 8000c02:	bd80      	pop	{r7, pc}
 8000c04:	200002ec 	.word	0x200002ec
 8000c08:	40000800 	.word	0x40000800
 8000c0c:	40021000 	.word	0x40021000

08000c10 <MX_USART2_UART_Init>:
  * @brief USART2 Initialization Function
  * @param None
  * @retval None
  */
static void MX_USART2_UART_Init(void)
{
 8000c10:	b580      	push	{r7, lr}
 8000c12:	af00      	add	r7, sp, #0
  /* USER CODE END USART2_Init 0 */

  /* USER CODE BEGIN USART2_Init 1 */

  /* USER CODE END USART2_Init 1 */
  huart2.Instance = USART2;
 8000c14:	4b14      	ldr	r3, [pc, #80]	; (8000c68 <MX_USART2_UART_Init+0x58>)
 8000c16:	4a15      	ldr	r2, [pc, #84]	; (8000c6c <MX_USART2_UART_Init+0x5c>)
 8000c18:	601a      	str	r2, [r3, #0]
  huart2.Init.BaudRate = 115200;
 8000c1a:	4b13      	ldr	r3, [pc, #76]	; (8000c68 <MX_USART2_UART_Init+0x58>)
 8000c1c:	f44f 32e1 	mov.w	r2, #115200	; 0x1c200
 8000c20:	605a      	str	r2, [r3, #4]
  huart2.Init.WordLength = UART_WORDLENGTH_8B;
 8000c22:	4b11      	ldr	r3, [pc, #68]	; (8000c68 <MX_USART2_UART_Init+0x58>)
 8000c24:	2200      	movs	r2, #0
 8000c26:	609a      	str	r2, [r3, #8]
  huart2.Init.StopBits = UART_STOPBITS_1;
 8000c28:	4b0f      	ldr	r3, [pc, #60]	; (8000c68 <MX_USART2_UART_Init+0x58>)
 8000c2a:	2200      	movs	r2, #0
 8000c2c:	60da      	str	r2, [r3, #12]
  huart2.Init.Parity = UART_PARITY_NONE;
 8000c2e:	4b0e      	ldr	r3, [pc, #56]	; (8000c68 <MX_USART2_UART_Init+0x58>)
 8000c30:	2200      	movs	r2, #0
 8000c32:	611a      	str	r2, [r3, #16]
  huart2.Init.Mode = UART_MODE_TX_RX;
 8000c34:	4b0c      	ldr	r3, [pc, #48]	; (8000c68 <MX_USART2_UART_Init+0x58>)
 8000c36:	220c      	movs	r2, #12
 8000c38:	615a      	str	r2, [r3, #20]
  huart2.Init.HwFlowCtl = UART_HWCONTROL_NONE;
 8000c3a:	4b0b      	ldr	r3, [pc, #44]	; (8000c68 <MX_USART2_UART_Init+0x58>)
 8000c3c:	2200      	movs	r2, #0
 8000c3e:	619a      	str	r2, [r3, #24]
  huart2.Init.OverSampling = UART_OVERSAMPLING_16;
 8000c40:	4b09      	ldr	r3, [pc, #36]	; (8000c68 <MX_USART2_UART_Init+0x58>)
 8000c42:	2200      	movs	r2, #0
 8000c44:	61da      	str	r2, [r3, #28]
  huart2.Init.OneBitSampling = UART_ONE_BIT_SAMPLE_DISABLE;
 8000c46:	4b08      	ldr	r3, [pc, #32]	; (8000c68 <MX_USART2_UART_Init+0x58>)
 8000c48:	2200      	movs	r2, #0
 8000c4a:	621a      	str	r2, [r3, #32]
  huart2.AdvancedInit.AdvFeatureInit = UART_ADVFEATURE_NO_INIT;
 8000c4c:	4b06      	ldr	r3, [pc, #24]	; (8000c68 <MX_USART2_UART_Init+0x58>)
 8000c4e:	2200      	movs	r2, #0
 8000c50:	625a      	str	r2, [r3, #36]	; 0x24
  if (HAL_UART_Init(&huart2) != HAL_OK)
 8000c52:	4805      	ldr	r0, [pc, #20]	; (8000c68 <MX_USART2_UART_Init+0x58>)
 8000c54:	f007 f842 	bl	8007cdc <HAL_UART_Init>
 8000c58:	4603      	mov	r3, r0
 8000c5a:	2b00      	cmp	r3, #0
 8000c5c:	d001      	beq.n	8000c62 <MX_USART2_UART_Init+0x52>
  {
    Error_Handler();
 8000c5e:	f000 f951 	bl	8000f04 <Error_Handler>
  }
  /* USER CODE BEGIN USART2_Init 2 */

  /* USER CODE END USART2_Init 2 */

}
 8000c62:	bf00      	nop
 8000c64:	bd80      	pop	{r7, pc}
 8000c66:	bf00      	nop
 8000c68:	200003ec 	.word	0x200003ec
 8000c6c:	40004400 	.word	0x40004400

08000c70 <MX_GPIO_Init>:
  * @brief GPIO Initialization Function
  * @param None
  * @retval None
  */
static void MX_GPIO_Init(void)
{
 8000c70:	b580      	push	{r7, lr}
 8000c72:	b08c      	sub	sp, #48	; 0x30
 8000c74:	af00      	add	r7, sp, #0
  GPIO_InitTypeDef GPIO_InitStruct = {0};
 8000c76:	f107 031c 	add.w	r3, r7, #28
 8000c7a:	2200      	movs	r2, #0
 8000c7c:	601a      	str	r2, [r3, #0]
 8000c7e:	605a      	str	r2, [r3, #4]
 8000c80:	609a      	str	r2, [r3, #8]
 8000c82:	60da      	str	r2, [r3, #12]
 8000c84:	611a      	str	r2, [r3, #16]

  /* GPIO Ports Clock Enable */
  __HAL_RCC_GPIOE_CLK_ENABLE();
 8000c86:	4b99      	ldr	r3, [pc, #612]	; (8000eec <MX_GPIO_Init+0x27c>)
 8000c88:	6cdb      	ldr	r3, [r3, #76]	; 0x4c
 8000c8a:	4a98      	ldr	r2, [pc, #608]	; (8000eec <MX_GPIO_Init+0x27c>)
 8000c8c:	f043 0310 	orr.w	r3, r3, #16
 8000c90:	64d3      	str	r3, [r2, #76]	; 0x4c
 8000c92:	4b96      	ldr	r3, [pc, #600]	; (8000eec <MX_GPIO_Init+0x27c>)
 8000c94:	6cdb      	ldr	r3, [r3, #76]	; 0x4c
 8000c96:	f003 0310 	and.w	r3, r3, #16
 8000c9a:	61bb      	str	r3, [r7, #24]
 8000c9c:	69bb      	ldr	r3, [r7, #24]
  __HAL_RCC_GPIOC_CLK_ENABLE();
 8000c9e:	4b93      	ldr	r3, [pc, #588]	; (8000eec <MX_GPIO_Init+0x27c>)
 8000ca0:	6cdb      	ldr	r3, [r3, #76]	; 0x4c
 8000ca2:	4a92      	ldr	r2, [pc, #584]	; (8000eec <MX_GPIO_Init+0x27c>)
 8000ca4:	f043 0304 	orr.w	r3, r3, #4
 8000ca8:	64d3      	str	r3, [r2, #76]	; 0x4c
 8000caa:	4b90      	ldr	r3, [pc, #576]	; (8000eec <MX_GPIO_Init+0x27c>)
 8000cac:	6cdb      	ldr	r3, [r3, #76]	; 0x4c
 8000cae:	f003 0304 	and.w	r3, r3, #4
 8000cb2:	617b      	str	r3, [r7, #20]
 8000cb4:	697b      	ldr	r3, [r7, #20]
  __HAL_RCC_GPIOH_CLK_ENABLE();
 8000cb6:	4b8d      	ldr	r3, [pc, #564]	; (8000eec <MX_GPIO_Init+0x27c>)
 8000cb8:	6cdb      	ldr	r3, [r3, #76]	; 0x4c
 8000cba:	4a8c      	ldr	r2, [pc, #560]	; (8000eec <MX_GPIO_Init+0x27c>)
 8000cbc:	f043 0380 	orr.w	r3, r3, #128	; 0x80
 8000cc0:	64d3      	str	r3, [r2, #76]	; 0x4c
 8000cc2:	4b8a      	ldr	r3, [pc, #552]	; (8000eec <MX_GPIO_Init+0x27c>)
 8000cc4:	6cdb      	ldr	r3, [r3, #76]	; 0x4c
 8000cc6:	f003 0380 	and.w	r3, r3, #128	; 0x80
 8000cca:	613b      	str	r3, [r7, #16]
 8000ccc:	693b      	ldr	r3, [r7, #16]
  __HAL_RCC_GPIOA_CLK_ENABLE();
 8000cce:	4b87      	ldr	r3, [pc, #540]	; (8000eec <MX_GPIO_Init+0x27c>)
 8000cd0:	6cdb      	ldr	r3, [r3, #76]	; 0x4c
 8000cd2:	4a86      	ldr	r2, [pc, #536]	; (8000eec <MX_GPIO_Init+0x27c>)
 8000cd4:	f043 0301 	orr.w	r3, r3, #1
 8000cd8:	64d3      	str	r3, [r2, #76]	; 0x4c
 8000cda:	4b84      	ldr	r3, [pc, #528]	; (8000eec <MX_GPIO_Init+0x27c>)
 8000cdc:	6cdb      	ldr	r3, [r3, #76]	; 0x4c
 8000cde:	f003 0301 	and.w	r3, r3, #1
 8000ce2:	60fb      	str	r3, [r7, #12]
 8000ce4:	68fb      	ldr	r3, [r7, #12]
  __HAL_RCC_GPIOB_CLK_ENABLE();
 8000ce6:	4b81      	ldr	r3, [pc, #516]	; (8000eec <MX_GPIO_Init+0x27c>)
 8000ce8:	6cdb      	ldr	r3, [r3, #76]	; 0x4c
 8000cea:	4a80      	ldr	r2, [pc, #512]	; (8000eec <MX_GPIO_Init+0x27c>)
 8000cec:	f043 0302 	orr.w	r3, r3, #2
 8000cf0:	64d3      	str	r3, [r2, #76]	; 0x4c
 8000cf2:	4b7e      	ldr	r3, [pc, #504]	; (8000eec <MX_GPIO_Init+0x27c>)
 8000cf4:	6cdb      	ldr	r3, [r3, #76]	; 0x4c
 8000cf6:	f003 0302 	and.w	r3, r3, #2
 8000cfa:	60bb      	str	r3, [r7, #8]
 8000cfc:	68bb      	ldr	r3, [r7, #8]
  __HAL_RCC_GPIOD_CLK_ENABLE();
 8000cfe:	4b7b      	ldr	r3, [pc, #492]	; (8000eec <MX_GPIO_Init+0x27c>)
 8000d00:	6cdb      	ldr	r3, [r3, #76]	; 0x4c
 8000d02:	4a7a      	ldr	r2, [pc, #488]	; (8000eec <MX_GPIO_Init+0x27c>)
 8000d04:	f043 0308 	orr.w	r3, r3, #8
 8000d08:	64d3      	str	r3, [r2, #76]	; 0x4c
 8000d0a:	4b78      	ldr	r3, [pc, #480]	; (8000eec <MX_GPIO_Init+0x27c>)
 8000d0c:	6cdb      	ldr	r3, [r3, #76]	; 0x4c
 8000d0e:	f003 0308 	and.w	r3, r3, #8
 8000d12:	607b      	str	r3, [r7, #4]
 8000d14:	687b      	ldr	r3, [r7, #4]

  /*Configure GPIO pin Output Level */
  HAL_GPIO_WritePin(GPIOE, AUDIO_RST_Pin|LD_G_Pin|XL_CS_Pin, GPIO_PIN_RESET);
 8000d16:	2200      	movs	r2, #0
 8000d18:	f240 1109 	movw	r1, #265	; 0x109
 8000d1c:	4874      	ldr	r0, [pc, #464]	; (8000ef0 <MX_GPIO_Init+0x280>)
 8000d1e:	f002 fd7d 	bl	800381c <HAL_GPIO_WritePin>

  /*Configure GPIO pin Output Level */
  HAL_GPIO_WritePin(GPIOB, GPIO_PIN_0|LD_R_Pin|M3V3_REG_ON_Pin, GPIO_PIN_RESET);
 8000d22:	2200      	movs	r2, #0
 8000d24:	210d      	movs	r1, #13
 8000d26:	4873      	ldr	r0, [pc, #460]	; (8000ef4 <MX_GPIO_Init+0x284>)
 8000d28:	f002 fd78 	bl	800381c <HAL_GPIO_WritePin>

  /*Configure GPIO pin Output Level */
  HAL_GPIO_WritePin(OTG_FS_PowerSwitchOn_GPIO_Port, OTG_FS_PowerSwitchOn_Pin, GPIO_PIN_SET);
 8000d2c:	2201      	movs	r2, #1
 8000d2e:	f44f 7100 	mov.w	r1, #512	; 0x200
 8000d32:	4871      	ldr	r0, [pc, #452]	; (8000ef8 <MX_GPIO_Init+0x288>)
 8000d34:	f002 fd72 	bl	800381c <HAL_GPIO_WritePin>

  /*Configure GPIO pin Output Level */
  HAL_GPIO_WritePin(OTG_FS_VBUS_GPIO_Port, OTG_FS_VBUS_Pin, GPIO_PIN_RESET);
 8000d38:	2200      	movs	r2, #0
 8000d3a:	f44f 6100 	mov.w	r1, #2048	; 0x800
 8000d3e:	486e      	ldr	r0, [pc, #440]	; (8000ef8 <MX_GPIO_Init+0x288>)
 8000d40:	f002 fd6c 	bl	800381c <HAL_GPIO_WritePin>

  /*Configure GPIO pin Output Level */
  HAL_GPIO_WritePin(GYRO_CS_GPIO_Port, GYRO_CS_Pin, GPIO_PIN_RESET);
 8000d44:	2200      	movs	r2, #0
 8000d46:	2180      	movs	r1, #128	; 0x80
 8000d48:	486c      	ldr	r0, [pc, #432]	; (8000efc <MX_GPIO_Init+0x28c>)
 8000d4a:	f002 fd67 	bl	800381c <HAL_GPIO_WritePin>

  /*Configure GPIO pin : AUDIO_RST_Pin */
  GPIO_InitStruct.Pin = AUDIO_RST_Pin;
 8000d4e:	2308      	movs	r3, #8
 8000d50:	61fb      	str	r3, [r7, #28]
  GPIO_InitStruct.Mode = GPIO_MODE_OUTPUT_PP;
 8000d52:	2301      	movs	r3, #1
 8000d54:	623b      	str	r3, [r7, #32]
  GPIO_InitStruct.Pull = GPIO_NOPULL;
 8000d56:	2300      	movs	r3, #0
 8000d58:	627b      	str	r3, [r7, #36]	; 0x24
  GPIO_InitStruct.Speed = GPIO_SPEED_FREQ_HIGH;
 8000d5a:	2302      	movs	r3, #2
 8000d5c:	62bb      	str	r3, [r7, #40]	; 0x28
  HAL_GPIO_Init(AUDIO_RST_GPIO_Port, &GPIO_InitStruct);
 8000d5e:	f107 031c 	add.w	r3, r7, #28
 8000d62:	4619      	mov	r1, r3
 8000d64:	4862      	ldr	r0, [pc, #392]	; (8000ef0 <MX_GPIO_Init+0x280>)
 8000d66:	f002 fbb1 	bl	80034cc <HAL_GPIO_Init>

  /*Configure GPIO pins : MFX_IRQ_OUT_Pin OTG_FS_OverCurrent_Pin */
  GPIO_InitStruct.Pin = MFX_IRQ_OUT_Pin|OTG_FS_OverCurrent_Pin;
 8000d6a:	f44f 5310 	mov.w	r3, #9216	; 0x2400
 8000d6e:	61fb      	str	r3, [r7, #28]
  GPIO_InitStruct.Mode = GPIO_MODE_EVT_RISING;
 8000d70:	4b63      	ldr	r3, [pc, #396]	; (8000f00 <MX_GPIO_Init+0x290>)
 8000d72:	623b      	str	r3, [r7, #32]
  GPIO_InitStruct.Pull = GPIO_NOPULL;
 8000d74:	2300      	movs	r3, #0
 8000d76:	627b      	str	r3, [r7, #36]	; 0x24
  HAL_GPIO_Init(GPIOC, &GPIO_InitStruct);
 8000d78:	f107 031c 	add.w	r3, r7, #28
 8000d7c:	4619      	mov	r1, r3
 8000d7e:	485e      	ldr	r0, [pc, #376]	; (8000ef8 <MX_GPIO_Init+0x288>)
 8000d80:	f002 fba4 	bl	80034cc <HAL_GPIO_Init>

  /*Configure GPIO pins : PC0 MAG_INT_Pin MAG_DRDY_Pin */
  GPIO_InitStruct.Pin = GPIO_PIN_0|MAG_INT_Pin|MAG_DRDY_Pin;
 8000d84:	2307      	movs	r3, #7
 8000d86:	61fb      	str	r3, [r7, #28]
  GPIO_InitStruct.Mode = GPIO_MODE_INPUT;
 8000d88:	2300      	movs	r3, #0
 8000d8a:	623b      	str	r3, [r7, #32]
  GPIO_InitStruct.Pull = GPIO_NOPULL;
 8000d8c:	2300      	movs	r3, #0
 8000d8e:	627b      	str	r3, [r7, #36]	; 0x24
  HAL_GPIO_Init(GPIOC, &GPIO_InitStruct);
 8000d90:	f107 031c 	add.w	r3, r7, #28
 8000d94:	4619      	mov	r1, r3
 8000d96:	4858      	ldr	r0, [pc, #352]	; (8000ef8 <MX_GPIO_Init+0x288>)
 8000d98:	f002 fb98 	bl	80034cc <HAL_GPIO_Init>

  /*Configure GPIO pins : JOY_LEFT_Pin JOY_RIGHT_Pin JOY_UP_Pin JOY_DOWN_Pin */
  GPIO_InitStruct.Pin = JOY_LEFT_Pin|JOY_RIGHT_Pin|JOY_UP_Pin|JOY_DOWN_Pin;
 8000d9c:	232e      	movs	r3, #46	; 0x2e
 8000d9e:	61fb      	str	r3, [r7, #28]
  GPIO_InitStruct.Mode = GPIO_MODE_INPUT;
 8000da0:	2300      	movs	r3, #0
 8000da2:	623b      	str	r3, [r7, #32]
  GPIO_InitStruct.Pull = GPIO_PULLDOWN;
 8000da4:	2302      	movs	r3, #2
 8000da6:	627b      	str	r3, [r7, #36]	; 0x24
  HAL_GPIO_Init(GPIOA, &GPIO_InitStruct);
 8000da8:	f107 031c 	add.w	r3, r7, #28
 8000dac:	4619      	mov	r1, r3
 8000dae:	f04f 4090 	mov.w	r0, #1207959552	; 0x48000000
 8000db2:	f002 fb8b 	bl	80034cc <HAL_GPIO_Init>

  GPIO_InitStruct.Pin = GPIO_PIN_0;
 8000db6:	2301      	movs	r3, #1
 8000db8:	61fb      	str	r3, [r7, #28]
  GPIO_InitStruct.Mode = GPIO_MODE_ANALOG;
 8000dba:	2303      	movs	r3, #3
 8000dbc:	623b      	str	r3, [r7, #32]
  GPIO_InitStruct.Pull = GPIO_NOPULL;
 8000dbe:	2300      	movs	r3, #0
 8000dc0:	627b      	str	r3, [r7, #36]	; 0x24
  GPIO_InitStruct.Speed = GPIO_SPEED_FREQ_VERY_HIGH;
 8000dc2:	2303      	movs	r3, #3
 8000dc4:	62bb      	str	r3, [r7, #40]	; 0x28
  HAL_GPIO_Init(GPIOA, &GPIO_InitStruct);
 8000dc6:	f107 031c 	add.w	r3, r7, #28
 8000dca:	4619      	mov	r1, r3
 8000dcc:	f04f 4090 	mov.w	r0, #1207959552	; 0x48000000
 8000dd0:	f002 fb7c 	bl	80034cc <HAL_GPIO_Init>

  /*Configure GPIO pin : MFX_WAKEUP_Pin */
  GPIO_InitStruct.Pin = MFX_WAKEUP_Pin;
 8000dd4:	2310      	movs	r3, #16
 8000dd6:	61fb      	str	r3, [r7, #28]
  GPIO_InitStruct.Mode = GPIO_MODE_EVT_RISING;
 8000dd8:	4b49      	ldr	r3, [pc, #292]	; (8000f00 <MX_GPIO_Init+0x290>)
 8000dda:	623b      	str	r3, [r7, #32]
  GPIO_InitStruct.Pull = GPIO_NOPULL;
 8000ddc:	2300      	movs	r3, #0
 8000dde:	627b      	str	r3, [r7, #36]	; 0x24
  HAL_GPIO_Init(MFX_WAKEUP_GPIO_Port, &GPIO_InitStruct);
 8000de0:	f107 031c 	add.w	r3, r7, #28
 8000de4:	4619      	mov	r1, r3
 8000de6:	f04f 4090 	mov.w	r0, #1207959552	; 0x48000000
 8000dea:	f002 fb6f 	bl	80034cc <HAL_GPIO_Init>

  /*Configure GPIO pins : PB0 M3V3_REG_ON_Pin */
  GPIO_InitStruct.Pin = GPIO_PIN_0|M3V3_REG_ON_Pin;
 8000dee:	2309      	movs	r3, #9
 8000df0:	61fb      	str	r3, [r7, #28]
  GPIO_InitStruct.Mode = GPIO_MODE_OUTPUT_PP;
 8000df2:	2301      	movs	r3, #1
 8000df4:	623b      	str	r3, [r7, #32]
  GPIO_InitStruct.Pull = GPIO_NOPULL;
 8000df6:	2300      	movs	r3, #0
 8000df8:	627b      	str	r3, [r7, #36]	; 0x24
  GPIO_InitStruct.Speed = GPIO_SPEED_FREQ_LOW;
 8000dfa:	2300      	movs	r3, #0
 8000dfc:	62bb      	str	r3, [r7, #40]	; 0x28
  HAL_GPIO_Init(GPIOB, &GPIO_InitStruct);
 8000dfe:	f107 031c 	add.w	r3, r7, #28
 8000e02:	4619      	mov	r1, r3
 8000e04:	483b      	ldr	r0, [pc, #236]	; (8000ef4 <MX_GPIO_Init+0x284>)
 8000e06:	f002 fb61 	bl	80034cc <HAL_GPIO_Init>

  /*Configure GPIO pin : LD_R_Pin */
  GPIO_InitStruct.Pin = LD_R_Pin;
 8000e0a:	2304      	movs	r3, #4
 8000e0c:	61fb      	str	r3, [r7, #28]
  GPIO_InitStruct.Mode = GPIO_MODE_OUTPUT_PP;
 8000e0e:	2301      	movs	r3, #1
 8000e10:	623b      	str	r3, [r7, #32]
  GPIO_InitStruct.Pull = GPIO_PULLUP;
 8000e12:	2301      	movs	r3, #1
 8000e14:	627b      	str	r3, [r7, #36]	; 0x24
  GPIO_InitStruct.Speed = GPIO_SPEED_FREQ_VERY_HIGH;
 8000e16:	2303      	movs	r3, #3
 8000e18:	62bb      	str	r3, [r7, #40]	; 0x28
  HAL_GPIO_Init(LD_R_GPIO_Port, &GPIO_InitStruct);
 8000e1a:	f107 031c 	add.w	r3, r7, #28
 8000e1e:	4619      	mov	r1, r3
 8000e20:	4834      	ldr	r0, [pc, #208]	; (8000ef4 <MX_GPIO_Init+0x284>)
 8000e22:	f002 fb53 	bl	80034cc <HAL_GPIO_Init>

  /*Configure GPIO pin : LD_G_Pin */
  GPIO_InitStruct.Pin = LD_G_Pin;
 8000e26:	f44f 7380 	mov.w	r3, #256	; 0x100
 8000e2a:	61fb      	str	r3, [r7, #28]
  GPIO_InitStruct.Mode = GPIO_MODE_OUTPUT_PP;
 8000e2c:	2301      	movs	r3, #1
 8000e2e:	623b      	str	r3, [r7, #32]
  GPIO_InitStruct.Pull = GPIO_PULLUP;
 8000e30:	2301      	movs	r3, #1
 8000e32:	627b      	str	r3, [r7, #36]	; 0x24
  GPIO_InitStruct.Speed = GPIO_SPEED_FREQ_VERY_HIGH;
 8000e34:	2303      	movs	r3, #3
 8000e36:	62bb      	str	r3, [r7, #40]	; 0x28
  HAL_GPIO_Init(LD_G_GPIO_Port, &GPIO_InitStruct);
 8000e38:	f107 031c 	add.w	r3, r7, #28
 8000e3c:	4619      	mov	r1, r3
 8000e3e:	482c      	ldr	r0, [pc, #176]	; (8000ef0 <MX_GPIO_Init+0x280>)
 8000e40:	f002 fb44 	bl	80034cc <HAL_GPIO_Init>

  /*Configure GPIO pins : OTG_FS_PowerSwitchOn_Pin OTG_FS_VBUS_Pin */
  GPIO_InitStruct.Pin = OTG_FS_PowerSwitchOn_Pin|OTG_FS_VBUS_Pin;
 8000e44:	f44f 6320 	mov.w	r3, #2560	; 0xa00
 8000e48:	61fb      	str	r3, [r7, #28]
  GPIO_InitStruct.Mode = GPIO_MODE_OUTPUT_PP;
 8000e4a:	2301      	movs	r3, #1
 8000e4c:	623b      	str	r3, [r7, #32]
  GPIO_InitStruct.Pull = GPIO_NOPULL;
 8000e4e:	2300      	movs	r3, #0
 8000e50:	627b      	str	r3, [r7, #36]	; 0x24
  GPIO_InitStruct.Speed = GPIO_SPEED_FREQ_LOW;
 8000e52:	2300      	movs	r3, #0
 8000e54:	62bb      	str	r3, [r7, #40]	; 0x28
  HAL_GPIO_Init(GPIOC, &GPIO_InitStruct);
 8000e56:	f107 031c 	add.w	r3, r7, #28
 8000e5a:	4619      	mov	r1, r3
 8000e5c:	4826      	ldr	r0, [pc, #152]	; (8000ef8 <MX_GPIO_Init+0x288>)
 8000e5e:	f002 fb35 	bl	80034cc <HAL_GPIO_Init>

  /*Configure GPIO pins : EXT_RST_Pin GYRO_INT1_Pin */
  GPIO_InitStruct.Pin = EXT_RST_Pin|GYRO_INT1_Pin;
 8000e62:	2305      	movs	r3, #5
 8000e64:	61fb      	str	r3, [r7, #28]
  GPIO_InitStruct.Mode = GPIO_MODE_EVT_RISING;
 8000e66:	4b26      	ldr	r3, [pc, #152]	; (8000f00 <MX_GPIO_Init+0x290>)
 8000e68:	623b      	str	r3, [r7, #32]
  GPIO_InitStruct.Pull = GPIO_NOPULL;
 8000e6a:	2300      	movs	r3, #0
 8000e6c:	627b      	str	r3, [r7, #36]	; 0x24
  HAL_GPIO_Init(GPIOD, &GPIO_InitStruct);
 8000e6e:	f107 031c 	add.w	r3, r7, #28
 8000e72:	4619      	mov	r1, r3
 8000e74:	4821      	ldr	r0, [pc, #132]	; (8000efc <MX_GPIO_Init+0x28c>)
 8000e76:	f002 fb29 	bl	80034cc <HAL_GPIO_Init>

  /*Configure GPIO pin : GYRO_CS_Pin */
  GPIO_InitStruct.Pin = GYRO_CS_Pin;
 8000e7a:	2380      	movs	r3, #128	; 0x80
 8000e7c:	61fb      	str	r3, [r7, #28]
  GPIO_InitStruct.Mode = GPIO_MODE_OUTPUT_PP;
 8000e7e:	2301      	movs	r3, #1
 8000e80:	623b      	str	r3, [r7, #32]
  GPIO_InitStruct.Pull = GPIO_NOPULL;
 8000e82:	2300      	movs	r3, #0
 8000e84:	627b      	str	r3, [r7, #36]	; 0x24
  GPIO_InitStruct.Speed = GPIO_SPEED_FREQ_VERY_HIGH;
 8000e86:	2303      	movs	r3, #3
 8000e88:	62bb      	str	r3, [r7, #40]	; 0x28
  HAL_GPIO_Init(GYRO_CS_GPIO_Port, &GPIO_InitStruct);
 8000e8a:	f107 031c 	add.w	r3, r7, #28
 8000e8e:	4619      	mov	r1, r3
 8000e90:	481a      	ldr	r0, [pc, #104]	; (8000efc <MX_GPIO_Init+0x28c>)
 8000e92:	f002 fb1b 	bl	80034cc <HAL_GPIO_Init>

  /*Configure GPIO pin : GYRO_INT2_Pin */
  GPIO_InitStruct.Pin = GYRO_INT2_Pin;
 8000e96:	f44f 7380 	mov.w	r3, #256	; 0x100
 8000e9a:	61fb      	str	r3, [r7, #28]
  GPIO_InitStruct.Mode = GPIO_MODE_EVT_RISING;
 8000e9c:	4b18      	ldr	r3, [pc, #96]	; (8000f00 <MX_GPIO_Init+0x290>)
 8000e9e:	623b      	str	r3, [r7, #32]
  GPIO_InitStruct.Pull = GPIO_NOPULL;
 8000ea0:	2300      	movs	r3, #0
 8000ea2:	627b      	str	r3, [r7, #36]	; 0x24
  HAL_GPIO_Init(GYRO_INT2_GPIO_Port, &GPIO_InitStruct);
 8000ea4:	f107 031c 	add.w	r3, r7, #28
 8000ea8:	4619      	mov	r1, r3
 8000eaa:	4812      	ldr	r0, [pc, #72]	; (8000ef4 <MX_GPIO_Init+0x284>)
 8000eac:	f002 fb0e 	bl	80034cc <HAL_GPIO_Init>

  /*Configure GPIO pin : XL_CS_Pin */
  GPIO_InitStruct.Pin = XL_CS_Pin;
 8000eb0:	2301      	movs	r3, #1
 8000eb2:	61fb      	str	r3, [r7, #28]
  GPIO_InitStruct.Mode = GPIO_MODE_OUTPUT_PP;
 8000eb4:	2301      	movs	r3, #1
 8000eb6:	623b      	str	r3, [r7, #32]
  GPIO_InitStruct.Pull = GPIO_NOPULL;
 8000eb8:	2300      	movs	r3, #0
 8000eba:	627b      	str	r3, [r7, #36]	; 0x24
  GPIO_InitStruct.Speed = GPIO_SPEED_FREQ_LOW;
 8000ebc:	2300      	movs	r3, #0
 8000ebe:	62bb      	str	r3, [r7, #40]	; 0x28
  HAL_GPIO_Init(XL_CS_GPIO_Port, &GPIO_InitStruct);
 8000ec0:	f107 031c 	add.w	r3, r7, #28
 8000ec4:	4619      	mov	r1, r3
 8000ec6:	480a      	ldr	r0, [pc, #40]	; (8000ef0 <MX_GPIO_Init+0x280>)
 8000ec8:	f002 fb00 	bl	80034cc <HAL_GPIO_Init>

  /*Configure GPIO pin : XL_INT_Pin */
  GPIO_InitStruct.Pin = XL_INT_Pin;
 8000ecc:	2302      	movs	r3, #2
 8000ece:	61fb      	str	r3, [r7, #28]
  GPIO_InitStruct.Mode = GPIO_MODE_EVT_RISING;
 8000ed0:	4b0b      	ldr	r3, [pc, #44]	; (8000f00 <MX_GPIO_Init+0x290>)
 8000ed2:	623b      	str	r3, [r7, #32]
  GPIO_InitStruct.Pull = GPIO_NOPULL;
 8000ed4:	2300      	movs	r3, #0
 8000ed6:	627b      	str	r3, [r7, #36]	; 0x24
  HAL_GPIO_Init(XL_INT_GPIO_Port, &GPIO_InitStruct);
 8000ed8:	f107 031c 	add.w	r3, r7, #28
 8000edc:	4619      	mov	r1, r3
 8000ede:	4804      	ldr	r0, [pc, #16]	; (8000ef0 <MX_GPIO_Init+0x280>)
 8000ee0:	f002 faf4 	bl	80034cc <HAL_GPIO_Init>

}
 8000ee4:	bf00      	nop
 8000ee6:	3730      	adds	r7, #48	; 0x30
 8000ee8:	46bd      	mov	sp, r7
 8000eea:	bd80      	pop	{r7, pc}
 8000eec:	40021000 	.word	0x40021000
 8000ef0:	48001000 	.word	0x48001000
 8000ef4:	48000400 	.word	0x48000400
 8000ef8:	48000800 	.word	0x48000800
 8000efc:	48000c00 	.word	0x48000c00
 8000f00:	10120000 	.word	0x10120000

08000f04 <Error_Handler>:
/**
  * @brief  This function is executed in case of error occurrence.
  * @retval None
  */
void Error_Handler(void)
{
 8000f04:	b480      	push	{r7}
 8000f06:	af00      	add	r7, sp, #0
  /* USER CODE BEGIN Error_Handler_Debug */
  /* User can add his own implementation to report the HAL error return state */

  /* USER CODE END Error_Handler_Debug */
}
 8000f08:	bf00      	nop
 8000f0a:	46bd      	mov	sp, r7
 8000f0c:	f85d 7b04 	ldr.w	r7, [sp], #4
 8000f10:	4770      	bx	lr
	...

08000f14 <HAL_MspInit>:
 8000f14:	b480      	push	{r7}
 8000f16:	b083      	sub	sp, #12
 8000f18:	af00      	add	r7, sp, #0
 8000f1a:	4b0f      	ldr	r3, [pc, #60]	; (8000f58 <HAL_MspInit+0x44>)
 8000f1c:	6e1b      	ldr	r3, [r3, #96]	; 0x60
 8000f1e:	4a0e      	ldr	r2, [pc, #56]	; (8000f58 <HAL_MspInit+0x44>)
 8000f20:	f043 0301 	orr.w	r3, r3, #1
 8000f24:	6613      	str	r3, [r2, #96]	; 0x60
 8000f26:	4b0c      	ldr	r3, [pc, #48]	; (8000f58 <HAL_MspInit+0x44>)
 8000f28:	6e1b      	ldr	r3, [r3, #96]	; 0x60
 8000f2a:	f003 0301 	and.w	r3, r3, #1
 8000f2e:	607b      	str	r3, [r7, #4]
 8000f30:	687b      	ldr	r3, [r7, #4]
 8000f32:	4b09      	ldr	r3, [pc, #36]	; (8000f58 <HAL_MspInit+0x44>)
 8000f34:	6d9b      	ldr	r3, [r3, #88]	; 0x58
 8000f36:	4a08      	ldr	r2, [pc, #32]	; (8000f58 <HAL_MspInit+0x44>)
 8000f38:	f043 5380 	orr.w	r3, r3, #268435456	; 0x10000000
 8000f3c:	6593      	str	r3, [r2, #88]	; 0x58
 8000f3e:	4b06      	ldr	r3, [pc, #24]	; (8000f58 <HAL_MspInit+0x44>)
 8000f40:	6d9b      	ldr	r3, [r3, #88]	; 0x58
 8000f42:	f003 5380 	and.w	r3, r3, #268435456	; 0x10000000
 8000f46:	603b      	str	r3, [r7, #0]
 8000f48:	683b      	ldr	r3, [r7, #0]
 8000f4a:	bf00      	nop
 8000f4c:	370c      	adds	r7, #12
 8000f4e:	46bd      	mov	sp, r7
 8000f50:	f85d 7b04 	ldr.w	r7, [sp], #4
 8000f54:	4770      	bx	lr
 8000f56:	bf00      	nop
 8000f58:	40021000 	.word	0x40021000

08000f5c <HAL_ADC_MspInit>:
 8000f5c:	b580      	push	{r7, lr}
 8000f5e:	b08a      	sub	sp, #40	; 0x28
 8000f60:	af00      	add	r7, sp, #0
 8000f62:	6078      	str	r0, [r7, #4]
 8000f64:	f107 0314 	add.w	r3, r7, #20
 8000f68:	2200      	movs	r2, #0
 8000f6a:	601a      	str	r2, [r3, #0]
 8000f6c:	605a      	str	r2, [r3, #4]
 8000f6e:	609a      	str	r2, [r3, #8]
 8000f70:	60da      	str	r2, [r3, #12]
 8000f72:	611a      	str	r2, [r3, #16]
 8000f74:	687b      	ldr	r3, [r7, #4]
 8000f76:	681b      	ldr	r3, [r3, #0]
 8000f78:	4a25      	ldr	r2, [pc, #148]	; (8001010 <HAL_ADC_MspInit+0xb4>)
 8000f7a:	4293      	cmp	r3, r2
 8000f7c:	d144      	bne.n	8001008 <HAL_ADC_MspInit+0xac>
 8000f7e:	4b25      	ldr	r3, [pc, #148]	; (8001014 <HAL_ADC_MspInit+0xb8>)
 8000f80:	6cdb      	ldr	r3, [r3, #76]	; 0x4c
 8000f82:	4a24      	ldr	r2, [pc, #144]	; (8001014 <HAL_ADC_MspInit+0xb8>)
 8000f84:	f443 5300 	orr.w	r3, r3, #8192	; 0x2000
 8000f88:	64d3      	str	r3, [r2, #76]	; 0x4c
 8000f8a:	4b22      	ldr	r3, [pc, #136]	; (8001014 <HAL_ADC_MspInit+0xb8>)
 8000f8c:	6cdb      	ldr	r3, [r3, #76]	; 0x4c
 8000f8e:	f403 5300 	and.w	r3, r3, #8192	; 0x2000
 8000f92:	613b      	str	r3, [r7, #16]
 8000f94:	693b      	ldr	r3, [r7, #16]
 8000f96:	4b1f      	ldr	r3, [pc, #124]	; (8001014 <HAL_ADC_MspInit+0xb8>)
 8000f98:	6cdb      	ldr	r3, [r3, #76]	; 0x4c
 8000f9a:	4a1e      	ldr	r2, [pc, #120]	; (8001014 <HAL_ADC_MspInit+0xb8>)
 8000f9c:	f043 0301 	orr.w	r3, r3, #1
 8000fa0:	64d3      	str	r3, [r2, #76]	; 0x4c
 8000fa2:	4b1c      	ldr	r3, [pc, #112]	; (8001014 <HAL_ADC_MspInit+0xb8>)
 8000fa4:	6cdb      	ldr	r3, [r3, #76]	; 0x4c
 8000fa6:	f003 0301 	and.w	r3, r3, #1
 8000faa:	60fb      	str	r3, [r7, #12]
 8000fac:	68fb      	ldr	r3, [r7, #12]
 8000fae:	4b19      	ldr	r3, [pc, #100]	; (8001014 <HAL_ADC_MspInit+0xb8>)
 8000fb0:	6cdb      	ldr	r3, [r3, #76]	; 0x4c
 8000fb2:	4a18      	ldr	r2, [pc, #96]	; (8001014 <HAL_ADC_MspInit+0xb8>)
 8000fb4:	f043 0302 	orr.w	r3, r3, #2
 8000fb8:	64d3      	str	r3, [r2, #76]	; 0x4c
 8000fba:	4b16      	ldr	r3, [pc, #88]	; (8001014 <HAL_ADC_MspInit+0xb8>)
 8000fbc:	6cdb      	ldr	r3, [r3, #76]	; 0x4c
 8000fbe:	f003 0302 	and.w	r3, r3, #2
 8000fc2:	60bb      	str	r3, [r7, #8]
 8000fc4:	68bb      	ldr	r3, [r7, #8]
 8000fc6:	2301      	movs	r3, #1
 8000fc8:	617b      	str	r3, [r7, #20]
 8000fca:	230b      	movs	r3, #11
 8000fcc:	61bb      	str	r3, [r7, #24]
 8000fce:	2300      	movs	r3, #0
 8000fd0:	61fb      	str	r3, [r7, #28]
 8000fd2:	f107 0314 	add.w	r3, r7, #20
 8000fd6:	4619      	mov	r1, r3
 8000fd8:	f04f 4090 	mov.w	r0, #1207959552	; 0x48000000
 8000fdc:	f002 fa76 	bl	80034cc <HAL_GPIO_Init>
 8000fe0:	2302      	movs	r3, #2
 8000fe2:	617b      	str	r3, [r7, #20]
 8000fe4:	230b      	movs	r3, #11
 8000fe6:	61bb      	str	r3, [r7, #24]
 8000fe8:	2300      	movs	r3, #0
 8000fea:	61fb      	str	r3, [r7, #28]
 8000fec:	f107 0314 	add.w	r3, r7, #20
 8000ff0:	4619      	mov	r1, r3
 8000ff2:	4809      	ldr	r0, [pc, #36]	; (8001018 <HAL_ADC_MspInit+0xbc>)
 8000ff4:	f002 fa6a 	bl	80034cc <HAL_GPIO_Init>
 8000ff8:	2200      	movs	r2, #0
 8000ffa:	2100      	movs	r1, #0
 8000ffc:	2012      	movs	r0, #18
 8000ffe:	f002 fa2e 	bl	800345e <HAL_NVIC_SetPriority>
 8001002:	2012      	movs	r0, #18
 8001004:	f002 fa47 	bl	8003496 <HAL_NVIC_EnableIRQ>
 8001008:	bf00      	nop
 800100a:	3728      	adds	r7, #40	; 0x28
 800100c:	46bd      	mov	sp, r7
 800100e:	bd80      	pop	{r7, pc}
 8001010:	50040000 	.word	0x50040000
 8001014:	40021000 	.word	0x40021000
 8001018:	48000400 	.word	0x48000400

0800101c <HAL_I2C_MspInit>:
 800101c:	b580      	push	{r7, lr}
 800101e:	b08c      	sub	sp, #48	; 0x30
 8001020:	af00      	add	r7, sp, #0
 8001022:	6078      	str	r0, [r7, #4]
 8001024:	f107 031c 	add.w	r3, r7, #28
 8001028:	2200      	movs	r2, #0
 800102a:	601a      	str	r2, [r3, #0]
 800102c:	605a      	str	r2, [r3, #4]
 800102e:	609a      	str	r2, [r3, #8]
 8001030:	60da      	str	r2, [r3, #12]
 8001032:	611a      	str	r2, [r3, #16]
 8001034:	687b      	ldr	r3, [r7, #4]
 8001036:	681b      	ldr	r3, [r3, #0]
 8001038:	4a2e      	ldr	r2, [pc, #184]	; (80010f4 <HAL_I2C_MspInit+0xd8>)
 800103a:	4293      	cmp	r3, r2
 800103c:	d128      	bne.n	8001090 <HAL_I2C_MspInit+0x74>
 800103e:	4b2e      	ldr	r3, [pc, #184]	; (80010f8 <HAL_I2C_MspInit+0xdc>)
 8001040:	6cdb      	ldr	r3, [r3, #76]	; 0x4c
 8001042:	4a2d      	ldr	r2, [pc, #180]	; (80010f8 <HAL_I2C_MspInit+0xdc>)
 8001044:	f043 0302 	orr.w	r3, r3, #2
 8001048:	64d3      	str	r3, [r2, #76]	; 0x4c
 800104a:	4b2b      	ldr	r3, [pc, #172]	; (80010f8 <HAL_I2C_MspInit+0xdc>)
 800104c:	6cdb      	ldr	r3, [r3, #76]	; 0x4c
 800104e:	f003 0302 	and.w	r3, r3, #2
 8001052:	61bb      	str	r3, [r7, #24]
 8001054:	69bb      	ldr	r3, [r7, #24]
 8001056:	23c0      	movs	r3, #192	; 0xc0
 8001058:	61fb      	str	r3, [r7, #28]
 800105a:	2312      	movs	r3, #18
 800105c:	623b      	str	r3, [r7, #32]
 800105e:	2301      	movs	r3, #1
 8001060:	627b      	str	r3, [r7, #36]	; 0x24
 8001062:	2303      	movs	r3, #3
 8001064:	62bb      	str	r3, [r7, #40]	; 0x28
 8001066:	2304      	movs	r3, #4
 8001068:	62fb      	str	r3, [r7, #44]	; 0x2c
 800106a:	f107 031c 	add.w	r3, r7, #28
 800106e:	4619      	mov	r1, r3
 8001070:	4822      	ldr	r0, [pc, #136]	; (80010fc <HAL_I2C_MspInit+0xe0>)
 8001072:	f002 fa2b 	bl	80034cc <HAL_GPIO_Init>
 8001076:	4b20      	ldr	r3, [pc, #128]	; (80010f8 <HAL_I2C_MspInit+0xdc>)
 8001078:	6d9b      	ldr	r3, [r3, #88]	; 0x58
 800107a:	4a1f      	ldr	r2, [pc, #124]	; (80010f8 <HAL_I2C_MspInit+0xdc>)
 800107c:	f443 1300 	orr.w	r3, r3, #2097152	; 0x200000
 8001080:	6593      	str	r3, [r2, #88]	; 0x58
 8001082:	4b1d      	ldr	r3, [pc, #116]	; (80010f8 <HAL_I2C_MspInit+0xdc>)
 8001084:	6d9b      	ldr	r3, [r3, #88]	; 0x58
 8001086:	f403 1300 	and.w	r3, r3, #2097152	; 0x200000
 800108a:	617b      	str	r3, [r7, #20]
 800108c:	697b      	ldr	r3, [r7, #20]
 800108e:	e02d      	b.n	80010ec <HAL_I2C_MspInit+0xd0>
 8001090:	687b      	ldr	r3, [r7, #4]
 8001092:	681b      	ldr	r3, [r3, #0]
 8001094:	4a1a      	ldr	r2, [pc, #104]	; (8001100 <HAL_I2C_MspInit+0xe4>)
 8001096:	4293      	cmp	r3, r2
 8001098:	d128      	bne.n	80010ec <HAL_I2C_MspInit+0xd0>
 800109a:	4b17      	ldr	r3, [pc, #92]	; (80010f8 <HAL_I2C_MspInit+0xdc>)
 800109c:	6cdb      	ldr	r3, [r3, #76]	; 0x4c
 800109e:	4a16      	ldr	r2, [pc, #88]	; (80010f8 <HAL_I2C_MspInit+0xdc>)
 80010a0:	f043 0302 	orr.w	r3, r3, #2
 80010a4:	64d3      	str	r3, [r2, #76]	; 0x4c
 80010a6:	4b14      	ldr	r3, [pc, #80]	; (80010f8 <HAL_I2C_MspInit+0xdc>)
 80010a8:	6cdb      	ldr	r3, [r3, #76]	; 0x4c
 80010aa:	f003 0302 	and.w	r3, r3, #2
 80010ae:	613b      	str	r3, [r7, #16]
 80010b0:	693b      	ldr	r3, [r7, #16]
 80010b2:	f44f 6340 	mov.w	r3, #3072	; 0xc00
 80010b6:	61fb      	str	r3, [r7, #28]
 80010b8:	2312      	movs	r3, #18
 80010ba:	623b      	str	r3, [r7, #32]
 80010bc:	2301      	movs	r3, #1
 80010be:	627b      	str	r3, [r7, #36]	; 0x24
 80010c0:	2303      	movs	r3, #3
 80010c2:	62bb      	str	r3, [r7, #40]	; 0x28
 80010c4:	2304      	movs	r3, #4
 80010c6:	62fb      	str	r3, [r7, #44]	; 0x2c
 80010c8:	f107 031c 	add.w	r3, r7, #28
 80010cc:	4619      	mov	r1, r3
 80010ce:	480b      	ldr	r0, [pc, #44]	; (80010fc <HAL_I2C_MspInit+0xe0>)
 80010d0:	f002 f9fc 	bl	80034cc <HAL_GPIO_Init>
 80010d4:	4b08      	ldr	r3, [pc, #32]	; (80010f8 <HAL_I2C_MspInit+0xdc>)
 80010d6:	6d9b      	ldr	r3, [r3, #88]	; 0x58
 80010d8:	4a07      	ldr	r2, [pc, #28]	; (80010f8 <HAL_I2C_MspInit+0xdc>)
 80010da:	f443 0380 	orr.w	r3, r3, #4194304	; 0x400000
 80010de:	6593      	str	r3, [r2, #88]	; 0x58
 80010e0:	4b05      	ldr	r3, [pc, #20]	; (80010f8 <HAL_I2C_MspInit+0xdc>)
 80010e2:	6d9b      	ldr	r3, [r3, #88]	; 0x58
 80010e4:	f403 0380 	and.w	r3, r3, #4194304	; 0x400000
 80010e8:	60fb      	str	r3, [r7, #12]
 80010ea:	68fb      	ldr	r3, [r7, #12]
 80010ec:	bf00      	nop
 80010ee:	3730      	adds	r7, #48	; 0x30
 80010f0:	46bd      	mov	sp, r7
 80010f2:	bd80      	pop	{r7, pc}
 80010f4:	40005400 	.word	0x40005400
 80010f8:	40021000 	.word	0x40021000
 80010fc:	48000400 	.word	0x48000400
 8001100:	40005800 	.word	0x40005800

08001104 <HAL_LCD_MspInit>:
 8001104:	b580      	push	{r7, lr}
 8001106:	b08c      	sub	sp, #48	; 0x30
 8001108:	af00      	add	r7, sp, #0
 800110a:	6078      	str	r0, [r7, #4]
 800110c:	f107 031c 	add.w	r3, r7, #28
 8001110:	2200      	movs	r2, #0
 8001112:	601a      	str	r2, [r3, #0]
 8001114:	605a      	str	r2, [r3, #4]
 8001116:	609a      	str	r2, [r3, #8]
 8001118:	60da      	str	r2, [r3, #12]
 800111a:	611a      	str	r2, [r3, #16]
 800111c:	687b      	ldr	r3, [r7, #4]
 800111e:	681b      	ldr	r3, [r3, #0]
 8001120:	4a44      	ldr	r2, [pc, #272]	; (8001234 <HAL_LCD_MspInit+0x130>)
 8001122:	4293      	cmp	r3, r2
 8001124:	f040 8081 	bne.w	800122a <HAL_LCD_MspInit+0x126>
 8001128:	4b43      	ldr	r3, [pc, #268]	; (8001238 <HAL_LCD_MspInit+0x134>)
 800112a:	6d9b      	ldr	r3, [r3, #88]	; 0x58
 800112c:	4a42      	ldr	r2, [pc, #264]	; (8001238 <HAL_LCD_MspInit+0x134>)
 800112e:	f443 7300 	orr.w	r3, r3, #512	; 0x200
 8001132:	6593      	str	r3, [r2, #88]	; 0x58
 8001134:	4b40      	ldr	r3, [pc, #256]	; (8001238 <HAL_LCD_MspInit+0x134>)
 8001136:	6d9b      	ldr	r3, [r3, #88]	; 0x58
 8001138:	f403 7300 	and.w	r3, r3, #512	; 0x200
 800113c:	61bb      	str	r3, [r7, #24]
 800113e:	69bb      	ldr	r3, [r7, #24]
 8001140:	4b3d      	ldr	r3, [pc, #244]	; (8001238 <HAL_LCD_MspInit+0x134>)
 8001142:	6cdb      	ldr	r3, [r3, #76]	; 0x4c
 8001144:	4a3c      	ldr	r2, [pc, #240]	; (8001238 <HAL_LCD_MspInit+0x134>)
 8001146:	f043 0304 	orr.w	r3, r3, #4
 800114a:	64d3      	str	r3, [r2, #76]	; 0x4c
 800114c:	4b3a      	ldr	r3, [pc, #232]	; (8001238 <HAL_LCD_MspInit+0x134>)
 800114e:	6cdb      	ldr	r3, [r3, #76]	; 0x4c
 8001150:	f003 0304 	and.w	r3, r3, #4
 8001154:	617b      	str	r3, [r7, #20]
 8001156:	697b      	ldr	r3, [r7, #20]
 8001158:	4b37      	ldr	r3, [pc, #220]	; (8001238 <HAL_LCD_MspInit+0x134>)
 800115a:	6cdb      	ldr	r3, [r3, #76]	; 0x4c
 800115c:	4a36      	ldr	r2, [pc, #216]	; (8001238 <HAL_LCD_MspInit+0x134>)
 800115e:	f043 0301 	orr.w	r3, r3, #1
 8001162:	64d3      	str	r3, [r2, #76]	; 0x4c
 8001164:	4b34      	ldr	r3, [pc, #208]	; (8001238 <HAL_LCD_MspInit+0x134>)
 8001166:	6cdb      	ldr	r3, [r3, #76]	; 0x4c
 8001168:	f003 0301 	and.w	r3, r3, #1
 800116c:	613b      	str	r3, [r7, #16]
 800116e:	693b      	ldr	r3, [r7, #16]
 8001170:	4b31      	ldr	r3, [pc, #196]	; (8001238 <HAL_LCD_MspInit+0x134>)
 8001172:	6cdb      	ldr	r3, [r3, #76]	; 0x4c
 8001174:	4a30      	ldr	r2, [pc, #192]	; (8001238 <HAL_LCD_MspInit+0x134>)
 8001176:	f043 0302 	orr.w	r3, r3, #2
 800117a:	64d3      	str	r3, [r2, #76]	; 0x4c
 800117c:	4b2e      	ldr	r3, [pc, #184]	; (8001238 <HAL_LCD_MspInit+0x134>)
 800117e:	6cdb      	ldr	r3, [r3, #76]	; 0x4c
 8001180:	f003 0302 	and.w	r3, r3, #2
 8001184:	60fb      	str	r3, [r7, #12]
 8001186:	68fb      	ldr	r3, [r7, #12]
 8001188:	4b2b      	ldr	r3, [pc, #172]	; (8001238 <HAL_LCD_MspInit+0x134>)
 800118a:	6cdb      	ldr	r3, [r3, #76]	; 0x4c
 800118c:	4a2a      	ldr	r2, [pc, #168]	; (8001238 <HAL_LCD_MspInit+0x134>)
 800118e:	f043 0308 	orr.w	r3, r3, #8
 8001192:	64d3      	str	r3, [r2, #76]	; 0x4c
 8001194:	4b28      	ldr	r3, [pc, #160]	; (8001238 <HAL_LCD_MspInit+0x134>)
 8001196:	6cdb      	ldr	r3, [r3, #76]	; 0x4c
 8001198:	f003 0308 	and.w	r3, r3, #8
 800119c:	60bb      	str	r3, [r7, #8]
 800119e:	68bb      	ldr	r3, [r7, #8]
 80011a0:	f44f 73fc 	mov.w	r3, #504	; 0x1f8
 80011a4:	61fb      	str	r3, [r7, #28]
 80011a6:	2302      	movs	r3, #2
 80011a8:	623b      	str	r3, [r7, #32]
 80011aa:	2300      	movs	r3, #0
 80011ac:	627b      	str	r3, [r7, #36]	; 0x24
 80011ae:	2300      	movs	r3, #0
 80011b0:	62bb      	str	r3, [r7, #40]	; 0x28
 80011b2:	230b      	movs	r3, #11
 80011b4:	62fb      	str	r3, [r7, #44]	; 0x2c
 80011b6:	f107 031c 	add.w	r3, r7, #28
 80011ba:	4619      	mov	r1, r3
 80011bc:	481f      	ldr	r0, [pc, #124]	; (800123c <HAL_LCD_MspInit+0x138>)
 80011be:	f002 f985 	bl	80034cc <HAL_GPIO_Init>
 80011c2:	f248 73c0 	movw	r3, #34752	; 0x87c0
 80011c6:	61fb      	str	r3, [r7, #28]
 80011c8:	2302      	movs	r3, #2
 80011ca:	623b      	str	r3, [r7, #32]
 80011cc:	2300      	movs	r3, #0
 80011ce:	627b      	str	r3, [r7, #36]	; 0x24
 80011d0:	2300      	movs	r3, #0
 80011d2:	62bb      	str	r3, [r7, #40]	; 0x28
 80011d4:	230b      	movs	r3, #11
 80011d6:	62fb      	str	r3, [r7, #44]	; 0x2c
 80011d8:	f107 031c 	add.w	r3, r7, #28
 80011dc:	4619      	mov	r1, r3
 80011de:	f04f 4090 	mov.w	r0, #1207959552	; 0x48000000
 80011e2:	f002 f973 	bl	80034cc <HAL_GPIO_Init>
 80011e6:	f24f 2330 	movw	r3, #62000	; 0xf230
 80011ea:	61fb      	str	r3, [r7, #28]
 80011ec:	2302      	movs	r3, #2
 80011ee:	623b      	str	r3, [r7, #32]
 80011f0:	2300      	movs	r3, #0
 80011f2:	627b      	str	r3, [r7, #36]	; 0x24
 80011f4:	2300      	movs	r3, #0
 80011f6:	62bb      	str	r3, [r7, #40]	; 0x28
 80011f8:	230b      	movs	r3, #11
 80011fa:	62fb      	str	r3, [r7, #44]	; 0x2c
 80011fc:	f107 031c 	add.w	r3, r7, #28
 8001200:	4619      	mov	r1, r3
 8001202:	480f      	ldr	r0, [pc, #60]	; (8001240 <HAL_LCD_MspInit+0x13c>)
 8001204:	f002 f962 	bl	80034cc <HAL_GPIO_Init>
 8001208:	f44f 437f 	mov.w	r3, #65280	; 0xff00
 800120c:	61fb      	str	r3, [r7, #28]
 800120e:	2302      	movs	r3, #2
 8001210:	623b      	str	r3, [r7, #32]
 8001212:	2300      	movs	r3, #0
 8001214:	627b      	str	r3, [r7, #36]	; 0x24
 8001216:	2300      	movs	r3, #0
 8001218:	62bb      	str	r3, [r7, #40]	; 0x28
 800121a:	230b      	movs	r3, #11
 800121c:	62fb      	str	r3, [r7, #44]	; 0x2c
 800121e:	f107 031c 	add.w	r3, r7, #28
 8001222:	4619      	mov	r1, r3
 8001224:	4807      	ldr	r0, [pc, #28]	; (8001244 <HAL_LCD_MspInit+0x140>)
 8001226:	f002 f951 	bl	80034cc <HAL_GPIO_Init>
 800122a:	bf00      	nop
 800122c:	3730      	adds	r7, #48	; 0x30
 800122e:	46bd      	mov	sp, r7
 8001230:	bd80      	pop	{r7, pc}
 8001232:	bf00      	nop
 8001234:	40002400 	.word	0x40002400
 8001238:	40021000 	.word	0x40021000
 800123c:	48000800 	.word	0x48000800
 8001240:	48000400 	.word	0x48000400
 8001244:	48000c00 	.word	0x48000c00

08001248 <HAL_QSPI_MspInit>:
 8001248:	b580      	push	{r7, lr}
 800124a:	b08a      	sub	sp, #40	; 0x28
 800124c:	af00      	add	r7, sp, #0
 800124e:	6078      	str	r0, [r7, #4]
 8001250:	f107 0314 	add.w	r3, r7, #20
 8001254:	2200      	movs	r2, #0
 8001256:	601a      	str	r2, [r3, #0]
 8001258:	605a      	str	r2, [r3, #4]
 800125a:	609a      	str	r2, [r3, #8]
 800125c:	60da      	str	r2, [r3, #12]
 800125e:	611a      	str	r2, [r3, #16]
 8001260:	687b      	ldr	r3, [r7, #4]
 8001262:	681b      	ldr	r3, [r3, #0]
 8001264:	4a17      	ldr	r2, [pc, #92]	; (80012c4 <HAL_QSPI_MspInit+0x7c>)
 8001266:	4293      	cmp	r3, r2
 8001268:	d128      	bne.n	80012bc <HAL_QSPI_MspInit+0x74>
 800126a:	4b17      	ldr	r3, [pc, #92]	; (80012c8 <HAL_QSPI_MspInit+0x80>)
 800126c:	6d1b      	ldr	r3, [r3, #80]	; 0x50
 800126e:	4a16      	ldr	r2, [pc, #88]	; (80012c8 <HAL_QSPI_MspInit+0x80>)
 8001270:	f443 7380 	orr.w	r3, r3, #256	; 0x100
 8001274:	6513      	str	r3, [r2, #80]	; 0x50
 8001276:	4b14      	ldr	r3, [pc, #80]	; (80012c8 <HAL_QSPI_MspInit+0x80>)
 8001278:	6d1b      	ldr	r3, [r3, #80]	; 0x50
 800127a:	f403 7380 	and.w	r3, r3, #256	; 0x100
 800127e:	613b      	str	r3, [r7, #16]
 8001280:	693b      	ldr	r3, [r7, #16]
 8001282:	4b11      	ldr	r3, [pc, #68]	; (80012c8 <HAL_QSPI_MspInit+0x80>)
 8001284:	6cdb      	ldr	r3, [r3, #76]	; 0x4c
 8001286:	4a10      	ldr	r2, [pc, #64]	; (80012c8 <HAL_QSPI_MspInit+0x80>)
 8001288:	f043 0310 	orr.w	r3, r3, #16
 800128c:	64d3      	str	r3, [r2, #76]	; 0x4c
 800128e:	4b0e      	ldr	r3, [pc, #56]	; (80012c8 <HAL_QSPI_MspInit+0x80>)
 8001290:	6cdb      	ldr	r3, [r3, #76]	; 0x4c
 8001292:	f003 0310 	and.w	r3, r3, #16
 8001296:	60fb      	str	r3, [r7, #12]
 8001298:	68fb      	ldr	r3, [r7, #12]
 800129a:	f44f 437c 	mov.w	r3, #64512	; 0xfc00
 800129e:	617b      	str	r3, [r7, #20]
 80012a0:	2302      	movs	r3, #2
 80012a2:	61bb      	str	r3, [r7, #24]
 80012a4:	2300      	movs	r3, #0
 80012a6:	61fb      	str	r3, [r7, #28]
 80012a8:	2303      	movs	r3, #3
 80012aa:	623b      	str	r3, [r7, #32]
 80012ac:	230a      	movs	r3, #10
 80012ae:	627b      	str	r3, [r7, #36]	; 0x24
 80012b0:	f107 0314 	add.w	r3, r7, #20
 80012b4:	4619      	mov	r1, r3
 80012b6:	4805      	ldr	r0, [pc, #20]	; (80012cc <HAL_QSPI_MspInit+0x84>)
 80012b8:	f002 f908 	bl	80034cc <HAL_GPIO_Init>
 80012bc:	bf00      	nop
 80012be:	3728      	adds	r7, #40	; 0x28
 80012c0:	46bd      	mov	sp, r7
 80012c2:	bd80      	pop	{r7, pc}
 80012c4:	a0001000 	.word	0xa0001000
 80012c8:	40021000 	.word	0x40021000
 80012cc:	48001000 	.word	0x48001000

080012d0 <HAL_SPI_MspInit>:
 80012d0:	b580      	push	{r7, lr}
 80012d2:	b08a      	sub	sp, #40	; 0x28
 80012d4:	af00      	add	r7, sp, #0
 80012d6:	6078      	str	r0, [r7, #4]
 80012d8:	f107 0314 	add.w	r3, r7, #20
 80012dc:	2200      	movs	r2, #0
 80012de:	601a      	str	r2, [r3, #0]
 80012e0:	605a      	str	r2, [r3, #4]
 80012e2:	609a      	str	r2, [r3, #8]
 80012e4:	60da      	str	r2, [r3, #12]
 80012e6:	611a      	str	r2, [r3, #16]
 80012e8:	687b      	ldr	r3, [r7, #4]
 80012ea:	681b      	ldr	r3, [r3, #0]
 80012ec:	4a17      	ldr	r2, [pc, #92]	; (800134c <HAL_SPI_MspInit+0x7c>)
 80012ee:	4293      	cmp	r3, r2
 80012f0:	d127      	bne.n	8001342 <HAL_SPI_MspInit+0x72>
 80012f2:	4b17      	ldr	r3, [pc, #92]	; (8001350 <HAL_SPI_MspInit+0x80>)
 80012f4:	6d9b      	ldr	r3, [r3, #88]	; 0x58
 80012f6:	4a16      	ldr	r2, [pc, #88]	; (8001350 <HAL_SPI_MspInit+0x80>)
 80012f8:	f443 4380 	orr.w	r3, r3, #16384	; 0x4000
 80012fc:	6593      	str	r3, [r2, #88]	; 0x58
 80012fe:	4b14      	ldr	r3, [pc, #80]	; (8001350 <HAL_SPI_MspInit+0x80>)
 8001300:	6d9b      	ldr	r3, [r3, #88]	; 0x58
 8001302:	f403 4380 	and.w	r3, r3, #16384	; 0x4000
 8001306:	613b      	str	r3, [r7, #16]
 8001308:	693b      	ldr	r3, [r7, #16]
 800130a:	4b11      	ldr	r3, [pc, #68]	; (8001350 <HAL_SPI_MspInit+0x80>)
 800130c:	6cdb      	ldr	r3, [r3, #76]	; 0x4c
 800130e:	4a10      	ldr	r2, [pc, #64]	; (8001350 <HAL_SPI_MspInit+0x80>)
 8001310:	f043 0308 	orr.w	r3, r3, #8
 8001314:	64d3      	str	r3, [r2, #76]	; 0x4c
 8001316:	4b0e      	ldr	r3, [pc, #56]	; (8001350 <HAL_SPI_MspInit+0x80>)
 8001318:	6cdb      	ldr	r3, [r3, #76]	; 0x4c
 800131a:	f003 0308 	and.w	r3, r3, #8
 800131e:	60fb      	str	r3, [r7, #12]
 8001320:	68fb      	ldr	r3, [r7, #12]
 8001322:	231a      	movs	r3, #26
 8001324:	617b      	str	r3, [r7, #20]
 8001326:	2302      	movs	r3, #2
 8001328:	61bb      	str	r3, [r7, #24]
 800132a:	2300      	movs	r3, #0
 800132c:	61fb      	str	r3, [r7, #28]
 800132e:	2303      	movs	r3, #3
 8001330:	623b      	str	r3, [r7, #32]
 8001332:	2305      	movs	r3, #5
 8001334:	627b      	str	r3, [r7, #36]	; 0x24
 8001336:	f107 0314 	add.w	r3, r7, #20
 800133a:	4619      	mov	r1, r3
 800133c:	4805      	ldr	r0, [pc, #20]	; (8001354 <HAL_SPI_MspInit+0x84>)
 800133e:	f002 f8c5 	bl	80034cc <HAL_GPIO_Init>
 8001342:	bf00      	nop
 8001344:	3728      	adds	r7, #40	; 0x28
 8001346:	46bd      	mov	sp, r7
 8001348:	bd80      	pop	{r7, pc}
 800134a:	bf00      	nop
 800134c:	40003800 	.word	0x40003800
 8001350:	40021000 	.word	0x40021000
 8001354:	48000c00 	.word	0x48000c00

08001358 <HAL_TIM_Base_MspInit>:
 8001358:	b580      	push	{r7, lr}
 800135a:	b084      	sub	sp, #16
 800135c:	af00      	add	r7, sp, #0
 800135e:	6078      	str	r0, [r7, #4]
 8001360:	687b      	ldr	r3, [r7, #4]
 8001362:	681b      	ldr	r3, [r3, #0]
 8001364:	4a0d      	ldr	r2, [pc, #52]	; (800139c <HAL_TIM_Base_MspInit+0x44>)
 8001366:	4293      	cmp	r3, r2
 8001368:	d113      	bne.n	8001392 <HAL_TIM_Base_MspInit+0x3a>
 800136a:	4b0d      	ldr	r3, [pc, #52]	; (80013a0 <HAL_TIM_Base_MspInit+0x48>)
 800136c:	6d9b      	ldr	r3, [r3, #88]	; 0x58
 800136e:	4a0c      	ldr	r2, [pc, #48]	; (80013a0 <HAL_TIM_Base_MspInit+0x48>)
 8001370:	f043 0304 	orr.w	r3, r3, #4
 8001374:	6593      	str	r3, [r2, #88]	; 0x58
 8001376:	4b0a      	ldr	r3, [pc, #40]	; (80013a0 <HAL_TIM_Base_MspInit+0x48>)
 8001378:	6d9b      	ldr	r3, [r3, #88]	; 0x58
 800137a:	f003 0304 	and.w	r3, r3, #4
 800137e:	60fb      	str	r3, [r7, #12]
 8001380:	68fb      	ldr	r3, [r7, #12]
 8001382:	2200      	movs	r2, #0
 8001384:	2100      	movs	r1, #0
 8001386:	201e      	movs	r0, #30
 8001388:	f002 f869 	bl	800345e <HAL_NVIC_SetPriority>
 800138c:	201e      	movs	r0, #30
 800138e:	f002 f882 	bl	8003496 <HAL_NVIC_EnableIRQ>
 8001392:	bf00      	nop
 8001394:	3710      	adds	r7, #16
 8001396:	46bd      	mov	sp, r7
 8001398:	bd80      	pop	{r7, pc}
 800139a:	bf00      	nop
 800139c:	40000800 	.word	0x40000800
 80013a0:	40021000 	.word	0x40021000

080013a4 <HAL_UART_MspInit>:
 80013a4:	b580      	push	{r7, lr}
 80013a6:	b08a      	sub	sp, #40	; 0x28
 80013a8:	af00      	add	r7, sp, #0
 80013aa:	6078      	str	r0, [r7, #4]
 80013ac:	f107 0314 	add.w	r3, r7, #20
 80013b0:	2200      	movs	r2, #0
 80013b2:	601a      	str	r2, [r3, #0]
 80013b4:	605a      	str	r2, [r3, #4]
 80013b6:	609a      	str	r2, [r3, #8]
 80013b8:	60da      	str	r2, [r3, #12]
 80013ba:	611a      	str	r2, [r3, #16]
 80013bc:	687b      	ldr	r3, [r7, #4]
 80013be:	681b      	ldr	r3, [r3, #0]
 80013c0:	4a17      	ldr	r2, [pc, #92]	; (8001420 <HAL_UART_MspInit+0x7c>)
 80013c2:	4293      	cmp	r3, r2
 80013c4:	d127      	bne.n	8001416 <HAL_UART_MspInit+0x72>
 80013c6:	4b17      	ldr	r3, [pc, #92]	; (8001424 <HAL_UART_MspInit+0x80>)
 80013c8:	6d9b      	ldr	r3, [r3, #88]	; 0x58
 80013ca:	4a16      	ldr	r2, [pc, #88]	; (8001424 <HAL_UART_MspInit+0x80>)
 80013cc:	f443 3300 	orr.w	r3, r3, #131072	; 0x20000
 80013d0:	6593      	str	r3, [r2, #88]	; 0x58
 80013d2:	4b14      	ldr	r3, [pc, #80]	; (8001424 <HAL_UART_MspInit+0x80>)
 80013d4:	6d9b      	ldr	r3, [r3, #88]	; 0x58
 80013d6:	f403 3300 	and.w	r3, r3, #131072	; 0x20000
 80013da:	613b      	str	r3, [r7, #16]
 80013dc:	693b      	ldr	r3, [r7, #16]
 80013de:	4b11      	ldr	r3, [pc, #68]	; (8001424 <HAL_UART_MspInit+0x80>)
 80013e0:	6cdb      	ldr	r3, [r3, #76]	; 0x4c
 80013e2:	4a10      	ldr	r2, [pc, #64]	; (8001424 <HAL_UART_MspInit+0x80>)
 80013e4:	f043 0308 	orr.w	r3, r3, #8
 80013e8:	64d3      	str	r3, [r2, #76]	; 0x4c
 80013ea:	4b0e      	ldr	r3, [pc, #56]	; (8001424 <HAL_UART_MspInit+0x80>)
 80013ec:	6cdb      	ldr	r3, [r3, #76]	; 0x4c
 80013ee:	f003 0308 	and.w	r3, r3, #8
 80013f2:	60fb      	str	r3, [r7, #12]
 80013f4:	68fb      	ldr	r3, [r7, #12]
 80013f6:	2360      	movs	r3, #96	; 0x60
 80013f8:	617b      	str	r3, [r7, #20]
 80013fa:	2302      	movs	r3, #2
 80013fc:	61bb      	str	r3, [r7, #24]
 80013fe:	2301      	movs	r3, #1
 8001400:	61fb      	str	r3, [r7, #28]
 8001402:	2303      	movs	r3, #3
 8001404:	623b      	str	r3, [r7, #32]
 8001406:	2307      	movs	r3, #7
 8001408:	627b      	str	r3, [r7, #36]	; 0x24
 800140a:	f107 0314 	add.w	r3, r7, #20
 800140e:	4619      	mov	r1, r3
 8001410:	4805      	ldr	r0, [pc, #20]	; (8001428 <HAL_UART_MspInit+0x84>)
 8001412:	f002 f85b 	bl	80034cc <HAL_GPIO_Init>
 8001416:	bf00      	nop
 8001418:	3728      	adds	r7, #40	; 0x28
 800141a:	46bd      	mov	sp, r7
 800141c:	bd80      	pop	{r7, pc}
 800141e:	bf00      	nop
 8001420:	40004400 	.word	0x40004400
 8001424:	40021000 	.word	0x40021000
 8001428:	48000c00 	.word	0x48000c00

0800142c <HAL_SAI_MspInit>:
 800142c:	b580      	push	{r7, lr}
 800142e:	b08a      	sub	sp, #40	; 0x28
 8001430:	af00      	add	r7, sp, #0
 8001432:	6078      	str	r0, [r7, #4]
 8001434:	687b      	ldr	r3, [r7, #4]
 8001436:	681b      	ldr	r3, [r3, #0]
 8001438:	4a33      	ldr	r2, [pc, #204]	; (8001508 <HAL_SAI_MspInit+0xdc>)
 800143a:	4293      	cmp	r3, r2
 800143c:	d135      	bne.n	80014aa <HAL_SAI_MspInit+0x7e>
 800143e:	4b33      	ldr	r3, [pc, #204]	; (800150c <HAL_SAI_MspInit+0xe0>)
 8001440:	681b      	ldr	r3, [r3, #0]
 8001442:	2b00      	cmp	r3, #0
 8001444:	d10b      	bne.n	800145e <HAL_SAI_MspInit+0x32>
 8001446:	4b32      	ldr	r3, [pc, #200]	; (8001510 <HAL_SAI_MspInit+0xe4>)
 8001448:	6e1b      	ldr	r3, [r3, #96]	; 0x60
 800144a:	4a31      	ldr	r2, [pc, #196]	; (8001510 <HAL_SAI_MspInit+0xe4>)
 800144c:	f443 1300 	orr.w	r3, r3, #2097152	; 0x200000
 8001450:	6613      	str	r3, [r2, #96]	; 0x60
 8001452:	4b2f      	ldr	r3, [pc, #188]	; (8001510 <HAL_SAI_MspInit+0xe4>)
 8001454:	6e1b      	ldr	r3, [r3, #96]	; 0x60
 8001456:	f403 1300 	and.w	r3, r3, #2097152	; 0x200000
 800145a:	613b      	str	r3, [r7, #16]
 800145c:	693b      	ldr	r3, [r7, #16]
 800145e:	4b2b      	ldr	r3, [pc, #172]	; (800150c <HAL_SAI_MspInit+0xe0>)
 8001460:	681b      	ldr	r3, [r3, #0]
 8001462:	3301      	adds	r3, #1
 8001464:	4a29      	ldr	r2, [pc, #164]	; (800150c <HAL_SAI_MspInit+0xe0>)
 8001466:	6013      	str	r3, [r2, #0]
 8001468:	2374      	movs	r3, #116	; 0x74
 800146a:	617b      	str	r3, [r7, #20]
 800146c:	2302      	movs	r3, #2
 800146e:	61bb      	str	r3, [r7, #24]
 8001470:	2300      	movs	r3, #0
 8001472:	61fb      	str	r3, [r7, #28]
 8001474:	2303      	movs	r3, #3
 8001476:	623b      	str	r3, [r7, #32]
 8001478:	230d      	movs	r3, #13
 800147a:	627b      	str	r3, [r7, #36]	; 0x24
 800147c:	f107 0314 	add.w	r3, r7, #20
 8001480:	4619      	mov	r1, r3
 8001482:	4824      	ldr	r0, [pc, #144]	; (8001514 <HAL_SAI_MspInit+0xe8>)
 8001484:	f002 f822 	bl	80034cc <HAL_GPIO_Init>
 8001488:	f44f 7300 	mov.w	r3, #512	; 0x200
 800148c:	617b      	str	r3, [r7, #20]
 800148e:	2302      	movs	r3, #2
 8001490:	61bb      	str	r3, [r7, #24]
 8001492:	2300      	movs	r3, #0
 8001494:	61fb      	str	r3, [r7, #28]
 8001496:	2300      	movs	r3, #0
 8001498:	623b      	str	r3, [r7, #32]
 800149a:	230d      	movs	r3, #13
 800149c:	627b      	str	r3, [r7, #36]	; 0x24
 800149e:	f107 0314 	add.w	r3, r7, #20
 80014a2:	4619      	mov	r1, r3
 80014a4:	481b      	ldr	r0, [pc, #108]	; (8001514 <HAL_SAI_MspInit+0xe8>)
 80014a6:	f002 f811 	bl	80034cc <HAL_GPIO_Init>
 80014aa:	687b      	ldr	r3, [r7, #4]
 80014ac:	681b      	ldr	r3, [r3, #0]
 80014ae:	4a1a      	ldr	r2, [pc, #104]	; (8001518 <HAL_SAI_MspInit+0xec>)
 80014b0:	4293      	cmp	r3, r2
 80014b2:	d124      	bne.n	80014fe <HAL_SAI_MspInit+0xd2>
 80014b4:	4b15      	ldr	r3, [pc, #84]	; (800150c <HAL_SAI_MspInit+0xe0>)
 80014b6:	681b      	ldr	r3, [r3, #0]
 80014b8:	2b00      	cmp	r3, #0
 80014ba:	d10b      	bne.n	80014d4 <HAL_SAI_MspInit+0xa8>
 80014bc:	4b14      	ldr	r3, [pc, #80]	; (8001510 <HAL_SAI_MspInit+0xe4>)
 80014be:	6e1b      	ldr	r3, [r3, #96]	; 0x60
 80014c0:	4a13      	ldr	r2, [pc, #76]	; (8001510 <HAL_SAI_MspInit+0xe4>)
 80014c2:	f443 1300 	orr.w	r3, r3, #2097152	; 0x200000
 80014c6:	6613      	str	r3, [r2, #96]	; 0x60
 80014c8:	4b11      	ldr	r3, [pc, #68]	; (8001510 <HAL_SAI_MspInit+0xe4>)
 80014ca:	6e1b      	ldr	r3, [r3, #96]	; 0x60
 80014cc:	f403 1300 	and.w	r3, r3, #2097152	; 0x200000
 80014d0:	60fb      	str	r3, [r7, #12]
 80014d2:	68fb      	ldr	r3, [r7, #12]
 80014d4:	4b0d      	ldr	r3, [pc, #52]	; (800150c <HAL_SAI_MspInit+0xe0>)
 80014d6:	681b      	ldr	r3, [r3, #0]
 80014d8:	3301      	adds	r3, #1
 80014da:	4a0c      	ldr	r2, [pc, #48]	; (800150c <HAL_SAI_MspInit+0xe0>)
 80014dc:	6013      	str	r3, [r2, #0]
 80014de:	2380      	movs	r3, #128	; 0x80
 80014e0:	617b      	str	r3, [r7, #20]
 80014e2:	2302      	movs	r3, #2
 80014e4:	61bb      	str	r3, [r7, #24]
 80014e6:	2300      	movs	r3, #0
 80014e8:	61fb      	str	r3, [r7, #28]
 80014ea:	2303      	movs	r3, #3
 80014ec:	623b      	str	r3, [r7, #32]
 80014ee:	230d      	movs	r3, #13
 80014f0:	627b      	str	r3, [r7, #36]	; 0x24
 80014f2:	f107 0314 	add.w	r3, r7, #20
 80014f6:	4619      	mov	r1, r3
 80014f8:	4806      	ldr	r0, [pc, #24]	; (8001514 <HAL_SAI_MspInit+0xe8>)
 80014fa:	f001 ffe7 	bl	80034cc <HAL_GPIO_Init>
 80014fe:	bf00      	nop
 8001500:	3728      	adds	r7, #40	; 0x28
 8001502:	46bd      	mov	sp, r7
 8001504:	bd80      	pop	{r7, pc}
 8001506:	bf00      	nop
 8001508:	40015404 	.word	0x40015404
 800150c:	200000b0 	.word	0x200000b0
 8001510:	40021000 	.word	0x40021000
 8001514:	48001000 	.word	0x48001000
 8001518:	40015424 	.word	0x40015424

0800151c <NMI_Handler>:
 800151c:	b480      	push	{r7}
 800151e:	af00      	add	r7, sp, #0
 8001520:	bf00      	nop
 8001522:	46bd      	mov	sp, r7
 8001524:	f85d 7b04 	ldr.w	r7, [sp], #4
 8001528:	4770      	bx	lr

0800152a <HardFault_Handler>:
 800152a:	b480      	push	{r7}
 800152c:	af00      	add	r7, sp, #0
 800152e:	e7fe      	b.n	800152e <HardFault_Handler+0x4>

08001530 <MemManage_Handler>:
 8001530:	b480      	push	{r7}
 8001532:	af00      	add	r7, sp, #0
 8001534:	e7fe      	b.n	8001534 <MemManage_Handler+0x4>

08001536 <BusFault_Handler>:
 8001536:	b480      	push	{r7}
 8001538:	af00      	add	r7, sp, #0
 800153a:	e7fe      	b.n	800153a <BusFault_Handler+0x4>

0800153c <UsageFault_Handler>:
 800153c:	b480      	push	{r7}
 800153e:	af00      	add	r7, sp, #0
 8001540:	e7fe      	b.n	8001540 <UsageFault_Handler+0x4>

08001542 <SVC_Handler>:
 8001542:	b480      	push	{r7}
 8001544:	af00      	add	r7, sp, #0
 8001546:	bf00      	nop
 8001548:	46bd      	mov	sp, r7
 800154a:	f85d 7b04 	ldr.w	r7, [sp], #4
 800154e:	4770      	bx	lr

08001550 <DebugMon_Handler>:
 8001550:	b480      	push	{r7}
 8001552:	af00      	add	r7, sp, #0
 8001554:	bf00      	nop
 8001556:	46bd      	mov	sp, r7
 8001558:	f85d 7b04 	ldr.w	r7, [sp], #4
 800155c:	4770      	bx	lr

0800155e <PendSV_Handler>:
 800155e:	b480      	push	{r7}
 8001560:	af00      	add	r7, sp, #0
 8001562:	bf00      	nop
 8001564:	46bd      	mov	sp, r7
 8001566:	f85d 7b04 	ldr.w	r7, [sp], #4
 800156a:	4770      	bx	lr

0800156c <SysTick_Handler>:
 800156c:	b580      	push	{r7, lr}
 800156e:	af00      	add	r7, sp, #0
 8001570:	f000 f8fc 	bl	800176c <HAL_IncTick>
 8001574:	bf00      	nop
 8001576:	bd80      	pop	{r7, pc}

08001578 <ADC1_2_IRQHandler>:
 8001578:	b580      	push	{r7, lr}
 800157a:	af00      	add	r7, sp, #0
 800157c:	4802      	ldr	r0, [pc, #8]	; (8001588 <ADC1_2_IRQHandler+0x10>)
 800157e:	f000 fe8d 	bl	800229c <HAL_ADC_IRQHandler>
 8001582:	bf00      	nop
 8001584:	bd80      	pop	{r7, pc}
 8001586:	bf00      	nop
 8001588:	20000288 	.word	0x20000288

0800158c <OTG_FS_IRQHandler>:
 800158c:	b580      	push	{r7, lr}
 800158e:	af00      	add	r7, sp, #0
 8001590:	4802      	ldr	r0, [pc, #8]	; (800159c <OTG_FS_IRQHandler+0x10>)
 8001592:	f002 fbf5 	bl	8003d80 <HAL_HCD_IRQHandler>
 8001596:	bf00      	nop
 8001598:	bd80      	pop	{r7, pc}
 800159a:	bf00      	nop
 800159c:	20000880 	.word	0x20000880

080015a0 <_sbrk>:
 80015a0:	b580      	push	{r7, lr}
 80015a2:	b084      	sub	sp, #16
 80015a4:	af00      	add	r7, sp, #0
 80015a6:	6078      	str	r0, [r7, #4]
 80015a8:	4b11      	ldr	r3, [pc, #68]	; (80015f0 <_sbrk+0x50>)
 80015aa:	681b      	ldr	r3, [r3, #0]
 80015ac:	2b00      	cmp	r3, #0
 80015ae:	d102      	bne.n	80015b6 <_sbrk+0x16>
 80015b0:	4b0f      	ldr	r3, [pc, #60]	; (80015f0 <_sbrk+0x50>)
 80015b2:	4a10      	ldr	r2, [pc, #64]	; (80015f4 <_sbrk+0x54>)
 80015b4:	601a      	str	r2, [r3, #0]
 80015b6:	4b0e      	ldr	r3, [pc, #56]	; (80015f0 <_sbrk+0x50>)
 80015b8:	681b      	ldr	r3, [r3, #0]
 80015ba:	60fb      	str	r3, [r7, #12]
 80015bc:	4b0c      	ldr	r3, [pc, #48]	; (80015f0 <_sbrk+0x50>)
 80015be:	681a      	ldr	r2, [r3, #0]
 80015c0:	687b      	ldr	r3, [r7, #4]
 80015c2:	4413      	add	r3, r2
 80015c4:	466a      	mov	r2, sp
 80015c6:	4293      	cmp	r3, r2
 80015c8:	d907      	bls.n	80015da <_sbrk+0x3a>
 80015ca:	f009 f96d 	bl	800a8a8 <__errno>
 80015ce:	4602      	mov	r2, r0
 80015d0:	230c      	movs	r3, #12
 80015d2:	6013      	str	r3, [r2, #0]
 80015d4:	f04f 33ff 	mov.w	r3, #4294967295
 80015d8:	e006      	b.n	80015e8 <_sbrk+0x48>
 80015da:	4b05      	ldr	r3, [pc, #20]	; (80015f0 <_sbrk+0x50>)
 80015dc:	681a      	ldr	r2, [r3, #0]
 80015de:	687b      	ldr	r3, [r7, #4]
 80015e0:	4413      	add	r3, r2
 80015e2:	4a03      	ldr	r2, [pc, #12]	; (80015f0 <_sbrk+0x50>)
 80015e4:	6013      	str	r3, [r2, #0]
 80015e6:	68fb      	ldr	r3, [r7, #12]
 80015e8:	4618      	mov	r0, r3
 80015ea:	3710      	adds	r7, #16
 80015ec:	46bd      	mov	sp, r7
 80015ee:	bd80      	pop	{r7, pc}
 80015f0:	200000b4 	.word	0x200000b4
 80015f4:	20000b48 	.word	0x20000b48

080015f8 <SystemInit>:
 80015f8:	b480      	push	{r7}
 80015fa:	af00      	add	r7, sp, #0
 80015fc:	4b17      	ldr	r3, [pc, #92]	; (800165c <SystemInit+0x64>)
 80015fe:	f8d3 3088 	ldr.w	r3, [r3, #136]	; 0x88
 8001602:	4a16      	ldr	r2, [pc, #88]	; (800165c <SystemInit+0x64>)
 8001604:	f443 0370 	orr.w	r3, r3, #15728640	; 0xf00000
 8001608:	f8c2 3088 	str.w	r3, [r2, #136]	; 0x88
 800160c:	4b14      	ldr	r3, [pc, #80]	; (8001660 <SystemInit+0x68>)
 800160e:	681b      	ldr	r3, [r3, #0]
 8001610:	4a13      	ldr	r2, [pc, #76]	; (8001660 <SystemInit+0x68>)
 8001612:	f043 0301 	orr.w	r3, r3, #1
 8001616:	6013      	str	r3, [r2, #0]
 8001618:	4b11      	ldr	r3, [pc, #68]	; (8001660 <SystemInit+0x68>)
 800161a:	2200      	movs	r2, #0
 800161c:	609a      	str	r2, [r3, #8]
 800161e:	4b10      	ldr	r3, [pc, #64]	; (8001660 <SystemInit+0x68>)
 8001620:	681b      	ldr	r3, [r3, #0]
 8001622:	4a0f      	ldr	r2, [pc, #60]	; (8001660 <SystemInit+0x68>)
 8001624:	f023 53a8 	bic.w	r3, r3, #352321536	; 0x15000000
 8001628:	f423 2310 	bic.w	r3, r3, #589824	; 0x90000
 800162c:	6013      	str	r3, [r2, #0]
 800162e:	4b0c      	ldr	r3, [pc, #48]	; (8001660 <SystemInit+0x68>)
 8001630:	f44f 5280 	mov.w	r2, #4096	; 0x1000
 8001634:	60da      	str	r2, [r3, #12]
 8001636:	4b0a      	ldr	r3, [pc, #40]	; (8001660 <SystemInit+0x68>)
 8001638:	681b      	ldr	r3, [r3, #0]
 800163a:	4a09      	ldr	r2, [pc, #36]	; (8001660 <SystemInit+0x68>)
 800163c:	f423 2380 	bic.w	r3, r3, #262144	; 0x40000
 8001640:	6013      	str	r3, [r2, #0]
 8001642:	4b07      	ldr	r3, [pc, #28]	; (8001660 <SystemInit+0x68>)
 8001644:	2200      	movs	r2, #0
 8001646:	619a      	str	r2, [r3, #24]
 8001648:	4b04      	ldr	r3, [pc, #16]	; (800165c <SystemInit+0x64>)
 800164a:	f04f 6200 	mov.w	r2, #134217728	; 0x8000000
 800164e:	609a      	str	r2, [r3, #8]
 8001650:	bf00      	nop
 8001652:	46bd      	mov	sp, r7
 8001654:	f85d 7b04 	ldr.w	r7, [sp], #4
 8001658:	4770      	bx	lr
 800165a:	bf00      	nop
 800165c:	e000ed00 	.word	0xe000ed00
 8001660:	40021000 	.word	0x40021000

08001664 <Reset_Handler>:
 8001664:	f8df d034 	ldr.w	sp, [pc, #52]	; 800169c <LoopForever+0x2>
 8001668:	2100      	movs	r1, #0
 800166a:	e003      	b.n	8001674 <LoopCopyDataInit>

0800166c <CopyDataInit>:
 800166c:	4b0c      	ldr	r3, [pc, #48]	; (80016a0 <LoopForever+0x6>)
 800166e:	585b      	ldr	r3, [r3, r1]
 8001670:	5043      	str	r3, [r0, r1]
 8001672:	3104      	adds	r1, #4

08001674 <LoopCopyDataInit>:
 8001674:	480b      	ldr	r0, [pc, #44]	; (80016a4 <LoopForever+0xa>)
 8001676:	4b0c      	ldr	r3, [pc, #48]	; (80016a8 <LoopForever+0xe>)
 8001678:	1842      	adds	r2, r0, r1
 800167a:	429a      	cmp	r2, r3
 800167c:	d3f6      	bcc.n	800166c <CopyDataInit>
 800167e:	4a0b      	ldr	r2, [pc, #44]	; (80016ac <LoopForever+0x12>)
 8001680:	e002      	b.n	8001688 <LoopFillZerobss>

08001682 <FillZerobss>:
 8001682:	2300      	movs	r3, #0
 8001684:	f842 3b04 	str.w	r3, [r2], #4

08001688 <LoopFillZerobss>:
 8001688:	4b09      	ldr	r3, [pc, #36]	; (80016b0 <LoopForever+0x16>)
 800168a:	429a      	cmp	r2, r3
 800168c:	d3f9      	bcc.n	8001682 <FillZerobss>
 800168e:	f7ff ffb3 	bl	80015f8 <SystemInit>
 8001692:	f009 f90f 	bl	800a8b4 <__libc_init_array>
 8001696:	f7fe ff41 	bl	800051c <main>

0800169a <LoopForever>:
 800169a:	e7fe      	b.n	800169a <LoopForever>
 800169c:	20018000 	.word	0x20018000
 80016a0:	0800ab14 	.word	0x0800ab14
 80016a4:	20000000 	.word	0x20000000
 80016a8:	20000090 	.word	0x20000090
 80016ac:	20000090 	.word	0x20000090
 80016b0:	20000b48 	.word	0x20000b48

080016b4 <ADC3_IRQHandler>:
 80016b4:	e7fe      	b.n	80016b4 <ADC3_IRQHandler>
	...

080016b8 <HAL_Init>:
 80016b8:	b580      	push	{r7, lr}
 80016ba:	b082      	sub	sp, #8
 80016bc:	af00      	add	r7, sp, #0
 80016be:	2300      	movs	r3, #0
 80016c0:	71fb      	strb	r3, [r7, #7]
 80016c2:	4b0c      	ldr	r3, [pc, #48]	; (80016f4 <HAL_Init+0x3c>)
 80016c4:	681b      	ldr	r3, [r3, #0]
 80016c6:	4a0b      	ldr	r2, [pc, #44]	; (80016f4 <HAL_Init+0x3c>)
 80016c8:	f443 7380 	orr.w	r3, r3, #256	; 0x100
 80016cc:	6013      	str	r3, [r2, #0]
 80016ce:	2003      	movs	r0, #3
 80016d0:	f001 feba 	bl	8003448 <HAL_NVIC_SetPriorityGrouping>
 80016d4:	2000      	movs	r0, #0
 80016d6:	f000 f80f 	bl	80016f8 <HAL_InitTick>
 80016da:	4603      	mov	r3, r0
 80016dc:	2b00      	cmp	r3, #0
 80016de:	d002      	beq.n	80016e6 <HAL_Init+0x2e>
 80016e0:	2301      	movs	r3, #1
 80016e2:	71fb      	strb	r3, [r7, #7]
 80016e4:	e001      	b.n	80016ea <HAL_Init+0x32>
 80016e6:	f7ff fc15 	bl	8000f14 <HAL_MspInit>
 80016ea:	79fb      	ldrb	r3, [r7, #7]
 80016ec:	4618      	mov	r0, r3
 80016ee:	3708      	adds	r7, #8
 80016f0:	46bd      	mov	sp, r7
 80016f2:	bd80      	pop	{r7, pc}
 80016f4:	40022000 	.word	0x40022000

080016f8 <HAL_InitTick>:
 80016f8:	b580      	push	{r7, lr}
 80016fa:	b084      	sub	sp, #16
 80016fc:	af00      	add	r7, sp, #0
 80016fe:	6078      	str	r0, [r7, #4]
 8001700:	2300      	movs	r3, #0
 8001702:	73fb      	strb	r3, [r7, #15]
 8001704:	4b16      	ldr	r3, [pc, #88]	; (8001760 <HAL_InitTick+0x68>)
 8001706:	681b      	ldr	r3, [r3, #0]
 8001708:	2b00      	cmp	r3, #0
 800170a:	d022      	beq.n	8001752 <HAL_InitTick+0x5a>
 800170c:	4b15      	ldr	r3, [pc, #84]	; (8001764 <HAL_InitTick+0x6c>)
 800170e:	681a      	ldr	r2, [r3, #0]
 8001710:	4b13      	ldr	r3, [pc, #76]	; (8001760 <HAL_InitTick+0x68>)
 8001712:	681b      	ldr	r3, [r3, #0]
 8001714:	f44f 717a 	mov.w	r1, #1000	; 0x3e8
 8001718:	fbb1 f3f3 	udiv	r3, r1, r3
 800171c:	fbb2 f3f3 	udiv	r3, r2, r3
 8001720:	4618      	mov	r0, r3
 8001722:	f001 fec6 	bl	80034b2 <HAL_SYSTICK_Config>
 8001726:	4603      	mov	r3, r0
 8001728:	2b00      	cmp	r3, #0
 800172a:	d10f      	bne.n	800174c <HAL_InitTick+0x54>
 800172c:	687b      	ldr	r3, [r7, #4]
 800172e:	2b0f      	cmp	r3, #15
 8001730:	d809      	bhi.n	8001746 <HAL_InitTick+0x4e>
 8001732:	2200      	movs	r2, #0
 8001734:	6879      	ldr	r1, [r7, #4]
 8001736:	f04f 30ff 	mov.w	r0, #4294967295
 800173a:	f001 fe90 	bl	800345e <HAL_NVIC_SetPriority>
 800173e:	4a0a      	ldr	r2, [pc, #40]	; (8001768 <HAL_InitTick+0x70>)
 8001740:	687b      	ldr	r3, [r7, #4]
 8001742:	6013      	str	r3, [r2, #0]
 8001744:	e007      	b.n	8001756 <HAL_InitTick+0x5e>
 8001746:	2301      	movs	r3, #1
 8001748:	73fb      	strb	r3, [r7, #15]
 800174a:	e004      	b.n	8001756 <HAL_InitTick+0x5e>
 800174c:	2301      	movs	r3, #1
 800174e:	73fb      	strb	r3, [r7, #15]
 8001750:	e001      	b.n	8001756 <HAL_InitTick+0x5e>
 8001752:	2301      	movs	r3, #1
 8001754:	73fb      	strb	r3, [r7, #15]
 8001756:	7bfb      	ldrb	r3, [r7, #15]
 8001758:	4618      	mov	r0, r3
 800175a:	3710      	adds	r7, #16
 800175c:	46bd      	mov	sp, r7
 800175e:	bd80      	pop	{r7, pc}
 8001760:	20000008 	.word	0x20000008
 8001764:	20000000 	.word	0x20000000
 8001768:	20000004 	.word	0x20000004

0800176c <HAL_IncTick>:
 800176c:	b480      	push	{r7}
 800176e:	af00      	add	r7, sp, #0
 8001770:	4b05      	ldr	r3, [pc, #20]	; (8001788 <HAL_IncTick+0x1c>)
 8001772:	681a      	ldr	r2, [r3, #0]
 8001774:	4b05      	ldr	r3, [pc, #20]	; (800178c <HAL_IncTick+0x20>)
 8001776:	681b      	ldr	r3, [r3, #0]
 8001778:	4413      	add	r3, r2
 800177a:	4a03      	ldr	r2, [pc, #12]	; (8001788 <HAL_IncTick+0x1c>)
 800177c:	6013      	str	r3, [r2, #0]
 800177e:	bf00      	nop
 8001780:	46bd      	mov	sp, r7
 8001782:	f85d 7b04 	ldr.w	r7, [sp], #4
 8001786:	4770      	bx	lr
 8001788:	200004b0 	.word	0x200004b0
 800178c:	20000008 	.word	0x20000008

08001790 <HAL_GetTick>:
 8001790:	b480      	push	{r7}
 8001792:	af00      	add	r7, sp, #0
 8001794:	4b03      	ldr	r3, [pc, #12]	; (80017a4 <HAL_GetTick+0x14>)
 8001796:	681b      	ldr	r3, [r3, #0]
 8001798:	4618      	mov	r0, r3
 800179a:	46bd      	mov	sp, r7
 800179c:	f85d 7b04 	ldr.w	r7, [sp], #4
 80017a0:	4770      	bx	lr
 80017a2:	bf00      	nop
 80017a4:	200004b0 	.word	0x200004b0

080017a8 <HAL_Delay>:
 80017a8:	b580      	push	{r7, lr}
 80017aa:	b084      	sub	sp, #16
 80017ac:	af00      	add	r7, sp, #0
 80017ae:	6078      	str	r0, [r7, #4]
 80017b0:	f7ff ffee 	bl	8001790 <HAL_GetTick>
 80017b4:	60b8      	str	r0, [r7, #8]
 80017b6:	687b      	ldr	r3, [r7, #4]
 80017b8:	60fb      	str	r3, [r7, #12]
 80017ba:	68fb      	ldr	r3, [r7, #12]
 80017bc:	f1b3 3fff 	cmp.w	r3, #4294967295
 80017c0:	d004      	beq.n	80017cc <HAL_Delay+0x24>
 80017c2:	4b09      	ldr	r3, [pc, #36]	; (80017e8 <HAL_Delay+0x40>)
 80017c4:	681b      	ldr	r3, [r3, #0]
 80017c6:	68fa      	ldr	r2, [r7, #12]
 80017c8:	4413      	add	r3, r2
 80017ca:	60fb      	str	r3, [r7, #12]
 80017cc:	bf00      	nop
 80017ce:	f7ff ffdf 	bl	8001790 <HAL_GetTick>
 80017d2:	4602      	mov	r2, r0
 80017d4:	68bb      	ldr	r3, [r7, #8]
 80017d6:	1ad3      	subs	r3, r2, r3
 80017d8:	68fa      	ldr	r2, [r7, #12]
 80017da:	429a      	cmp	r2, r3
 80017dc:	d8f7      	bhi.n	80017ce <HAL_Delay+0x26>
 80017de:	bf00      	nop
 80017e0:	3710      	adds	r7, #16
 80017e2:	46bd      	mov	sp, r7
 80017e4:	bd80      	pop	{r7, pc}
 80017e6:	bf00      	nop
 80017e8:	20000008 	.word	0x20000008

080017ec <LL_ADC_SetCommonClock>:
 80017ec:	b480      	push	{r7}
 80017ee:	b083      	sub	sp, #12
 80017f0:	af00      	add	r7, sp, #0
 80017f2:	6078      	str	r0, [r7, #4]
 80017f4:	6039      	str	r1, [r7, #0]
 80017f6:	687b      	ldr	r3, [r7, #4]
 80017f8:	689b      	ldr	r3, [r3, #8]
 80017fa:	f423 127c 	bic.w	r2, r3, #4128768	; 0x3f0000
 80017fe:	683b      	ldr	r3, [r7, #0]
 8001800:	431a      	orrs	r2, r3
 8001802:	687b      	ldr	r3, [r7, #4]
 8001804:	609a      	str	r2, [r3, #8]
 8001806:	bf00      	nop
 8001808:	370c      	adds	r7, #12
 800180a:	46bd      	mov	sp, r7
 800180c:	f85d 7b04 	ldr.w	r7, [sp], #4
 8001810:	4770      	bx	lr

08001812 <LL_ADC_SetCommonPathInternalCh>:
 8001812:	b480      	push	{r7}
 8001814:	b083      	sub	sp, #12
 8001816:	af00      	add	r7, sp, #0
 8001818:	6078      	str	r0, [r7, #4]
 800181a:	6039      	str	r1, [r7, #0]
 800181c:	687b      	ldr	r3, [r7, #4]
 800181e:	689b      	ldr	r3, [r3, #8]
 8001820:	f023 72e0 	bic.w	r2, r3, #29360128	; 0x1c00000
 8001824:	683b      	ldr	r3, [r7, #0]
 8001826:	431a      	orrs	r2, r3
 8001828:	687b      	ldr	r3, [r7, #4]
 800182a:	609a      	str	r2, [r3, #8]
 800182c:	bf00      	nop
 800182e:	370c      	adds	r7, #12
 8001830:	46bd      	mov	sp, r7
 8001832:	f85d 7b04 	ldr.w	r7, [sp], #4
 8001836:	4770      	bx	lr

08001838 <LL_ADC_GetCommonPathInternalCh>:
 8001838:	b480      	push	{r7}
 800183a:	b083      	sub	sp, #12
 800183c:	af00      	add	r7, sp, #0
 800183e:	6078      	str	r0, [r7, #4]
 8001840:	687b      	ldr	r3, [r7, #4]
 8001842:	689b      	ldr	r3, [r3, #8]
 8001844:	f003 73e0 	and.w	r3, r3, #29360128	; 0x1c00000
 8001848:	4618      	mov	r0, r3
 800184a:	370c      	adds	r7, #12
 800184c:	46bd      	mov	sp, r7
 800184e:	f85d 7b04 	ldr.w	r7, [sp], #4
 8001852:	4770      	bx	lr

08001854 <LL_ADC_SetOffset>:
 8001854:	b490      	push	{r4, r7}
 8001856:	b084      	sub	sp, #16
 8001858:	af00      	add	r7, sp, #0
 800185a:	60f8      	str	r0, [r7, #12]
 800185c:	60b9      	str	r1, [r7, #8]
 800185e:	607a      	str	r2, [r7, #4]
 8001860:	603b      	str	r3, [r7, #0]
 8001862:	68fb      	ldr	r3, [r7, #12]
 8001864:	3360      	adds	r3, #96	; 0x60
 8001866:	461a      	mov	r2, r3
 8001868:	68bb      	ldr	r3, [r7, #8]
 800186a:	009b      	lsls	r3, r3, #2
 800186c:	4413      	add	r3, r2
 800186e:	461c      	mov	r4, r3
 8001870:	6822      	ldr	r2, [r4, #0]
 8001872:	4b08      	ldr	r3, [pc, #32]	; (8001894 <LL_ADC_SetOffset+0x40>)
 8001874:	4013      	ands	r3, r2
 8001876:	687a      	ldr	r2, [r7, #4]
 8001878:	f002 41f8 	and.w	r1, r2, #2080374784	; 0x7c000000
 800187c:	683a      	ldr	r2, [r7, #0]
 800187e:	430a      	orrs	r2, r1
 8001880:	4313      	orrs	r3, r2
 8001882:	f043 4300 	orr.w	r3, r3, #2147483648	; 0x80000000
 8001886:	6023      	str	r3, [r4, #0]
 8001888:	bf00      	nop
 800188a:	3710      	adds	r7, #16
 800188c:	46bd      	mov	sp, r7
 800188e:	bc90      	pop	{r4, r7}
 8001890:	4770      	bx	lr
 8001892:	bf00      	nop
 8001894:	03fff000 	.word	0x03fff000

08001898 <LL_ADC_GetOffsetChannel>:
 8001898:	b490      	push	{r4, r7}
 800189a:	b082      	sub	sp, #8
 800189c:	af00      	add	r7, sp, #0
 800189e:	6078      	str	r0, [r7, #4]
 80018a0:	6039      	str	r1, [r7, #0]
 80018a2:	687b      	ldr	r3, [r7, #4]
 80018a4:	3360      	adds	r3, #96	; 0x60
 80018a6:	461a      	mov	r2, r3
 80018a8:	683b      	ldr	r3, [r7, #0]
 80018aa:	009b      	lsls	r3, r3, #2
 80018ac:	4413      	add	r3, r2
 80018ae:	461c      	mov	r4, r3
 80018b0:	6823      	ldr	r3, [r4, #0]
 80018b2:	f003 43f8 	and.w	r3, r3, #2080374784	; 0x7c000000
 80018b6:	4618      	mov	r0, r3
 80018b8:	3708      	adds	r7, #8
 80018ba:	46bd      	mov	sp, r7
 80018bc:	bc90      	pop	{r4, r7}
 80018be:	4770      	bx	lr

080018c0 <LL_ADC_SetOffsetState>:
 80018c0:	b490      	push	{r4, r7}
 80018c2:	b084      	sub	sp, #16
 80018c4:	af00      	add	r7, sp, #0
 80018c6:	60f8      	str	r0, [r7, #12]
 80018c8:	60b9      	str	r1, [r7, #8]
 80018ca:	607a      	str	r2, [r7, #4]
 80018cc:	68fb      	ldr	r3, [r7, #12]
 80018ce:	3360      	adds	r3, #96	; 0x60
 80018d0:	461a      	mov	r2, r3
 80018d2:	68bb      	ldr	r3, [r7, #8]
 80018d4:	009b      	lsls	r3, r3, #2
 80018d6:	4413      	add	r3, r2
 80018d8:	461c      	mov	r4, r3
 80018da:	6823      	ldr	r3, [r4, #0]
 80018dc:	f023 4200 	bic.w	r2, r3, #2147483648	; 0x80000000
 80018e0:	687b      	ldr	r3, [r7, #4]
 80018e2:	4313      	orrs	r3, r2
 80018e4:	6023      	str	r3, [r4, #0]
 80018e6:	bf00      	nop
 80018e8:	3710      	adds	r7, #16
 80018ea:	46bd      	mov	sp, r7
 80018ec:	bc90      	pop	{r4, r7}
 80018ee:	4770      	bx	lr

080018f0 <LL_ADC_REG_IsTriggerSourceSWStart>:
 80018f0:	b480      	push	{r7}
 80018f2:	b083      	sub	sp, #12
 80018f4:	af00      	add	r7, sp, #0
 80018f6:	6078      	str	r0, [r7, #4]
 80018f8:	687b      	ldr	r3, [r7, #4]
 80018fa:	68db      	ldr	r3, [r3, #12]
 80018fc:	f403 6340 	and.w	r3, r3, #3072	; 0xc00
 8001900:	2b00      	cmp	r3, #0
 8001902:	d101      	bne.n	8001908 <LL_ADC_REG_IsTriggerSourceSWStart+0x18>
 8001904:	2301      	movs	r3, #1
 8001906:	e000      	b.n	800190a <LL_ADC_REG_IsTriggerSourceSWStart+0x1a>
 8001908:	2300      	movs	r3, #0
 800190a:	4618      	mov	r0, r3
 800190c:	370c      	adds	r7, #12
 800190e:	46bd      	mov	sp, r7
 8001910:	f85d 7b04 	ldr.w	r7, [sp], #4
 8001914:	4770      	bx	lr

08001916 <LL_ADC_REG_SetSequencerRanks>:
 8001916:	b490      	push	{r4, r7}
 8001918:	b084      	sub	sp, #16
 800191a:	af00      	add	r7, sp, #0
 800191c:	60f8      	str	r0, [r7, #12]
 800191e:	60b9      	str	r1, [r7, #8]
 8001920:	607a      	str	r2, [r7, #4]
 8001922:	68fb      	ldr	r3, [r7, #12]
 8001924:	3330      	adds	r3, #48	; 0x30
 8001926:	461a      	mov	r2, r3
 8001928:	68bb      	ldr	r3, [r7, #8]
 800192a:	0a1b      	lsrs	r3, r3, #8
 800192c:	009b      	lsls	r3, r3, #2
 800192e:	f003 030c 	and.w	r3, r3, #12
 8001932:	4413      	add	r3, r2
 8001934:	461c      	mov	r4, r3
 8001936:	6822      	ldr	r2, [r4, #0]
 8001938:	68bb      	ldr	r3, [r7, #8]
 800193a:	f003 031f 	and.w	r3, r3, #31
 800193e:	211f      	movs	r1, #31
 8001940:	fa01 f303 	lsl.w	r3, r1, r3
 8001944:	43db      	mvns	r3, r3
 8001946:	401a      	ands	r2, r3
 8001948:	687b      	ldr	r3, [r7, #4]
 800194a:	0e9b      	lsrs	r3, r3, #26
 800194c:	f003 011f 	and.w	r1, r3, #31
 8001950:	68bb      	ldr	r3, [r7, #8]
 8001952:	f003 031f 	and.w	r3, r3, #31
 8001956:	fa01 f303 	lsl.w	r3, r1, r3
 800195a:	4313      	orrs	r3, r2
 800195c:	6023      	str	r3, [r4, #0]
 800195e:	bf00      	nop
 8001960:	3710      	adds	r7, #16
 8001962:	46bd      	mov	sp, r7
 8001964:	bc90      	pop	{r4, r7}
 8001966:	4770      	bx	lr

08001968 <LL_ADC_INJ_IsTriggerSourceSWStart>:
 8001968:	b480      	push	{r7}
 800196a:	b083      	sub	sp, #12
 800196c:	af00      	add	r7, sp, #0
 800196e:	6078      	str	r0, [r7, #4]
 8001970:	687b      	ldr	r3, [r7, #4]
 8001972:	6cdb      	ldr	r3, [r3, #76]	; 0x4c
 8001974:	f003 03c0 	and.w	r3, r3, #192	; 0xc0
 8001978:	2b00      	cmp	r3, #0
 800197a:	d101      	bne.n	8001980 <LL_ADC_INJ_IsTriggerSourceSWStart+0x18>
 800197c:	2301      	movs	r3, #1
 800197e:	e000      	b.n	8001982 <LL_ADC_INJ_IsTriggerSourceSWStart+0x1a>
 8001980:	2300      	movs	r3, #0
 8001982:	4618      	mov	r0, r3
 8001984:	370c      	adds	r7, #12
 8001986:	46bd      	mov	sp, r7
 8001988:	f85d 7b04 	ldr.w	r7, [sp], #4
 800198c:	4770      	bx	lr

0800198e <LL_ADC_SetChannelSamplingTime>:
 800198e:	b490      	push	{r4, r7}
 8001990:	b084      	sub	sp, #16
 8001992:	af00      	add	r7, sp, #0
 8001994:	60f8      	str	r0, [r7, #12]
 8001996:	60b9      	str	r1, [r7, #8]
 8001998:	607a      	str	r2, [r7, #4]
 800199a:	68fb      	ldr	r3, [r7, #12]
 800199c:	3314      	adds	r3, #20
 800199e:	461a      	mov	r2, r3
 80019a0:	68bb      	ldr	r3, [r7, #8]
 80019a2:	0e5b      	lsrs	r3, r3, #25
 80019a4:	009b      	lsls	r3, r3, #2
 80019a6:	f003 0304 	and.w	r3, r3, #4
 80019aa:	4413      	add	r3, r2
 80019ac:	461c      	mov	r4, r3
 80019ae:	6822      	ldr	r2, [r4, #0]
 80019b0:	68bb      	ldr	r3, [r7, #8]
 80019b2:	0d1b      	lsrs	r3, r3, #20
 80019b4:	f003 031f 	and.w	r3, r3, #31
 80019b8:	2107      	movs	r1, #7
 80019ba:	fa01 f303 	lsl.w	r3, r1, r3
 80019be:	43db      	mvns	r3, r3
 80019c0:	401a      	ands	r2, r3
 80019c2:	68bb      	ldr	r3, [r7, #8]
 80019c4:	0d1b      	lsrs	r3, r3, #20
 80019c6:	f003 031f 	and.w	r3, r3, #31
 80019ca:	6879      	ldr	r1, [r7, #4]
 80019cc:	fa01 f303 	lsl.w	r3, r1, r3
 80019d0:	4313      	orrs	r3, r2
 80019d2:	6023      	str	r3, [r4, #0]
 80019d4:	bf00      	nop
 80019d6:	3710      	adds	r7, #16
 80019d8:	46bd      	mov	sp, r7
 80019da:	bc90      	pop	{r4, r7}
 80019dc:	4770      	bx	lr
	...

080019e0 <LL_ADC_SetChannelSingleDiff>:
 80019e0:	b480      	push	{r7}
 80019e2:	b085      	sub	sp, #20
 80019e4:	af00      	add	r7, sp, #0
 80019e6:	60f8      	str	r0, [r7, #12]
 80019e8:	60b9      	str	r1, [r7, #8]
 80019ea:	607a      	str	r2, [r7, #4]
 80019ec:	68fb      	ldr	r3, [r7, #12]
 80019ee:	f8d3 20b0 	ldr.w	r2, [r3, #176]	; 0xb0
 80019f2:	68bb      	ldr	r3, [r7, #8]
 80019f4:	f3c3 0312 	ubfx	r3, r3, #0, #19
 80019f8:	43db      	mvns	r3, r3
 80019fa:	401a      	ands	r2, r3
 80019fc:	687b      	ldr	r3, [r7, #4]
 80019fe:	f003 0318 	and.w	r3, r3, #24
 8001a02:	4908      	ldr	r1, [pc, #32]	; (8001a24 <LL_ADC_SetChannelSingleDiff+0x44>)
 8001a04:	40d9      	lsrs	r1, r3
 8001a06:	68bb      	ldr	r3, [r7, #8]
 8001a08:	400b      	ands	r3, r1
 8001a0a:	f3c3 0312 	ubfx	r3, r3, #0, #19
 8001a0e:	431a      	orrs	r2, r3
 8001a10:	68fb      	ldr	r3, [r7, #12]
 8001a12:	f8c3 20b0 	str.w	r2, [r3, #176]	; 0xb0
 8001a16:	bf00      	nop
 8001a18:	3714      	adds	r7, #20
 8001a1a:	46bd      	mov	sp, r7
 8001a1c:	f85d 7b04 	ldr.w	r7, [sp], #4
 8001a20:	4770      	bx	lr
 8001a22:	bf00      	nop
 8001a24:	0007ffff 	.word	0x0007ffff

08001a28 <LL_ADC_GetMultimode>:
 8001a28:	b480      	push	{r7}
 8001a2a:	b083      	sub	sp, #12
 8001a2c:	af00      	add	r7, sp, #0
 8001a2e:	6078      	str	r0, [r7, #4]
 8001a30:	687b      	ldr	r3, [r7, #4]
 8001a32:	689b      	ldr	r3, [r3, #8]
 8001a34:	f003 031f 	and.w	r3, r3, #31
 8001a38:	4618      	mov	r0, r3
 8001a3a:	370c      	adds	r7, #12
 8001a3c:	46bd      	mov	sp, r7
 8001a3e:	f85d 7b04 	ldr.w	r7, [sp], #4
 8001a42:	4770      	bx	lr

08001a44 <LL_ADC_GetMultiDMATransfer>:
 8001a44:	b480      	push	{r7}
 8001a46:	b083      	sub	sp, #12
 8001a48:	af00      	add	r7, sp, #0
 8001a4a:	6078      	str	r0, [r7, #4]
 8001a4c:	687b      	ldr	r3, [r7, #4]
 8001a4e:	689b      	ldr	r3, [r3, #8]
 8001a50:	f403 4360 	and.w	r3, r3, #57344	; 0xe000
 8001a54:	4618      	mov	r0, r3
 8001a56:	370c      	adds	r7, #12
 8001a58:	46bd      	mov	sp, r7
 8001a5a:	f85d 7b04 	ldr.w	r7, [sp], #4
 8001a5e:	4770      	bx	lr

08001a60 <LL_ADC_DisableDeepPowerDown>:
 8001a60:	b480      	push	{r7}
 8001a62:	b083      	sub	sp, #12
 8001a64:	af00      	add	r7, sp, #0
 8001a66:	6078      	str	r0, [r7, #4]
 8001a68:	687b      	ldr	r3, [r7, #4]
 8001a6a:	689b      	ldr	r3, [r3, #8]
 8001a6c:	f023 4320 	bic.w	r3, r3, #2684354560	; 0xa0000000
 8001a70:	f023 033f 	bic.w	r3, r3, #63	; 0x3f
 8001a74:	687a      	ldr	r2, [r7, #4]
 8001a76:	6093      	str	r3, [r2, #8]
 8001a78:	bf00      	nop
 8001a7a:	370c      	adds	r7, #12
 8001a7c:	46bd      	mov	sp, r7
 8001a7e:	f85d 7b04 	ldr.w	r7, [sp], #4
 8001a82:	4770      	bx	lr

08001a84 <LL_ADC_IsDeepPowerDownEnabled>:
 8001a84:	b480      	push	{r7}
 8001a86:	b083      	sub	sp, #12
 8001a88:	af00      	add	r7, sp, #0
 8001a8a:	6078      	str	r0, [r7, #4]
 8001a8c:	687b      	ldr	r3, [r7, #4]
 8001a8e:	689b      	ldr	r3, [r3, #8]
 8001a90:	f003 5300 	and.w	r3, r3, #536870912	; 0x20000000
 8001a94:	f1b3 5f00 	cmp.w	r3, #536870912	; 0x20000000
 8001a98:	d101      	bne.n	8001a9e <LL_ADC_IsDeepPowerDownEnabled+0x1a>
 8001a9a:	2301      	movs	r3, #1
 8001a9c:	e000      	b.n	8001aa0 <LL_ADC_IsDeepPowerDownEnabled+0x1c>
 8001a9e:	2300      	movs	r3, #0
 8001aa0:	4618      	mov	r0, r3
 8001aa2:	370c      	adds	r7, #12
 8001aa4:	46bd      	mov	sp, r7
 8001aa6:	f85d 7b04 	ldr.w	r7, [sp], #4
 8001aaa:	4770      	bx	lr

08001aac <LL_ADC_EnableInternalRegulator>:
 8001aac:	b480      	push	{r7}
 8001aae:	b083      	sub	sp, #12
 8001ab0:	af00      	add	r7, sp, #0
 8001ab2:	6078      	str	r0, [r7, #4]
 8001ab4:	687b      	ldr	r3, [r7, #4]
 8001ab6:	689b      	ldr	r3, [r3, #8]
 8001ab8:	f023 4310 	bic.w	r3, r3, #2415919104	; 0x90000000
 8001abc:	f023 033f 	bic.w	r3, r3, #63	; 0x3f
 8001ac0:	f043 5280 	orr.w	r2, r3, #268435456	; 0x10000000
 8001ac4:	687b      	ldr	r3, [r7, #4]
 8001ac6:	609a      	str	r2, [r3, #8]
 8001ac8:	bf00      	nop
 8001aca:	370c      	adds	r7, #12
 8001acc:	46bd      	mov	sp, r7
 8001ace:	f85d 7b04 	ldr.w	r7, [sp], #4
 8001ad2:	4770      	bx	lr

08001ad4 <LL_ADC_IsInternalRegulatorEnabled>:
 8001ad4:	b480      	push	{r7}
 8001ad6:	b083      	sub	sp, #12
 8001ad8:	af00      	add	r7, sp, #0
 8001ada:	6078      	str	r0, [r7, #4]
 8001adc:	687b      	ldr	r3, [r7, #4]
 8001ade:	689b      	ldr	r3, [r3, #8]
 8001ae0:	f003 5380 	and.w	r3, r3, #268435456	; 0x10000000
 8001ae4:	f1b3 5f80 	cmp.w	r3, #268435456	; 0x10000000
 8001ae8:	d101      	bne.n	8001aee <LL_ADC_IsInternalRegulatorEnabled+0x1a>
 8001aea:	2301      	movs	r3, #1
 8001aec:	e000      	b.n	8001af0 <LL_ADC_IsInternalRegulatorEnabled+0x1c>
 8001aee:	2300      	movs	r3, #0
 8001af0:	4618      	mov	r0, r3
 8001af2:	370c      	adds	r7, #12
 8001af4:	46bd      	mov	sp, r7
 8001af6:	f85d 7b04 	ldr.w	r7, [sp], #4
 8001afa:	4770      	bx	lr

08001afc <LL_ADC_Enable>:
 8001afc:	b480      	push	{r7}
 8001afe:	b083      	sub	sp, #12
 8001b00:	af00      	add	r7, sp, #0
 8001b02:	6078      	str	r0, [r7, #4]
 8001b04:	687b      	ldr	r3, [r7, #4]
 8001b06:	689b      	ldr	r3, [r3, #8]
 8001b08:	f023 4300 	bic.w	r3, r3, #2147483648	; 0x80000000
 8001b0c:	f023 033f 	bic.w	r3, r3, #63	; 0x3f
 8001b10:	f043 0201 	orr.w	r2, r3, #1
 8001b14:	687b      	ldr	r3, [r7, #4]
 8001b16:	609a      	str	r2, [r3, #8]
 8001b18:	bf00      	nop
 8001b1a:	370c      	adds	r7, #12
 8001b1c:	46bd      	mov	sp, r7
 8001b1e:	f85d 7b04 	ldr.w	r7, [sp], #4
 8001b22:	4770      	bx	lr

08001b24 <LL_ADC_Disable>:
 8001b24:	b480      	push	{r7}
 8001b26:	b083      	sub	sp, #12
 8001b28:	af00      	add	r7, sp, #0
 8001b2a:	6078      	str	r0, [r7, #4]
 8001b2c:	687b      	ldr	r3, [r7, #4]
 8001b2e:	689b      	ldr	r3, [r3, #8]
 8001b30:	f023 4300 	bic.w	r3, r3, #2147483648	; 0x80000000
 8001b34:	f023 033f 	bic.w	r3, r3, #63	; 0x3f
 8001b38:	f043 0202 	orr.w	r2, r3, #2
 8001b3c:	687b      	ldr	r3, [r7, #4]
 8001b3e:	609a      	str	r2, [r3, #8]
 8001b40:	bf00      	nop
 8001b42:	370c      	adds	r7, #12
 8001b44:	46bd      	mov	sp, r7
 8001b46:	f85d 7b04 	ldr.w	r7, [sp], #4
 8001b4a:	4770      	bx	lr

08001b4c <LL_ADC_IsEnabled>:
 8001b4c:	b480      	push	{r7}
 8001b4e:	b083      	sub	sp, #12
 8001b50:	af00      	add	r7, sp, #0
 8001b52:	6078      	str	r0, [r7, #4]
 8001b54:	687b      	ldr	r3, [r7, #4]
 8001b56:	689b      	ldr	r3, [r3, #8]
 8001b58:	f003 0301 	and.w	r3, r3, #1
 8001b5c:	2b01      	cmp	r3, #1
 8001b5e:	d101      	bne.n	8001b64 <LL_ADC_IsEnabled+0x18>
 8001b60:	2301      	movs	r3, #1
 8001b62:	e000      	b.n	8001b66 <LL_ADC_IsEnabled+0x1a>
 8001b64:	2300      	movs	r3, #0
 8001b66:	4618      	mov	r0, r3
 8001b68:	370c      	adds	r7, #12
 8001b6a:	46bd      	mov	sp, r7
 8001b6c:	f85d 7b04 	ldr.w	r7, [sp], #4
 8001b70:	4770      	bx	lr

08001b72 <LL_ADC_IsDisableOngoing>:
 8001b72:	b480      	push	{r7}
 8001b74:	b083      	sub	sp, #12
 8001b76:	af00      	add	r7, sp, #0
 8001b78:	6078      	str	r0, [r7, #4]
 8001b7a:	687b      	ldr	r3, [r7, #4]
 8001b7c:	689b      	ldr	r3, [r3, #8]
 8001b7e:	f003 0302 	and.w	r3, r3, #2
 8001b82:	2b02      	cmp	r3, #2
 8001b84:	d101      	bne.n	8001b8a <LL_ADC_IsDisableOngoing+0x18>
 8001b86:	2301      	movs	r3, #1
 8001b88:	e000      	b.n	8001b8c <LL_ADC_IsDisableOngoing+0x1a>
 8001b8a:	2300      	movs	r3, #0
 8001b8c:	4618      	mov	r0, r3
 8001b8e:	370c      	adds	r7, #12
 8001b90:	46bd      	mov	sp, r7
 8001b92:	f85d 7b04 	ldr.w	r7, [sp], #4
 8001b96:	4770      	bx	lr

08001b98 <LL_ADC_REG_StartConversion>:
 8001b98:	b480      	push	{r7}
 8001b9a:	b083      	sub	sp, #12
 8001b9c:	af00      	add	r7, sp, #0
 8001b9e:	6078      	str	r0, [r7, #4]
 8001ba0:	687b      	ldr	r3, [r7, #4]
 8001ba2:	689b      	ldr	r3, [r3, #8]
 8001ba4:	f023 4300 	bic.w	r3, r3, #2147483648	; 0x80000000
 8001ba8:	f023 033f 	bic.w	r3, r3, #63	; 0x3f
 8001bac:	f043 0204 	orr.w	r2, r3, #4
 8001bb0:	687b      	ldr	r3, [r7, #4]
 8001bb2:	609a      	str	r2, [r3, #8]
 8001bb4:	bf00      	nop
 8001bb6:	370c      	adds	r7, #12
 8001bb8:	46bd      	mov	sp, r7
 8001bba:	f85d 7b04 	ldr.w	r7, [sp], #4
 8001bbe:	4770      	bx	lr

08001bc0 <LL_ADC_REG_StopConversion>:
 8001bc0:	b480      	push	{r7}
 8001bc2:	b083      	sub	sp, #12
 8001bc4:	af00      	add	r7, sp, #0
 8001bc6:	6078      	str	r0, [r7, #4]
 8001bc8:	687b      	ldr	r3, [r7, #4]
 8001bca:	689b      	ldr	r3, [r3, #8]
 8001bcc:	f023 4300 	bic.w	r3, r3, #2147483648	; 0x80000000
 8001bd0:	f023 033f 	bic.w	r3, r3, #63	; 0x3f
 8001bd4:	f043 0210 	orr.w	r2, r3, #16
 8001bd8:	687b      	ldr	r3, [r7, #4]
 8001bda:	609a      	str	r2, [r3, #8]
 8001bdc:	bf00      	nop
 8001bde:	370c      	adds	r7, #12
 8001be0:	46bd      	mov	sp, r7
 8001be2:	f85d 7b04 	ldr.w	r7, [sp], #4
 8001be6:	4770      	bx	lr

08001be8 <LL_ADC_REG_IsConversionOngoing>:
 8001be8:	b480      	push	{r7}
 8001bea:	b083      	sub	sp, #12
 8001bec:	af00      	add	r7, sp, #0
 8001bee:	6078      	str	r0, [r7, #4]
 8001bf0:	687b      	ldr	r3, [r7, #4]
 8001bf2:	689b      	ldr	r3, [r3, #8]
 8001bf4:	f003 0304 	and.w	r3, r3, #4
 8001bf8:	2b04      	cmp	r3, #4
 8001bfa:	d101      	bne.n	8001c00 <LL_ADC_REG_IsConversionOngoing+0x18>
 8001bfc:	2301      	movs	r3, #1
 8001bfe:	e000      	b.n	8001c02 <LL_ADC_REG_IsConversionOngoing+0x1a>
 8001c00:	2300      	movs	r3, #0
 8001c02:	4618      	mov	r0, r3
 8001c04:	370c      	adds	r7, #12
 8001c06:	46bd      	mov	sp, r7
 8001c08:	f85d 7b04 	ldr.w	r7, [sp], #4
 8001c0c:	4770      	bx	lr

08001c0e <LL_ADC_INJ_StopConversion>:
 8001c0e:	b480      	push	{r7}
 8001c10:	b083      	sub	sp, #12
 8001c12:	af00      	add	r7, sp, #0
 8001c14:	6078      	str	r0, [r7, #4]
 8001c16:	687b      	ldr	r3, [r7, #4]
 8001c18:	689b      	ldr	r3, [r3, #8]
 8001c1a:	f023 4300 	bic.w	r3, r3, #2147483648	; 0x80000000
 8001c1e:	f023 033f 	bic.w	r3, r3, #63	; 0x3f
 8001c22:	f043 0220 	orr.w	r2, r3, #32
 8001c26:	687b      	ldr	r3, [r7, #4]
 8001c28:	609a      	str	r2, [r3, #8]
 8001c2a:	bf00      	nop
 8001c2c:	370c      	adds	r7, #12
 8001c2e:	46bd      	mov	sp, r7
 8001c30:	f85d 7b04 	ldr.w	r7, [sp], #4
 8001c34:	4770      	bx	lr

08001c36 <LL_ADC_INJ_IsConversionOngoing>:
 8001c36:	b480      	push	{r7}
 8001c38:	b083      	sub	sp, #12
 8001c3a:	af00      	add	r7, sp, #0
 8001c3c:	6078      	str	r0, [r7, #4]
 8001c3e:	687b      	ldr	r3, [r7, #4]
 8001c40:	689b      	ldr	r3, [r3, #8]
 8001c42:	f003 0308 	and.w	r3, r3, #8
 8001c46:	2b08      	cmp	r3, #8
 8001c48:	d101      	bne.n	8001c4e <LL_ADC_INJ_IsConversionOngoing+0x18>
 8001c4a:	2301      	movs	r3, #1
 8001c4c:	e000      	b.n	8001c50 <LL_ADC_INJ_IsConversionOngoing+0x1a>
 8001c4e:	2300      	movs	r3, #0
 8001c50:	4618      	mov	r0, r3
 8001c52:	370c      	adds	r7, #12
 8001c54:	46bd      	mov	sp, r7
 8001c56:	f85d 7b04 	ldr.w	r7, [sp], #4
 8001c5a:	4770      	bx	lr

08001c5c <HAL_ADC_Init>:
 8001c5c:	b590      	push	{r4, r7, lr}
 8001c5e:	b089      	sub	sp, #36	; 0x24
 8001c60:	af00      	add	r7, sp, #0
 8001c62:	6078      	str	r0, [r7, #4]
 8001c64:	2300      	movs	r3, #0
 8001c66:	77fb      	strb	r3, [r7, #31]
 8001c68:	2300      	movs	r3, #0
 8001c6a:	60bb      	str	r3, [r7, #8]
 8001c6c:	687b      	ldr	r3, [r7, #4]
 8001c6e:	2b00      	cmp	r3, #0
 8001c70:	d101      	bne.n	8001c76 <HAL_ADC_Init+0x1a>
 8001c72:	2301      	movs	r3, #1
 8001c74:	e134      	b.n	8001ee0 <HAL_ADC_Init+0x284>
 8001c76:	687b      	ldr	r3, [r7, #4]
 8001c78:	691b      	ldr	r3, [r3, #16]
 8001c7a:	2b00      	cmp	r3, #0
 8001c7c:	687b      	ldr	r3, [r7, #4]
 8001c7e:	6d5b      	ldr	r3, [r3, #84]	; 0x54
 8001c80:	2b00      	cmp	r3, #0
 8001c82:	d109      	bne.n	8001c98 <HAL_ADC_Init+0x3c>
 8001c84:	6878      	ldr	r0, [r7, #4]
 8001c86:	f7ff f969 	bl	8000f5c <HAL_ADC_MspInit>
 8001c8a:	687b      	ldr	r3, [r7, #4]
 8001c8c:	2200      	movs	r2, #0
 8001c8e:	659a      	str	r2, [r3, #88]	; 0x58
 8001c90:	687b      	ldr	r3, [r7, #4]
 8001c92:	2200      	movs	r2, #0
 8001c94:	f883 2050 	strb.w	r2, [r3, #80]	; 0x50
 8001c98:	687b      	ldr	r3, [r7, #4]
 8001c9a:	681b      	ldr	r3, [r3, #0]
 8001c9c:	4618      	mov	r0, r3
 8001c9e:	f7ff fef1 	bl	8001a84 <LL_ADC_IsDeepPowerDownEnabled>
 8001ca2:	4603      	mov	r3, r0
 8001ca4:	2b00      	cmp	r3, #0
 8001ca6:	d004      	beq.n	8001cb2 <HAL_ADC_Init+0x56>
 8001ca8:	687b      	ldr	r3, [r7, #4]
 8001caa:	681b      	ldr	r3, [r3, #0]
 8001cac:	4618      	mov	r0, r3
 8001cae:	f7ff fed7 	bl	8001a60 <LL_ADC_DisableDeepPowerDown>
 8001cb2:	687b      	ldr	r3, [r7, #4]
 8001cb4:	681b      	ldr	r3, [r3, #0]
 8001cb6:	4618      	mov	r0, r3
 8001cb8:	f7ff ff0c 	bl	8001ad4 <LL_ADC_IsInternalRegulatorEnabled>
 8001cbc:	4603      	mov	r3, r0
 8001cbe:	2b00      	cmp	r3, #0
 8001cc0:	d113      	bne.n	8001cea <HAL_ADC_Init+0x8e>
 8001cc2:	687b      	ldr	r3, [r7, #4]
 8001cc4:	681b      	ldr	r3, [r3, #0]
 8001cc6:	4618      	mov	r0, r3
 8001cc8:	f7ff fef0 	bl	8001aac <LL_ADC_EnableInternalRegulator>
 8001ccc:	4b86      	ldr	r3, [pc, #536]	; (8001ee8 <HAL_ADC_Init+0x28c>)
 8001cce:	681b      	ldr	r3, [r3, #0]
 8001cd0:	099b      	lsrs	r3, r3, #6
 8001cd2:	4a86      	ldr	r2, [pc, #536]	; (8001eec <HAL_ADC_Init+0x290>)
 8001cd4:	fba2 2303 	umull	r2, r3, r2, r3
 8001cd8:	099b      	lsrs	r3, r3, #6
 8001cda:	60bb      	str	r3, [r7, #8]
 8001cdc:	e002      	b.n	8001ce4 <HAL_ADC_Init+0x88>
 8001cde:	68bb      	ldr	r3, [r7, #8]
 8001ce0:	3b01      	subs	r3, #1
 8001ce2:	60bb      	str	r3, [r7, #8]
 8001ce4:	68bb      	ldr	r3, [r7, #8]
 8001ce6:	2b00      	cmp	r3, #0
 8001ce8:	d1f9      	bne.n	8001cde <HAL_ADC_Init+0x82>
 8001cea:	687b      	ldr	r3, [r7, #4]
 8001cec:	681b      	ldr	r3, [r3, #0]
 8001cee:	4618      	mov	r0, r3
 8001cf0:	f7ff fef0 	bl	8001ad4 <LL_ADC_IsInternalRegulatorEnabled>
 8001cf4:	4603      	mov	r3, r0
 8001cf6:	2b00      	cmp	r3, #0
 8001cf8:	d10d      	bne.n	8001d16 <HAL_ADC_Init+0xba>
 8001cfa:	687b      	ldr	r3, [r7, #4]
 8001cfc:	6d5b      	ldr	r3, [r3, #84]	; 0x54
 8001cfe:	f043 0210 	orr.w	r2, r3, #16
 8001d02:	687b      	ldr	r3, [r7, #4]
 8001d04:	655a      	str	r2, [r3, #84]	; 0x54
 8001d06:	687b      	ldr	r3, [r7, #4]
 8001d08:	6d9b      	ldr	r3, [r3, #88]	; 0x58
 8001d0a:	f043 0201 	orr.w	r2, r3, #1
 8001d0e:	687b      	ldr	r3, [r7, #4]
 8001d10:	659a      	str	r2, [r3, #88]	; 0x58
 8001d12:	2301      	movs	r3, #1
 8001d14:	77fb      	strb	r3, [r7, #31]
 8001d16:	687b      	ldr	r3, [r7, #4]
 8001d18:	681b      	ldr	r3, [r3, #0]
 8001d1a:	4618      	mov	r0, r3
 8001d1c:	f7ff ff64 	bl	8001be8 <LL_ADC_REG_IsConversionOngoing>
 8001d20:	6178      	str	r0, [r7, #20]
 8001d22:	687b      	ldr	r3, [r7, #4]
 8001d24:	6d5b      	ldr	r3, [r3, #84]	; 0x54
 8001d26:	f003 0310 	and.w	r3, r3, #16
 8001d2a:	2b00      	cmp	r3, #0
 8001d2c:	f040 80cf 	bne.w	8001ece <HAL_ADC_Init+0x272>
 8001d30:	697b      	ldr	r3, [r7, #20]
 8001d32:	2b00      	cmp	r3, #0
 8001d34:	f040 80cb 	bne.w	8001ece <HAL_ADC_Init+0x272>
 8001d38:	687b      	ldr	r3, [r7, #4]
 8001d3a:	6d5b      	ldr	r3, [r3, #84]	; 0x54
 8001d3c:	f423 7381 	bic.w	r3, r3, #258	; 0x102
 8001d40:	f043 0202 	orr.w	r2, r3, #2
 8001d44:	687b      	ldr	r3, [r7, #4]
 8001d46:	655a      	str	r2, [r3, #84]	; 0x54
 8001d48:	687b      	ldr	r3, [r7, #4]
 8001d4a:	681b      	ldr	r3, [r3, #0]
 8001d4c:	4618      	mov	r0, r3
 8001d4e:	f7ff fefd 	bl	8001b4c <LL_ADC_IsEnabled>
 8001d52:	4603      	mov	r3, r0
 8001d54:	2b00      	cmp	r3, #0
 8001d56:	d115      	bne.n	8001d84 <HAL_ADC_Init+0x128>
 8001d58:	4865      	ldr	r0, [pc, #404]	; (8001ef0 <HAL_ADC_Init+0x294>)
 8001d5a:	f7ff fef7 	bl	8001b4c <LL_ADC_IsEnabled>
 8001d5e:	4604      	mov	r4, r0
 8001d60:	4864      	ldr	r0, [pc, #400]	; (8001ef4 <HAL_ADC_Init+0x298>)
 8001d62:	f7ff fef3 	bl	8001b4c <LL_ADC_IsEnabled>
 8001d66:	4603      	mov	r3, r0
 8001d68:	431c      	orrs	r4, r3
 8001d6a:	4863      	ldr	r0, [pc, #396]	; (8001ef8 <HAL_ADC_Init+0x29c>)
 8001d6c:	f7ff feee 	bl	8001b4c <LL_ADC_IsEnabled>
 8001d70:	4603      	mov	r3, r0
 8001d72:	4323      	orrs	r3, r4
 8001d74:	2b00      	cmp	r3, #0
 8001d76:	d105      	bne.n	8001d84 <HAL_ADC_Init+0x128>
 8001d78:	687b      	ldr	r3, [r7, #4]
 8001d7a:	685b      	ldr	r3, [r3, #4]
 8001d7c:	4619      	mov	r1, r3
 8001d7e:	485f      	ldr	r0, [pc, #380]	; (8001efc <HAL_ADC_Init+0x2a0>)
 8001d80:	f7ff fd34 	bl	80017ec <LL_ADC_SetCommonClock>
 8001d84:	687b      	ldr	r3, [r7, #4]
 8001d86:	7e5b      	ldrb	r3, [r3, #25]
 8001d88:	035a      	lsls	r2, r3, #13
 8001d8a:	687b      	ldr	r3, [r7, #4]
 8001d8c:	6b5b      	ldr	r3, [r3, #52]	; 0x34
 8001d8e:	431a      	orrs	r2, r3
 8001d90:	687b      	ldr	r3, [r7, #4]
 8001d92:	68db      	ldr	r3, [r3, #12]
 8001d94:	431a      	orrs	r2, r3
 8001d96:	687b      	ldr	r3, [r7, #4]
 8001d98:	689b      	ldr	r3, [r3, #8]
 8001d9a:	431a      	orrs	r2, r3
 8001d9c:	687b      	ldr	r3, [r7, #4]
 8001d9e:	f893 3020 	ldrb.w	r3, [r3, #32]
 8001da2:	041b      	lsls	r3, r3, #16
 8001da4:	4313      	orrs	r3, r2
 8001da6:	61bb      	str	r3, [r7, #24]
 8001da8:	687b      	ldr	r3, [r7, #4]
 8001daa:	f893 3020 	ldrb.w	r3, [r3, #32]
 8001dae:	2b01      	cmp	r3, #1
 8001db0:	d106      	bne.n	8001dc0 <HAL_ADC_Init+0x164>
 8001db2:	687b      	ldr	r3, [r7, #4]
 8001db4:	6a5b      	ldr	r3, [r3, #36]	; 0x24
 8001db6:	3b01      	subs	r3, #1
 8001db8:	045b      	lsls	r3, r3, #17
 8001dba:	69ba      	ldr	r2, [r7, #24]
 8001dbc:	4313      	orrs	r3, r2
 8001dbe:	61bb      	str	r3, [r7, #24]
 8001dc0:	687b      	ldr	r3, [r7, #4]
 8001dc2:	6a9b      	ldr	r3, [r3, #40]	; 0x28
 8001dc4:	2b00      	cmp	r3, #0
 8001dc6:	d009      	beq.n	8001ddc <HAL_ADC_Init+0x180>
 8001dc8:	687b      	ldr	r3, [r7, #4]
 8001dca:	6a9b      	ldr	r3, [r3, #40]	; 0x28
 8001dcc:	f403 7270 	and.w	r2, r3, #960	; 0x3c0
 8001dd0:	687b      	ldr	r3, [r7, #4]
 8001dd2:	6adb      	ldr	r3, [r3, #44]	; 0x2c
 8001dd4:	4313      	orrs	r3, r2
 8001dd6:	69ba      	ldr	r2, [r7, #24]
 8001dd8:	4313      	orrs	r3, r2
 8001dda:	61bb      	str	r3, [r7, #24]
 8001ddc:	687b      	ldr	r3, [r7, #4]
 8001dde:	681b      	ldr	r3, [r3, #0]
 8001de0:	68da      	ldr	r2, [r3, #12]
 8001de2:	4b47      	ldr	r3, [pc, #284]	; (8001f00 <HAL_ADC_Init+0x2a4>)
 8001de4:	4013      	ands	r3, r2
 8001de6:	687a      	ldr	r2, [r7, #4]
 8001de8:	6812      	ldr	r2, [r2, #0]
 8001dea:	69b9      	ldr	r1, [r7, #24]
 8001dec:	430b      	orrs	r3, r1
 8001dee:	60d3      	str	r3, [r2, #12]
 8001df0:	687b      	ldr	r3, [r7, #4]
 8001df2:	681b      	ldr	r3, [r3, #0]
 8001df4:	4618      	mov	r0, r3
 8001df6:	f7ff fef7 	bl	8001be8 <LL_ADC_REG_IsConversionOngoing>
 8001dfa:	6138      	str	r0, [r7, #16]
 8001dfc:	687b      	ldr	r3, [r7, #4]
 8001dfe:	681b      	ldr	r3, [r3, #0]
 8001e00:	4618      	mov	r0, r3
 8001e02:	f7ff ff18 	bl	8001c36 <LL_ADC_INJ_IsConversionOngoing>
 8001e06:	60f8      	str	r0, [r7, #12]
 8001e08:	693b      	ldr	r3, [r7, #16]
 8001e0a:	2b00      	cmp	r3, #0
 8001e0c:	d13d      	bne.n	8001e8a <HAL_ADC_Init+0x22e>
 8001e0e:	68fb      	ldr	r3, [r7, #12]
 8001e10:	2b00      	cmp	r3, #0
 8001e12:	d13a      	bne.n	8001e8a <HAL_ADC_Init+0x22e>
 8001e14:	687b      	ldr	r3, [r7, #4]
 8001e16:	7e1b      	ldrb	r3, [r3, #24]
 8001e18:	039a      	lsls	r2, r3, #14
 8001e1a:	687b      	ldr	r3, [r7, #4]
 8001e1c:	f893 3030 	ldrb.w	r3, [r3, #48]	; 0x30
 8001e20:	005b      	lsls	r3, r3, #1
 8001e22:	4313      	orrs	r3, r2
 8001e24:	61bb      	str	r3, [r7, #24]
 8001e26:	687b      	ldr	r3, [r7, #4]
 8001e28:	681b      	ldr	r3, [r3, #0]
 8001e2a:	68db      	ldr	r3, [r3, #12]
 8001e2c:	f423 4380 	bic.w	r3, r3, #16384	; 0x4000
 8001e30:	f023 0302 	bic.w	r3, r3, #2
 8001e34:	687a      	ldr	r2, [r7, #4]
 8001e36:	6812      	ldr	r2, [r2, #0]
 8001e38:	69b9      	ldr	r1, [r7, #24]
 8001e3a:	430b      	orrs	r3, r1
 8001e3c:	60d3      	str	r3, [r2, #12]
 8001e3e:	687b      	ldr	r3, [r7, #4]
 8001e40:	f893 3038 	ldrb.w	r3, [r3, #56]	; 0x38
 8001e44:	2b01      	cmp	r3, #1
 8001e46:	d118      	bne.n	8001e7a <HAL_ADC_Init+0x21e>
 8001e48:	687b      	ldr	r3, [r7, #4]
 8001e4a:	681b      	ldr	r3, [r3, #0]
 8001e4c:	691b      	ldr	r3, [r3, #16]
 8001e4e:	f423 63ff 	bic.w	r3, r3, #2040	; 0x7f8
 8001e52:	f023 0304 	bic.w	r3, r3, #4
 8001e56:	687a      	ldr	r2, [r7, #4]
 8001e58:	6bd1      	ldr	r1, [r2, #60]	; 0x3c
 8001e5a:	687a      	ldr	r2, [r7, #4]
 8001e5c:	6c12      	ldr	r2, [r2, #64]	; 0x40
 8001e5e:	4311      	orrs	r1, r2
 8001e60:	687a      	ldr	r2, [r7, #4]
 8001e62:	6c52      	ldr	r2, [r2, #68]	; 0x44
 8001e64:	4311      	orrs	r1, r2
 8001e66:	687a      	ldr	r2, [r7, #4]
 8001e68:	6c92      	ldr	r2, [r2, #72]	; 0x48
 8001e6a:	430a      	orrs	r2, r1
 8001e6c:	431a      	orrs	r2, r3
 8001e6e:	687b      	ldr	r3, [r7, #4]
 8001e70:	681b      	ldr	r3, [r3, #0]
 8001e72:	f042 0201 	orr.w	r2, r2, #1
 8001e76:	611a      	str	r2, [r3, #16]
 8001e78:	e007      	b.n	8001e8a <HAL_ADC_Init+0x22e>
 8001e7a:	687b      	ldr	r3, [r7, #4]
 8001e7c:	681b      	ldr	r3, [r3, #0]
 8001e7e:	691a      	ldr	r2, [r3, #16]
 8001e80:	687b      	ldr	r3, [r7, #4]
 8001e82:	681b      	ldr	r3, [r3, #0]
 8001e84:	f022 0201 	bic.w	r2, r2, #1
 8001e88:	611a      	str	r2, [r3, #16]
 8001e8a:	687b      	ldr	r3, [r7, #4]
 8001e8c:	691b      	ldr	r3, [r3, #16]
 8001e8e:	2b01      	cmp	r3, #1
 8001e90:	d10c      	bne.n	8001eac <HAL_ADC_Init+0x250>
 8001e92:	687b      	ldr	r3, [r7, #4]
 8001e94:	681b      	ldr	r3, [r3, #0]
 8001e96:	6b1b      	ldr	r3, [r3, #48]	; 0x30
 8001e98:	f023 010f 	bic.w	r1, r3, #15
 8001e9c:	687b      	ldr	r3, [r7, #4]
 8001e9e:	69db      	ldr	r3, [r3, #28]
 8001ea0:	1e5a      	subs	r2, r3, #1
 8001ea2:	687b      	ldr	r3, [r7, #4]
 8001ea4:	681b      	ldr	r3, [r3, #0]
 8001ea6:	430a      	orrs	r2, r1
 8001ea8:	631a      	str	r2, [r3, #48]	; 0x30
 8001eaa:	e007      	b.n	8001ebc <HAL_ADC_Init+0x260>
 8001eac:	687b      	ldr	r3, [r7, #4]
 8001eae:	681b      	ldr	r3, [r3, #0]
 8001eb0:	6b1a      	ldr	r2, [r3, #48]	; 0x30
 8001eb2:	687b      	ldr	r3, [r7, #4]
 8001eb4:	681b      	ldr	r3, [r3, #0]
 8001eb6:	f022 020f 	bic.w	r2, r2, #15
 8001eba:	631a      	str	r2, [r3, #48]	; 0x30
 8001ebc:	687b      	ldr	r3, [r7, #4]
 8001ebe:	6d5b      	ldr	r3, [r3, #84]	; 0x54
 8001ec0:	f023 0303 	bic.w	r3, r3, #3
 8001ec4:	f043 0201 	orr.w	r2, r3, #1
 8001ec8:	687b      	ldr	r3, [r7, #4]
 8001eca:	655a      	str	r2, [r3, #84]	; 0x54
 8001ecc:	e007      	b.n	8001ede <HAL_ADC_Init+0x282>
 8001ece:	687b      	ldr	r3, [r7, #4]
 8001ed0:	6d5b      	ldr	r3, [r3, #84]	; 0x54
 8001ed2:	f043 0210 	orr.w	r2, r3, #16
 8001ed6:	687b      	ldr	r3, [r7, #4]
 8001ed8:	655a      	str	r2, [r3, #84]	; 0x54
 8001eda:	2301      	movs	r3, #1
 8001edc:	77fb      	strb	r3, [r7, #31]
 8001ede:	7ffb      	ldrb	r3, [r7, #31]
 8001ee0:	4618      	mov	r0, r3
 8001ee2:	3724      	adds	r7, #36	; 0x24
 8001ee4:	46bd      	mov	sp, r7
 8001ee6:	bd90      	pop	{r4, r7, pc}
 8001ee8:	20000000 	.word	0x20000000
 8001eec:	053e2d63 	.word	0x053e2d63
 8001ef0:	50040000 	.word	0x50040000
 8001ef4:	50040100 	.word	0x50040100
 8001ef8:	50040200 	.word	0x50040200
 8001efc:	50040300 	.word	0x50040300
 8001f00:	fff0c007 	.word	0xfff0c007

08001f04 <HAL_ADC_Start>:
 8001f04:	b580      	push	{r7, lr}
 8001f06:	b086      	sub	sp, #24
 8001f08:	af00      	add	r7, sp, #0
 8001f0a:	6078      	str	r0, [r7, #4]
 8001f0c:	4857      	ldr	r0, [pc, #348]	; (800206c <HAL_ADC_Start+0x168>)
 8001f0e:	f7ff fd8b 	bl	8001a28 <LL_ADC_GetMultimode>
 8001f12:	6138      	str	r0, [r7, #16]
 8001f14:	687b      	ldr	r3, [r7, #4]
 8001f16:	681b      	ldr	r3, [r3, #0]
 8001f18:	4618      	mov	r0, r3
 8001f1a:	f7ff fe65 	bl	8001be8 <LL_ADC_REG_IsConversionOngoing>
 8001f1e:	4603      	mov	r3, r0
 8001f20:	2b00      	cmp	r3, #0
 8001f22:	f040 809c 	bne.w	800205e <HAL_ADC_Start+0x15a>
 8001f26:	687b      	ldr	r3, [r7, #4]
 8001f28:	f893 3050 	ldrb.w	r3, [r3, #80]	; 0x50
 8001f2c:	2b01      	cmp	r3, #1
 8001f2e:	d101      	bne.n	8001f34 <HAL_ADC_Start+0x30>
 8001f30:	2302      	movs	r3, #2
 8001f32:	e097      	b.n	8002064 <HAL_ADC_Start+0x160>
 8001f34:	687b      	ldr	r3, [r7, #4]
 8001f36:	2201      	movs	r2, #1
 8001f38:	f883 2050 	strb.w	r2, [r3, #80]	; 0x50
 8001f3c:	6878      	ldr	r0, [r7, #4]
 8001f3e:	f000 fffd 	bl	8002f3c <ADC_Enable>
 8001f42:	4603      	mov	r3, r0
 8001f44:	75fb      	strb	r3, [r7, #23]
 8001f46:	7dfb      	ldrb	r3, [r7, #23]
 8001f48:	2b00      	cmp	r3, #0
 8001f4a:	f040 8083 	bne.w	8002054 <HAL_ADC_Start+0x150>
 8001f4e:	687b      	ldr	r3, [r7, #4]
 8001f50:	6d5b      	ldr	r3, [r3, #84]	; 0x54
 8001f52:	f423 6370 	bic.w	r3, r3, #3840	; 0xf00
 8001f56:	f023 0301 	bic.w	r3, r3, #1
 8001f5a:	f443 7280 	orr.w	r2, r3, #256	; 0x100
 8001f5e:	687b      	ldr	r3, [r7, #4]
 8001f60:	655a      	str	r2, [r3, #84]	; 0x54
 8001f62:	687b      	ldr	r3, [r7, #4]
 8001f64:	681b      	ldr	r3, [r3, #0]
 8001f66:	4a42      	ldr	r2, [pc, #264]	; (8002070 <HAL_ADC_Start+0x16c>)
 8001f68:	4293      	cmp	r3, r2
 8001f6a:	d002      	beq.n	8001f72 <HAL_ADC_Start+0x6e>
 8001f6c:	687b      	ldr	r3, [r7, #4]
 8001f6e:	681b      	ldr	r3, [r3, #0]
 8001f70:	e000      	b.n	8001f74 <HAL_ADC_Start+0x70>
 8001f72:	4b40      	ldr	r3, [pc, #256]	; (8002074 <HAL_ADC_Start+0x170>)
 8001f74:	687a      	ldr	r2, [r7, #4]
 8001f76:	6812      	ldr	r2, [r2, #0]
 8001f78:	4293      	cmp	r3, r2
 8001f7a:	d002      	beq.n	8001f82 <HAL_ADC_Start+0x7e>
 8001f7c:	693b      	ldr	r3, [r7, #16]
 8001f7e:	2b00      	cmp	r3, #0
 8001f80:	d105      	bne.n	8001f8e <HAL_ADC_Start+0x8a>
 8001f82:	687b      	ldr	r3, [r7, #4]
 8001f84:	6d5b      	ldr	r3, [r3, #84]	; 0x54
 8001f86:	f423 1280 	bic.w	r2, r3, #1048576	; 0x100000
 8001f8a:	687b      	ldr	r3, [r7, #4]
 8001f8c:	655a      	str	r2, [r3, #84]	; 0x54
 8001f8e:	687b      	ldr	r3, [r7, #4]
 8001f90:	6d5b      	ldr	r3, [r3, #84]	; 0x54
 8001f92:	f403 5380 	and.w	r3, r3, #4096	; 0x1000
 8001f96:	f5b3 5f80 	cmp.w	r3, #4096	; 0x1000
 8001f9a:	d106      	bne.n	8001faa <HAL_ADC_Start+0xa6>
 8001f9c:	687b      	ldr	r3, [r7, #4]
 8001f9e:	6d9b      	ldr	r3, [r3, #88]	; 0x58
 8001fa0:	f023 0206 	bic.w	r2, r3, #6
 8001fa4:	687b      	ldr	r3, [r7, #4]
 8001fa6:	659a      	str	r2, [r3, #88]	; 0x58
 8001fa8:	e002      	b.n	8001fb0 <HAL_ADC_Start+0xac>
 8001faa:	687b      	ldr	r3, [r7, #4]
 8001fac:	2200      	movs	r2, #0
 8001fae:	659a      	str	r2, [r3, #88]	; 0x58
 8001fb0:	687b      	ldr	r3, [r7, #4]
 8001fb2:	681b      	ldr	r3, [r3, #0]
 8001fb4:	221c      	movs	r2, #28
 8001fb6:	601a      	str	r2, [r3, #0]
 8001fb8:	687b      	ldr	r3, [r7, #4]
 8001fba:	2200      	movs	r2, #0
 8001fbc:	f883 2050 	strb.w	r2, [r3, #80]	; 0x50
 8001fc0:	687b      	ldr	r3, [r7, #4]
 8001fc2:	681b      	ldr	r3, [r3, #0]
 8001fc4:	4a2a      	ldr	r2, [pc, #168]	; (8002070 <HAL_ADC_Start+0x16c>)
 8001fc6:	4293      	cmp	r3, r2
 8001fc8:	d002      	beq.n	8001fd0 <HAL_ADC_Start+0xcc>
 8001fca:	687b      	ldr	r3, [r7, #4]
 8001fcc:	681b      	ldr	r3, [r3, #0]
 8001fce:	e000      	b.n	8001fd2 <HAL_ADC_Start+0xce>
 8001fd0:	4b28      	ldr	r3, [pc, #160]	; (8002074 <HAL_ADC_Start+0x170>)
 8001fd2:	687a      	ldr	r2, [r7, #4]
 8001fd4:	6812      	ldr	r2, [r2, #0]
 8001fd6:	4293      	cmp	r3, r2
 8001fd8:	d008      	beq.n	8001fec <HAL_ADC_Start+0xe8>
 8001fda:	693b      	ldr	r3, [r7, #16]
 8001fdc:	2b00      	cmp	r3, #0
 8001fde:	d005      	beq.n	8001fec <HAL_ADC_Start+0xe8>
 8001fe0:	693b      	ldr	r3, [r7, #16]
 8001fe2:	2b05      	cmp	r3, #5
 8001fe4:	d002      	beq.n	8001fec <HAL_ADC_Start+0xe8>
 8001fe6:	693b      	ldr	r3, [r7, #16]
 8001fe8:	2b09      	cmp	r3, #9
 8001fea:	d114      	bne.n	8002016 <HAL_ADC_Start+0x112>
 8001fec:	687b      	ldr	r3, [r7, #4]
 8001fee:	681b      	ldr	r3, [r3, #0]
 8001ff0:	68db      	ldr	r3, [r3, #12]
 8001ff2:	f003 7300 	and.w	r3, r3, #33554432	; 0x2000000
 8001ff6:	2b00      	cmp	r3, #0
 8001ff8:	d007      	beq.n	800200a <HAL_ADC_Start+0x106>
 8001ffa:	687b      	ldr	r3, [r7, #4]
 8001ffc:	6d5b      	ldr	r3, [r3, #84]	; 0x54
 8001ffe:	f423 5340 	bic.w	r3, r3, #12288	; 0x3000
 8002002:	f443 5280 	orr.w	r2, r3, #4096	; 0x1000
 8002006:	687b      	ldr	r3, [r7, #4]
 8002008:	655a      	str	r2, [r3, #84]	; 0x54
 800200a:	687b      	ldr	r3, [r7, #4]
 800200c:	681b      	ldr	r3, [r3, #0]
 800200e:	4618      	mov	r0, r3
 8002010:	f7ff fdc2 	bl	8001b98 <LL_ADC_REG_StartConversion>
 8002014:	e025      	b.n	8002062 <HAL_ADC_Start+0x15e>
 8002016:	687b      	ldr	r3, [r7, #4]
 8002018:	6d5b      	ldr	r3, [r3, #84]	; 0x54
 800201a:	f443 1280 	orr.w	r2, r3, #1048576	; 0x100000
 800201e:	687b      	ldr	r3, [r7, #4]
 8002020:	655a      	str	r2, [r3, #84]	; 0x54
 8002022:	687b      	ldr	r3, [r7, #4]
 8002024:	681b      	ldr	r3, [r3, #0]
 8002026:	4a12      	ldr	r2, [pc, #72]	; (8002070 <HAL_ADC_Start+0x16c>)
 8002028:	4293      	cmp	r3, r2
 800202a:	d002      	beq.n	8002032 <HAL_ADC_Start+0x12e>
 800202c:	687b      	ldr	r3, [r7, #4]
 800202e:	681b      	ldr	r3, [r3, #0]
 8002030:	e000      	b.n	8002034 <HAL_ADC_Start+0x130>
 8002032:	4b10      	ldr	r3, [pc, #64]	; (8002074 <HAL_ADC_Start+0x170>)
 8002034:	60fb      	str	r3, [r7, #12]
 8002036:	68fb      	ldr	r3, [r7, #12]
 8002038:	68db      	ldr	r3, [r3, #12]
 800203a:	f003 7300 	and.w	r3, r3, #33554432	; 0x2000000
 800203e:	2b00      	cmp	r3, #0
 8002040:	d00f      	beq.n	8002062 <HAL_ADC_Start+0x15e>
 8002042:	687b      	ldr	r3, [r7, #4]
 8002044:	6d5b      	ldr	r3, [r3, #84]	; 0x54
 8002046:	f423 5340 	bic.w	r3, r3, #12288	; 0x3000
 800204a:	f443 5280 	orr.w	r2, r3, #4096	; 0x1000
 800204e:	687b      	ldr	r3, [r7, #4]
 8002050:	655a      	str	r2, [r3, #84]	; 0x54
 8002052:	e006      	b.n	8002062 <HAL_ADC_Start+0x15e>
 8002054:	687b      	ldr	r3, [r7, #4]
 8002056:	2200      	movs	r2, #0
 8002058:	f883 2050 	strb.w	r2, [r3, #80]	; 0x50
 800205c:	e001      	b.n	8002062 <HAL_ADC_Start+0x15e>
 800205e:	2302      	movs	r3, #2
 8002060:	75fb      	strb	r3, [r7, #23]
 8002062:	7dfb      	ldrb	r3, [r7, #23]
 8002064:	4618      	mov	r0, r3
 8002066:	3718      	adds	r7, #24
 8002068:	46bd      	mov	sp, r7
 800206a:	bd80      	pop	{r7, pc}
 800206c:	50040300 	.word	0x50040300
 8002070:	50040100 	.word	0x50040100
 8002074:	50040000 	.word	0x50040000

08002078 <HAL_ADC_Stop>:
 8002078:	b580      	push	{r7, lr}
 800207a:	b084      	sub	sp, #16
 800207c:	af00      	add	r7, sp, #0
 800207e:	6078      	str	r0, [r7, #4]
 8002080:	687b      	ldr	r3, [r7, #4]
 8002082:	f893 3050 	ldrb.w	r3, [r3, #80]	; 0x50
 8002086:	2b01      	cmp	r3, #1
 8002088:	d101      	bne.n	800208e <HAL_ADC_Stop+0x16>
 800208a:	2302      	movs	r3, #2
 800208c:	e023      	b.n	80020d6 <HAL_ADC_Stop+0x5e>
 800208e:	687b      	ldr	r3, [r7, #4]
 8002090:	2201      	movs	r2, #1
 8002092:	f883 2050 	strb.w	r2, [r3, #80]	; 0x50
 8002096:	2103      	movs	r1, #3
 8002098:	6878      	ldr	r0, [r7, #4]
 800209a:	f000 fe9b 	bl	8002dd4 <ADC_ConversionStop>
 800209e:	4603      	mov	r3, r0
 80020a0:	73fb      	strb	r3, [r7, #15]
 80020a2:	7bfb      	ldrb	r3, [r7, #15]
 80020a4:	2b00      	cmp	r3, #0
 80020a6:	d111      	bne.n	80020cc <HAL_ADC_Stop+0x54>
 80020a8:	6878      	ldr	r0, [r7, #4]
 80020aa:	f000 ffa1 	bl	8002ff0 <ADC_Disable>
 80020ae:	4603      	mov	r3, r0
 80020b0:	73fb      	strb	r3, [r7, #15]
 80020b2:	7bfb      	ldrb	r3, [r7, #15]
 80020b4:	2b00      	cmp	r3, #0
 80020b6:	d109      	bne.n	80020cc <HAL_ADC_Stop+0x54>
 80020b8:	687b      	ldr	r3, [r7, #4]
 80020ba:	6d5b      	ldr	r3, [r3, #84]	; 0x54
 80020bc:	f423 5388 	bic.w	r3, r3, #4352	; 0x1100
 80020c0:	f023 0301 	bic.w	r3, r3, #1
 80020c4:	f043 0201 	orr.w	r2, r3, #1
 80020c8:	687b      	ldr	r3, [r7, #4]
 80020ca:	655a      	str	r2, [r3, #84]	; 0x54
 80020cc:	687b      	ldr	r3, [r7, #4]
 80020ce:	2200      	movs	r2, #0
 80020d0:	f883 2050 	strb.w	r2, [r3, #80]	; 0x50
 80020d4:	7bfb      	ldrb	r3, [r7, #15]
 80020d6:	4618      	mov	r0, r3
 80020d8:	3710      	adds	r7, #16
 80020da:	46bd      	mov	sp, r7
 80020dc:	bd80      	pop	{r7, pc}
	...

080020e0 <HAL_ADC_PollForConversion>:
 80020e0:	b580      	push	{r7, lr}
 80020e2:	b088      	sub	sp, #32
 80020e4:	af00      	add	r7, sp, #0
 80020e6:	6078      	str	r0, [r7, #4]
 80020e8:	6039      	str	r1, [r7, #0]
 80020ea:	4862      	ldr	r0, [pc, #392]	; (8002274 <HAL_ADC_PollForConversion+0x194>)
 80020ec:	f7ff fc9c 	bl	8001a28 <LL_ADC_GetMultimode>
 80020f0:	6178      	str	r0, [r7, #20]
 80020f2:	687b      	ldr	r3, [r7, #4]
 80020f4:	695b      	ldr	r3, [r3, #20]
 80020f6:	2b08      	cmp	r3, #8
 80020f8:	d102      	bne.n	8002100 <HAL_ADC_PollForConversion+0x20>
 80020fa:	2308      	movs	r3, #8
 80020fc:	61fb      	str	r3, [r7, #28]
 80020fe:	e02a      	b.n	8002156 <HAL_ADC_PollForConversion+0x76>
 8002100:	697b      	ldr	r3, [r7, #20]
 8002102:	2b00      	cmp	r3, #0
 8002104:	d005      	beq.n	8002112 <HAL_ADC_PollForConversion+0x32>
 8002106:	697b      	ldr	r3, [r7, #20]
 8002108:	2b05      	cmp	r3, #5
 800210a:	d002      	beq.n	8002112 <HAL_ADC_PollForConversion+0x32>
 800210c:	697b      	ldr	r3, [r7, #20]
 800210e:	2b09      	cmp	r3, #9
 8002110:	d111      	bne.n	8002136 <HAL_ADC_PollForConversion+0x56>
 8002112:	687b      	ldr	r3, [r7, #4]
 8002114:	681b      	ldr	r3, [r3, #0]
 8002116:	68db      	ldr	r3, [r3, #12]
 8002118:	f003 0301 	and.w	r3, r3, #1
 800211c:	2b00      	cmp	r3, #0
 800211e:	d007      	beq.n	8002130 <HAL_ADC_PollForConversion+0x50>
 8002120:	687b      	ldr	r3, [r7, #4]
 8002122:	6d5b      	ldr	r3, [r3, #84]	; 0x54
 8002124:	f043 0220 	orr.w	r2, r3, #32
 8002128:	687b      	ldr	r3, [r7, #4]
 800212a:	655a      	str	r2, [r3, #84]	; 0x54
 800212c:	2301      	movs	r3, #1
 800212e:	e09d      	b.n	800226c <HAL_ADC_PollForConversion+0x18c>
 8002130:	2304      	movs	r3, #4
 8002132:	61fb      	str	r3, [r7, #28]
 8002134:	e00f      	b.n	8002156 <HAL_ADC_PollForConversion+0x76>
 8002136:	484f      	ldr	r0, [pc, #316]	; (8002274 <HAL_ADC_PollForConversion+0x194>)
 8002138:	f7ff fc84 	bl	8001a44 <LL_ADC_GetMultiDMATransfer>
 800213c:	4603      	mov	r3, r0
 800213e:	2b00      	cmp	r3, #0
 8002140:	d007      	beq.n	8002152 <HAL_ADC_PollForConversion+0x72>
 8002142:	687b      	ldr	r3, [r7, #4]
 8002144:	6d5b      	ldr	r3, [r3, #84]	; 0x54
 8002146:	f043 0220 	orr.w	r2, r3, #32
 800214a:	687b      	ldr	r3, [r7, #4]
 800214c:	655a      	str	r2, [r3, #84]	; 0x54
 800214e:	2301      	movs	r3, #1
 8002150:	e08c      	b.n	800226c <HAL_ADC_PollForConversion+0x18c>
 8002152:	2304      	movs	r3, #4
 8002154:	61fb      	str	r3, [r7, #28]
 8002156:	f7ff fb1b 	bl	8001790 <HAL_GetTick>
 800215a:	6138      	str	r0, [r7, #16]
 800215c:	e01a      	b.n	8002194 <HAL_ADC_PollForConversion+0xb4>
 800215e:	683b      	ldr	r3, [r7, #0]
 8002160:	f1b3 3fff 	cmp.w	r3, #4294967295
 8002164:	d016      	beq.n	8002194 <HAL_ADC_PollForConversion+0xb4>
 8002166:	f7ff fb13 	bl	8001790 <HAL_GetTick>
 800216a:	4602      	mov	r2, r0
 800216c:	693b      	ldr	r3, [r7, #16]
 800216e:	1ad3      	subs	r3, r2, r3
 8002170:	683a      	ldr	r2, [r7, #0]
 8002172:	429a      	cmp	r2, r3
 8002174:	d302      	bcc.n	800217c <HAL_ADC_PollForConversion+0x9c>
 8002176:	683b      	ldr	r3, [r7, #0]
 8002178:	2b00      	cmp	r3, #0
 800217a:	d10b      	bne.n	8002194 <HAL_ADC_PollForConversion+0xb4>
 800217c:	687b      	ldr	r3, [r7, #4]
 800217e:	6d5b      	ldr	r3, [r3, #84]	; 0x54
 8002180:	f043 0204 	orr.w	r2, r3, #4
 8002184:	687b      	ldr	r3, [r7, #4]
 8002186:	655a      	str	r2, [r3, #84]	; 0x54
 8002188:	687b      	ldr	r3, [r7, #4]
 800218a:	2200      	movs	r2, #0
 800218c:	f883 2050 	strb.w	r2, [r3, #80]	; 0x50
 8002190:	2303      	movs	r3, #3
 8002192:	e06b      	b.n	800226c <HAL_ADC_PollForConversion+0x18c>
 8002194:	687b      	ldr	r3, [r7, #4]
 8002196:	681b      	ldr	r3, [r3, #0]
 8002198:	681a      	ldr	r2, [r3, #0]
 800219a:	69fb      	ldr	r3, [r7, #28]
 800219c:	4013      	ands	r3, r2
 800219e:	2b00      	cmp	r3, #0
 80021a0:	d0dd      	beq.n	800215e <HAL_ADC_PollForConversion+0x7e>
 80021a2:	687b      	ldr	r3, [r7, #4]
 80021a4:	6d5b      	ldr	r3, [r3, #84]	; 0x54
 80021a6:	f443 7200 	orr.w	r2, r3, #512	; 0x200
 80021aa:	687b      	ldr	r3, [r7, #4]
 80021ac:	655a      	str	r2, [r3, #84]	; 0x54
 80021ae:	687b      	ldr	r3, [r7, #4]
 80021b0:	681b      	ldr	r3, [r3, #0]
 80021b2:	4618      	mov	r0, r3
 80021b4:	f7ff fb9c 	bl	80018f0 <LL_ADC_REG_IsTriggerSourceSWStart>
 80021b8:	4603      	mov	r3, r0
 80021ba:	2b00      	cmp	r3, #0
 80021bc:	d01c      	beq.n	80021f8 <HAL_ADC_PollForConversion+0x118>
 80021be:	687b      	ldr	r3, [r7, #4]
 80021c0:	7e5b      	ldrb	r3, [r3, #25]
 80021c2:	2b00      	cmp	r3, #0
 80021c4:	d118      	bne.n	80021f8 <HAL_ADC_PollForConversion+0x118>
 80021c6:	687b      	ldr	r3, [r7, #4]
 80021c8:	681b      	ldr	r3, [r3, #0]
 80021ca:	681b      	ldr	r3, [r3, #0]
 80021cc:	f003 0308 	and.w	r3, r3, #8
 80021d0:	2b08      	cmp	r3, #8
 80021d2:	d111      	bne.n	80021f8 <HAL_ADC_PollForConversion+0x118>
 80021d4:	687b      	ldr	r3, [r7, #4]
 80021d6:	6d5b      	ldr	r3, [r3, #84]	; 0x54
 80021d8:	f423 7280 	bic.w	r2, r3, #256	; 0x100
 80021dc:	687b      	ldr	r3, [r7, #4]
 80021de:	655a      	str	r2, [r3, #84]	; 0x54
 80021e0:	687b      	ldr	r3, [r7, #4]
 80021e2:	6d5b      	ldr	r3, [r3, #84]	; 0x54
 80021e4:	f403 5380 	and.w	r3, r3, #4096	; 0x1000
 80021e8:	2b00      	cmp	r3, #0
 80021ea:	d105      	bne.n	80021f8 <HAL_ADC_PollForConversion+0x118>
 80021ec:	687b      	ldr	r3, [r7, #4]
 80021ee:	6d5b      	ldr	r3, [r3, #84]	; 0x54
 80021f0:	f043 0201 	orr.w	r2, r3, #1
 80021f4:	687b      	ldr	r3, [r7, #4]
 80021f6:	655a      	str	r2, [r3, #84]	; 0x54
 80021f8:	687b      	ldr	r3, [r7, #4]
 80021fa:	681b      	ldr	r3, [r3, #0]
 80021fc:	4a1e      	ldr	r2, [pc, #120]	; (8002278 <HAL_ADC_PollForConversion+0x198>)
 80021fe:	4293      	cmp	r3, r2
 8002200:	d002      	beq.n	8002208 <HAL_ADC_PollForConversion+0x128>
 8002202:	687b      	ldr	r3, [r7, #4]
 8002204:	681b      	ldr	r3, [r3, #0]
 8002206:	e000      	b.n	800220a <HAL_ADC_PollForConversion+0x12a>
 8002208:	4b1c      	ldr	r3, [pc, #112]	; (800227c <HAL_ADC_PollForConversion+0x19c>)
 800220a:	687a      	ldr	r2, [r7, #4]
 800220c:	6812      	ldr	r2, [r2, #0]
 800220e:	4293      	cmp	r3, r2
 8002210:	d008      	beq.n	8002224 <HAL_ADC_PollForConversion+0x144>
 8002212:	697b      	ldr	r3, [r7, #20]
 8002214:	2b00      	cmp	r3, #0
 8002216:	d005      	beq.n	8002224 <HAL_ADC_PollForConversion+0x144>
 8002218:	697b      	ldr	r3, [r7, #20]
 800221a:	2b05      	cmp	r3, #5
 800221c:	d002      	beq.n	8002224 <HAL_ADC_PollForConversion+0x144>
 800221e:	697b      	ldr	r3, [r7, #20]
 8002220:	2b09      	cmp	r3, #9
 8002222:	d104      	bne.n	800222e <HAL_ADC_PollForConversion+0x14e>
 8002224:	687b      	ldr	r3, [r7, #4]
 8002226:	681b      	ldr	r3, [r3, #0]
 8002228:	68db      	ldr	r3, [r3, #12]
 800222a:	61bb      	str	r3, [r7, #24]
 800222c:	e00c      	b.n	8002248 <HAL_ADC_PollForConversion+0x168>
 800222e:	687b      	ldr	r3, [r7, #4]
 8002230:	681b      	ldr	r3, [r3, #0]
 8002232:	4a11      	ldr	r2, [pc, #68]	; (8002278 <HAL_ADC_PollForConversion+0x198>)
 8002234:	4293      	cmp	r3, r2
 8002236:	d002      	beq.n	800223e <HAL_ADC_PollForConversion+0x15e>
 8002238:	687b      	ldr	r3, [r7, #4]
 800223a:	681b      	ldr	r3, [r3, #0]
 800223c:	e000      	b.n	8002240 <HAL_ADC_PollForConversion+0x160>
 800223e:	4b0f      	ldr	r3, [pc, #60]	; (800227c <HAL_ADC_PollForConversion+0x19c>)
 8002240:	60fb      	str	r3, [r7, #12]
 8002242:	68fb      	ldr	r3, [r7, #12]
 8002244:	68db      	ldr	r3, [r3, #12]
 8002246:	61bb      	str	r3, [r7, #24]
 8002248:	69fb      	ldr	r3, [r7, #28]
 800224a:	2b08      	cmp	r3, #8
 800224c:	d104      	bne.n	8002258 <HAL_ADC_PollForConversion+0x178>
 800224e:	687b      	ldr	r3, [r7, #4]
 8002250:	681b      	ldr	r3, [r3, #0]
 8002252:	2208      	movs	r2, #8
 8002254:	601a      	str	r2, [r3, #0]
 8002256:	e008      	b.n	800226a <HAL_ADC_PollForConversion+0x18a>
 8002258:	69bb      	ldr	r3, [r7, #24]
 800225a:	f403 4380 	and.w	r3, r3, #16384	; 0x4000
 800225e:	2b00      	cmp	r3, #0
 8002260:	d103      	bne.n	800226a <HAL_ADC_PollForConversion+0x18a>
 8002262:	687b      	ldr	r3, [r7, #4]
 8002264:	681b      	ldr	r3, [r3, #0]
 8002266:	220c      	movs	r2, #12
 8002268:	601a      	str	r2, [r3, #0]
 800226a:	2300      	movs	r3, #0
 800226c:	4618      	mov	r0, r3
 800226e:	3720      	adds	r7, #32
 8002270:	46bd      	mov	sp, r7
 8002272:	bd80      	pop	{r7, pc}
 8002274:	50040300 	.word	0x50040300
 8002278:	50040100 	.word	0x50040100
 800227c:	50040000 	.word	0x50040000

08002280 <HAL_ADC_GetValue>:
 8002280:	b480      	push	{r7}
 8002282:	b083      	sub	sp, #12
 8002284:	af00      	add	r7, sp, #0
 8002286:	6078      	str	r0, [r7, #4]
 8002288:	687b      	ldr	r3, [r7, #4]
 800228a:	681b      	ldr	r3, [r3, #0]
 800228c:	6c1b      	ldr	r3, [r3, #64]	; 0x40
 800228e:	4618      	mov	r0, r3
 8002290:	370c      	adds	r7, #12
 8002292:	46bd      	mov	sp, r7
 8002294:	f85d 7b04 	ldr.w	r7, [sp], #4
 8002298:	4770      	bx	lr
	...

0800229c <HAL_ADC_IRQHandler>:
 800229c:	b580      	push	{r7, lr}
 800229e:	b08a      	sub	sp, #40	; 0x28
 80022a0:	af00      	add	r7, sp, #0
 80022a2:	6078      	str	r0, [r7, #4]
 80022a4:	2300      	movs	r3, #0
 80022a6:	627b      	str	r3, [r7, #36]	; 0x24
 80022a8:	687b      	ldr	r3, [r7, #4]
 80022aa:	681b      	ldr	r3, [r3, #0]
 80022ac:	681b      	ldr	r3, [r3, #0]
 80022ae:	61fb      	str	r3, [r7, #28]
 80022b0:	687b      	ldr	r3, [r7, #4]
 80022b2:	681b      	ldr	r3, [r3, #0]
 80022b4:	685b      	ldr	r3, [r3, #4]
 80022b6:	61bb      	str	r3, [r7, #24]
 80022b8:	4882      	ldr	r0, [pc, #520]	; (80024c4 <HAL_ADC_IRQHandler+0x228>)
 80022ba:	f7ff fbb5 	bl	8001a28 <LL_ADC_GetMultimode>
 80022be:	6178      	str	r0, [r7, #20]
 80022c0:	69fb      	ldr	r3, [r7, #28]
 80022c2:	f003 0302 	and.w	r3, r3, #2
 80022c6:	2b00      	cmp	r3, #0
 80022c8:	d017      	beq.n	80022fa <HAL_ADC_IRQHandler+0x5e>
 80022ca:	69bb      	ldr	r3, [r7, #24]
 80022cc:	f003 0302 	and.w	r3, r3, #2
 80022d0:	2b00      	cmp	r3, #0
 80022d2:	d012      	beq.n	80022fa <HAL_ADC_IRQHandler+0x5e>
 80022d4:	687b      	ldr	r3, [r7, #4]
 80022d6:	6d5b      	ldr	r3, [r3, #84]	; 0x54
 80022d8:	f003 0310 	and.w	r3, r3, #16
 80022dc:	2b00      	cmp	r3, #0
 80022de:	d105      	bne.n	80022ec <HAL_ADC_IRQHandler+0x50>
 80022e0:	687b      	ldr	r3, [r7, #4]
 80022e2:	6d5b      	ldr	r3, [r3, #84]	; 0x54
 80022e4:	f443 6200 	orr.w	r2, r3, #2048	; 0x800
 80022e8:	687b      	ldr	r3, [r7, #4]
 80022ea:	655a      	str	r2, [r3, #84]	; 0x54
 80022ec:	6878      	ldr	r0, [r7, #4]
 80022ee:	f000 ff25 	bl	800313c <HAL_ADCEx_EndOfSamplingCallback>
 80022f2:	687b      	ldr	r3, [r7, #4]
 80022f4:	681b      	ldr	r3, [r3, #0]
 80022f6:	2202      	movs	r2, #2
 80022f8:	601a      	str	r2, [r3, #0]
 80022fa:	69fb      	ldr	r3, [r7, #28]
 80022fc:	f003 0304 	and.w	r3, r3, #4
 8002300:	2b00      	cmp	r3, #0
 8002302:	d004      	beq.n	800230e <HAL_ADC_IRQHandler+0x72>
 8002304:	69bb      	ldr	r3, [r7, #24]
 8002306:	f003 0304 	and.w	r3, r3, #4
 800230a:	2b00      	cmp	r3, #0
 800230c:	d10a      	bne.n	8002324 <HAL_ADC_IRQHandler+0x88>
 800230e:	69fb      	ldr	r3, [r7, #28]
 8002310:	f003 0308 	and.w	r3, r3, #8
 8002314:	2b00      	cmp	r3, #0
 8002316:	f000 8083 	beq.w	8002420 <HAL_ADC_IRQHandler+0x184>
 800231a:	69bb      	ldr	r3, [r7, #24]
 800231c:	f003 0308 	and.w	r3, r3, #8
 8002320:	2b00      	cmp	r3, #0
 8002322:	d07d      	beq.n	8002420 <HAL_ADC_IRQHandler+0x184>
 8002324:	687b      	ldr	r3, [r7, #4]
 8002326:	6d5b      	ldr	r3, [r3, #84]	; 0x54
 8002328:	f003 0310 	and.w	r3, r3, #16
 800232c:	2b00      	cmp	r3, #0
 800232e:	d105      	bne.n	800233c <HAL_ADC_IRQHandler+0xa0>
 8002330:	687b      	ldr	r3, [r7, #4]
 8002332:	6d5b      	ldr	r3, [r3, #84]	; 0x54
 8002334:	f443 7200 	orr.w	r2, r3, #512	; 0x200
 8002338:	687b      	ldr	r3, [r7, #4]
 800233a:	655a      	str	r2, [r3, #84]	; 0x54
 800233c:	687b      	ldr	r3, [r7, #4]
 800233e:	681b      	ldr	r3, [r3, #0]
 8002340:	4618      	mov	r0, r3
 8002342:	f7ff fad5 	bl	80018f0 <LL_ADC_REG_IsTriggerSourceSWStart>
 8002346:	4603      	mov	r3, r0
 8002348:	2b00      	cmp	r3, #0
 800234a:	d062      	beq.n	8002412 <HAL_ADC_IRQHandler+0x176>
 800234c:	687b      	ldr	r3, [r7, #4]
 800234e:	681b      	ldr	r3, [r3, #0]
 8002350:	4a5d      	ldr	r2, [pc, #372]	; (80024c8 <HAL_ADC_IRQHandler+0x22c>)
 8002352:	4293      	cmp	r3, r2
 8002354:	d002      	beq.n	800235c <HAL_ADC_IRQHandler+0xc0>
 8002356:	687b      	ldr	r3, [r7, #4]
 8002358:	681b      	ldr	r3, [r3, #0]
 800235a:	e000      	b.n	800235e <HAL_ADC_IRQHandler+0xc2>
 800235c:	4b5b      	ldr	r3, [pc, #364]	; (80024cc <HAL_ADC_IRQHandler+0x230>)
 800235e:	687a      	ldr	r2, [r7, #4]
 8002360:	6812      	ldr	r2, [r2, #0]
 8002362:	4293      	cmp	r3, r2
 8002364:	d008      	beq.n	8002378 <HAL_ADC_IRQHandler+0xdc>
 8002366:	697b      	ldr	r3, [r7, #20]
 8002368:	2b00      	cmp	r3, #0
 800236a:	d005      	beq.n	8002378 <HAL_ADC_IRQHandler+0xdc>
 800236c:	697b      	ldr	r3, [r7, #20]
 800236e:	2b05      	cmp	r3, #5
 8002370:	d002      	beq.n	8002378 <HAL_ADC_IRQHandler+0xdc>
 8002372:	697b      	ldr	r3, [r7, #20]
 8002374:	2b09      	cmp	r3, #9
 8002376:	d104      	bne.n	8002382 <HAL_ADC_IRQHandler+0xe6>
 8002378:	687b      	ldr	r3, [r7, #4]
 800237a:	681b      	ldr	r3, [r3, #0]
 800237c:	68db      	ldr	r3, [r3, #12]
 800237e:	623b      	str	r3, [r7, #32]
 8002380:	e00c      	b.n	800239c <HAL_ADC_IRQHandler+0x100>
 8002382:	687b      	ldr	r3, [r7, #4]
 8002384:	681b      	ldr	r3, [r3, #0]
 8002386:	4a50      	ldr	r2, [pc, #320]	; (80024c8 <HAL_ADC_IRQHandler+0x22c>)
 8002388:	4293      	cmp	r3, r2
 800238a:	d002      	beq.n	8002392 <HAL_ADC_IRQHandler+0xf6>
 800238c:	687b      	ldr	r3, [r7, #4]
 800238e:	681b      	ldr	r3, [r3, #0]
 8002390:	e000      	b.n	8002394 <HAL_ADC_IRQHandler+0xf8>
 8002392:	4b4e      	ldr	r3, [pc, #312]	; (80024cc <HAL_ADC_IRQHandler+0x230>)
 8002394:	613b      	str	r3, [r7, #16]
 8002396:	693b      	ldr	r3, [r7, #16]
 8002398:	68db      	ldr	r3, [r3, #12]
 800239a:	623b      	str	r3, [r7, #32]
 800239c:	6a3b      	ldr	r3, [r7, #32]
 800239e:	f403 5300 	and.w	r3, r3, #8192	; 0x2000
 80023a2:	2b00      	cmp	r3, #0
 80023a4:	d135      	bne.n	8002412 <HAL_ADC_IRQHandler+0x176>
 80023a6:	687b      	ldr	r3, [r7, #4]
 80023a8:	681b      	ldr	r3, [r3, #0]
 80023aa:	681b      	ldr	r3, [r3, #0]
 80023ac:	f003 0308 	and.w	r3, r3, #8
 80023b0:	2b08      	cmp	r3, #8
 80023b2:	d12e      	bne.n	8002412 <HAL_ADC_IRQHandler+0x176>
 80023b4:	687b      	ldr	r3, [r7, #4]
 80023b6:	681b      	ldr	r3, [r3, #0]
 80023b8:	4618      	mov	r0, r3
 80023ba:	f7ff fc15 	bl	8001be8 <LL_ADC_REG_IsConversionOngoing>
 80023be:	4603      	mov	r3, r0
 80023c0:	2b00      	cmp	r3, #0
 80023c2:	d11a      	bne.n	80023fa <HAL_ADC_IRQHandler+0x15e>
 80023c4:	687b      	ldr	r3, [r7, #4]
 80023c6:	681b      	ldr	r3, [r3, #0]
 80023c8:	685a      	ldr	r2, [r3, #4]
 80023ca:	687b      	ldr	r3, [r7, #4]
 80023cc:	681b      	ldr	r3, [r3, #0]
 80023ce:	f022 020c 	bic.w	r2, r2, #12
 80023d2:	605a      	str	r2, [r3, #4]
 80023d4:	687b      	ldr	r3, [r7, #4]
 80023d6:	6d5b      	ldr	r3, [r3, #84]	; 0x54
 80023d8:	f423 7280 	bic.w	r2, r3, #256	; 0x100
 80023dc:	687b      	ldr	r3, [r7, #4]
 80023de:	655a      	str	r2, [r3, #84]	; 0x54
 80023e0:	687b      	ldr	r3, [r7, #4]
 80023e2:	6d5b      	ldr	r3, [r3, #84]	; 0x54
 80023e4:	f403 5380 	and.w	r3, r3, #4096	; 0x1000
 80023e8:	2b00      	cmp	r3, #0
 80023ea:	d112      	bne.n	8002412 <HAL_ADC_IRQHandler+0x176>
 80023ec:	687b      	ldr	r3, [r7, #4]
 80023ee:	6d5b      	ldr	r3, [r3, #84]	; 0x54
 80023f0:	f043 0201 	orr.w	r2, r3, #1
 80023f4:	687b      	ldr	r3, [r7, #4]
 80023f6:	655a      	str	r2, [r3, #84]	; 0x54
 80023f8:	e00b      	b.n	8002412 <HAL_ADC_IRQHandler+0x176>
 80023fa:	687b      	ldr	r3, [r7, #4]
 80023fc:	6d5b      	ldr	r3, [r3, #84]	; 0x54
 80023fe:	f043 0210 	orr.w	r2, r3, #16
 8002402:	687b      	ldr	r3, [r7, #4]
 8002404:	655a      	str	r2, [r3, #84]	; 0x54
 8002406:	687b      	ldr	r3, [r7, #4]
 8002408:	6d9b      	ldr	r3, [r3, #88]	; 0x58
 800240a:	f043 0201 	orr.w	r2, r3, #1
 800240e:	687b      	ldr	r3, [r7, #4]
 8002410:	659a      	str	r2, [r3, #88]	; 0x58
 8002412:	6878      	ldr	r0, [r7, #4]
 8002414:	f000 f95c 	bl	80026d0 <HAL_ADC_ConvCpltCallback>
 8002418:	687b      	ldr	r3, [r7, #4]
 800241a:	681b      	ldr	r3, [r3, #0]
 800241c:	220c      	movs	r2, #12
 800241e:	601a      	str	r2, [r3, #0]
 8002420:	69fb      	ldr	r3, [r7, #28]
 8002422:	f003 0320 	and.w	r3, r3, #32
 8002426:	2b00      	cmp	r3, #0
 8002428:	d004      	beq.n	8002434 <HAL_ADC_IRQHandler+0x198>
 800242a:	69bb      	ldr	r3, [r7, #24]
 800242c:	f003 0320 	and.w	r3, r3, #32
 8002430:	2b00      	cmp	r3, #0
 8002432:	d10b      	bne.n	800244c <HAL_ADC_IRQHandler+0x1b0>
 8002434:	69fb      	ldr	r3, [r7, #28]
 8002436:	f003 0340 	and.w	r3, r3, #64	; 0x40
 800243a:	2b00      	cmp	r3, #0
 800243c:	f000 809f 	beq.w	800257e <HAL_ADC_IRQHandler+0x2e2>
 8002440:	69bb      	ldr	r3, [r7, #24]
 8002442:	f003 0340 	and.w	r3, r3, #64	; 0x40
 8002446:	2b00      	cmp	r3, #0
 8002448:	f000 8099 	beq.w	800257e <HAL_ADC_IRQHandler+0x2e2>
 800244c:	687b      	ldr	r3, [r7, #4]
 800244e:	6d5b      	ldr	r3, [r3, #84]	; 0x54
 8002450:	f003 0310 	and.w	r3, r3, #16
 8002454:	2b00      	cmp	r3, #0
 8002456:	d105      	bne.n	8002464 <HAL_ADC_IRQHandler+0x1c8>
 8002458:	687b      	ldr	r3, [r7, #4]
 800245a:	6d5b      	ldr	r3, [r3, #84]	; 0x54
 800245c:	f443 5200 	orr.w	r2, r3, #8192	; 0x2000
 8002460:	687b      	ldr	r3, [r7, #4]
 8002462:	655a      	str	r2, [r3, #84]	; 0x54
 8002464:	687b      	ldr	r3, [r7, #4]
 8002466:	681b      	ldr	r3, [r3, #0]
 8002468:	4618      	mov	r0, r3
 800246a:	f7ff fa7d 	bl	8001968 <LL_ADC_INJ_IsTriggerSourceSWStart>
 800246e:	60f8      	str	r0, [r7, #12]
 8002470:	687b      	ldr	r3, [r7, #4]
 8002472:	681b      	ldr	r3, [r3, #0]
 8002474:	4618      	mov	r0, r3
 8002476:	f7ff fa3b 	bl	80018f0 <LL_ADC_REG_IsTriggerSourceSWStart>
 800247a:	60b8      	str	r0, [r7, #8]
 800247c:	687b      	ldr	r3, [r7, #4]
 800247e:	681b      	ldr	r3, [r3, #0]
 8002480:	4a11      	ldr	r2, [pc, #68]	; (80024c8 <HAL_ADC_IRQHandler+0x22c>)
 8002482:	4293      	cmp	r3, r2
 8002484:	d002      	beq.n	800248c <HAL_ADC_IRQHandler+0x1f0>
 8002486:	687b      	ldr	r3, [r7, #4]
 8002488:	681b      	ldr	r3, [r3, #0]
 800248a:	e000      	b.n	800248e <HAL_ADC_IRQHandler+0x1f2>
 800248c:	4b0f      	ldr	r3, [pc, #60]	; (80024cc <HAL_ADC_IRQHandler+0x230>)
 800248e:	687a      	ldr	r2, [r7, #4]
 8002490:	6812      	ldr	r2, [r2, #0]
 8002492:	4293      	cmp	r3, r2
 8002494:	d008      	beq.n	80024a8 <HAL_ADC_IRQHandler+0x20c>
 8002496:	697b      	ldr	r3, [r7, #20]
 8002498:	2b00      	cmp	r3, #0
 800249a:	d005      	beq.n	80024a8 <HAL_ADC_IRQHandler+0x20c>
 800249c:	697b      	ldr	r3, [r7, #20]
 800249e:	2b06      	cmp	r3, #6
 80024a0:	d002      	beq.n	80024a8 <HAL_ADC_IRQHandler+0x20c>
 80024a2:	697b      	ldr	r3, [r7, #20]
 80024a4:	2b07      	cmp	r3, #7
 80024a6:	d104      	bne.n	80024b2 <HAL_ADC_IRQHandler+0x216>
 80024a8:	687b      	ldr	r3, [r7, #4]
 80024aa:	681b      	ldr	r3, [r3, #0]
 80024ac:	68db      	ldr	r3, [r3, #12]
 80024ae:	623b      	str	r3, [r7, #32]
 80024b0:	e013      	b.n	80024da <HAL_ADC_IRQHandler+0x23e>
 80024b2:	687b      	ldr	r3, [r7, #4]
 80024b4:	681b      	ldr	r3, [r3, #0]
 80024b6:	4a04      	ldr	r2, [pc, #16]	; (80024c8 <HAL_ADC_IRQHandler+0x22c>)
 80024b8:	4293      	cmp	r3, r2
 80024ba:	d009      	beq.n	80024d0 <HAL_ADC_IRQHandler+0x234>
 80024bc:	687b      	ldr	r3, [r7, #4]
 80024be:	681b      	ldr	r3, [r3, #0]
 80024c0:	e007      	b.n	80024d2 <HAL_ADC_IRQHandler+0x236>
 80024c2:	bf00      	nop
 80024c4:	50040300 	.word	0x50040300
 80024c8:	50040100 	.word	0x50040100
 80024cc:	50040000 	.word	0x50040000
 80024d0:	4b7d      	ldr	r3, [pc, #500]	; (80026c8 <HAL_ADC_IRQHandler+0x42c>)
 80024d2:	613b      	str	r3, [r7, #16]
 80024d4:	693b      	ldr	r3, [r7, #16]
 80024d6:	68db      	ldr	r3, [r3, #12]
 80024d8:	623b      	str	r3, [r7, #32]
 80024da:	68fb      	ldr	r3, [r7, #12]
 80024dc:	2b00      	cmp	r3, #0
 80024de:	d10c      	bne.n	80024fa <HAL_ADC_IRQHandler+0x25e>
 80024e0:	6a3b      	ldr	r3, [r7, #32]
 80024e2:	f003 7300 	and.w	r3, r3, #33554432	; 0x2000000
 80024e6:	2b00      	cmp	r3, #0
 80024e8:	d142      	bne.n	8002570 <HAL_ADC_IRQHandler+0x2d4>
 80024ea:	68bb      	ldr	r3, [r7, #8]
 80024ec:	2b00      	cmp	r3, #0
 80024ee:	d03f      	beq.n	8002570 <HAL_ADC_IRQHandler+0x2d4>
 80024f0:	6a3b      	ldr	r3, [r7, #32]
 80024f2:	f403 5300 	and.w	r3, r3, #8192	; 0x2000
 80024f6:	2b00      	cmp	r3, #0
 80024f8:	d13a      	bne.n	8002570 <HAL_ADC_IRQHandler+0x2d4>
 80024fa:	687b      	ldr	r3, [r7, #4]
 80024fc:	681b      	ldr	r3, [r3, #0]
 80024fe:	681b      	ldr	r3, [r3, #0]
 8002500:	f003 0340 	and.w	r3, r3, #64	; 0x40
 8002504:	2b40      	cmp	r3, #64	; 0x40
 8002506:	d133      	bne.n	8002570 <HAL_ADC_IRQHandler+0x2d4>
 8002508:	6a3b      	ldr	r3, [r7, #32]
 800250a:	f403 1300 	and.w	r3, r3, #2097152	; 0x200000
 800250e:	2b00      	cmp	r3, #0
 8002510:	d12e      	bne.n	8002570 <HAL_ADC_IRQHandler+0x2d4>
 8002512:	687b      	ldr	r3, [r7, #4]
 8002514:	681b      	ldr	r3, [r3, #0]
 8002516:	4618      	mov	r0, r3
 8002518:	f7ff fb8d 	bl	8001c36 <LL_ADC_INJ_IsConversionOngoing>
 800251c:	4603      	mov	r3, r0
 800251e:	2b00      	cmp	r3, #0
 8002520:	d11a      	bne.n	8002558 <HAL_ADC_IRQHandler+0x2bc>
 8002522:	687b      	ldr	r3, [r7, #4]
 8002524:	681b      	ldr	r3, [r3, #0]
 8002526:	685a      	ldr	r2, [r3, #4]
 8002528:	687b      	ldr	r3, [r7, #4]
 800252a:	681b      	ldr	r3, [r3, #0]
 800252c:	f022 0260 	bic.w	r2, r2, #96	; 0x60
 8002530:	605a      	str	r2, [r3, #4]
 8002532:	687b      	ldr	r3, [r7, #4]
 8002534:	6d5b      	ldr	r3, [r3, #84]	; 0x54
 8002536:	f423 5280 	bic.w	r2, r3, #4096	; 0x1000
 800253a:	687b      	ldr	r3, [r7, #4]
 800253c:	655a      	str	r2, [r3, #84]	; 0x54
 800253e:	687b      	ldr	r3, [r7, #4]
 8002540:	6d5b      	ldr	r3, [r3, #84]	; 0x54
 8002542:	f403 7380 	and.w	r3, r3, #256	; 0x100
 8002546:	2b00      	cmp	r3, #0
 8002548:	d112      	bne.n	8002570 <HAL_ADC_IRQHandler+0x2d4>
 800254a:	687b      	ldr	r3, [r7, #4]
 800254c:	6d5b      	ldr	r3, [r3, #84]	; 0x54
 800254e:	f043 0201 	orr.w	r2, r3, #1
 8002552:	687b      	ldr	r3, [r7, #4]
 8002554:	655a      	str	r2, [r3, #84]	; 0x54
 8002556:	e00b      	b.n	8002570 <HAL_ADC_IRQHandler+0x2d4>
 8002558:	687b      	ldr	r3, [r7, #4]
 800255a:	6d5b      	ldr	r3, [r3, #84]	; 0x54
 800255c:	f043 0210 	orr.w	r2, r3, #16
 8002560:	687b      	ldr	r3, [r7, #4]
 8002562:	655a      	str	r2, [r3, #84]	; 0x54
 8002564:	687b      	ldr	r3, [r7, #4]
 8002566:	6d9b      	ldr	r3, [r3, #88]	; 0x58
 8002568:	f043 0201 	orr.w	r2, r3, #1
 800256c:	687b      	ldr	r3, [r7, #4]
 800256e:	659a      	str	r2, [r3, #88]	; 0x58
 8002570:	6878      	ldr	r0, [r7, #4]
 8002572:	f000 fdbb 	bl	80030ec <HAL_ADCEx_InjectedConvCpltCallback>
 8002576:	687b      	ldr	r3, [r7, #4]
 8002578:	681b      	ldr	r3, [r3, #0]
 800257a:	2260      	movs	r2, #96	; 0x60
 800257c:	601a      	str	r2, [r3, #0]
 800257e:	69fb      	ldr	r3, [r7, #28]
 8002580:	f003 0380 	and.w	r3, r3, #128	; 0x80
 8002584:	2b00      	cmp	r3, #0
 8002586:	d011      	beq.n	80025ac <HAL_ADC_IRQHandler+0x310>
 8002588:	69bb      	ldr	r3, [r7, #24]
 800258a:	f003 0380 	and.w	r3, r3, #128	; 0x80
 800258e:	2b00      	cmp	r3, #0
 8002590:	d00c      	beq.n	80025ac <HAL_ADC_IRQHandler+0x310>
 8002592:	687b      	ldr	r3, [r7, #4]
 8002594:	6d5b      	ldr	r3, [r3, #84]	; 0x54
 8002596:	f443 3280 	orr.w	r2, r3, #65536	; 0x10000
 800259a:	687b      	ldr	r3, [r7, #4]
 800259c:	655a      	str	r2, [r3, #84]	; 0x54
 800259e:	6878      	ldr	r0, [r7, #4]
 80025a0:	f000 f8a0 	bl	80026e4 <HAL_ADC_LevelOutOfWindowCallback>
 80025a4:	687b      	ldr	r3, [r7, #4]
 80025a6:	681b      	ldr	r3, [r3, #0]
 80025a8:	2280      	movs	r2, #128	; 0x80
 80025aa:	601a      	str	r2, [r3, #0]
 80025ac:	69fb      	ldr	r3, [r7, #28]
 80025ae:	f403 7380 	and.w	r3, r3, #256	; 0x100
 80025b2:	2b00      	cmp	r3, #0
 80025b4:	d012      	beq.n	80025dc <HAL_ADC_IRQHandler+0x340>
 80025b6:	69bb      	ldr	r3, [r7, #24]
 80025b8:	f403 7380 	and.w	r3, r3, #256	; 0x100
 80025bc:	2b00      	cmp	r3, #0
 80025be:	d00d      	beq.n	80025dc <HAL_ADC_IRQHandler+0x340>
 80025c0:	687b      	ldr	r3, [r7, #4]
 80025c2:	6d5b      	ldr	r3, [r3, #84]	; 0x54
 80025c4:	f443 3200 	orr.w	r2, r3, #131072	; 0x20000
 80025c8:	687b      	ldr	r3, [r7, #4]
 80025ca:	655a      	str	r2, [r3, #84]	; 0x54
 80025cc:	6878      	ldr	r0, [r7, #4]
 80025ce:	f000 fda1 	bl	8003114 <HAL_ADCEx_LevelOutOfWindow2Callback>
 80025d2:	687b      	ldr	r3, [r7, #4]
 80025d4:	681b      	ldr	r3, [r3, #0]
 80025d6:	f44f 7280 	mov.w	r2, #256	; 0x100
 80025da:	601a      	str	r2, [r3, #0]
 80025dc:	69fb      	ldr	r3, [r7, #28]
 80025de:	f403 7300 	and.w	r3, r3, #512	; 0x200
 80025e2:	2b00      	cmp	r3, #0
 80025e4:	d012      	beq.n	800260c <HAL_ADC_IRQHandler+0x370>
 80025e6:	69bb      	ldr	r3, [r7, #24]
 80025e8:	f403 7300 	and.w	r3, r3, #512	; 0x200
 80025ec:	2b00      	cmp	r3, #0
 80025ee:	d00d      	beq.n	800260c <HAL_ADC_IRQHandler+0x370>
 80025f0:	687b      	ldr	r3, [r7, #4]
 80025f2:	6d5b      	ldr	r3, [r3, #84]	; 0x54
 80025f4:	f443 2280 	orr.w	r2, r3, #262144	; 0x40000
 80025f8:	687b      	ldr	r3, [r7, #4]
 80025fa:	655a      	str	r2, [r3, #84]	; 0x54
 80025fc:	6878      	ldr	r0, [r7, #4]
 80025fe:	f000 fd93 	bl	8003128 <HAL_ADCEx_LevelOutOfWindow3Callback>
 8002602:	687b      	ldr	r3, [r7, #4]
 8002604:	681b      	ldr	r3, [r3, #0]
 8002606:	f44f 7200 	mov.w	r2, #512	; 0x200
 800260a:	601a      	str	r2, [r3, #0]
 800260c:	69fb      	ldr	r3, [r7, #28]
 800260e:	f003 0310 	and.w	r3, r3, #16
 8002612:	2b00      	cmp	r3, #0
 8002614:	d036      	beq.n	8002684 <HAL_ADC_IRQHandler+0x3e8>
 8002616:	69bb      	ldr	r3, [r7, #24]
 8002618:	f003 0310 	and.w	r3, r3, #16
 800261c:	2b00      	cmp	r3, #0
 800261e:	d031      	beq.n	8002684 <HAL_ADC_IRQHandler+0x3e8>
 8002620:	687b      	ldr	r3, [r7, #4]
 8002622:	6b5b      	ldr	r3, [r3, #52]	; 0x34
 8002624:	2b00      	cmp	r3, #0
 8002626:	d102      	bne.n	800262e <HAL_ADC_IRQHandler+0x392>
 8002628:	2301      	movs	r3, #1
 800262a:	627b      	str	r3, [r7, #36]	; 0x24
 800262c:	e014      	b.n	8002658 <HAL_ADC_IRQHandler+0x3bc>
 800262e:	697b      	ldr	r3, [r7, #20]
 8002630:	2b00      	cmp	r3, #0
 8002632:	d008      	beq.n	8002646 <HAL_ADC_IRQHandler+0x3aa>
 8002634:	4825      	ldr	r0, [pc, #148]	; (80026cc <HAL_ADC_IRQHandler+0x430>)
 8002636:	f7ff fa05 	bl	8001a44 <LL_ADC_GetMultiDMATransfer>
 800263a:	4603      	mov	r3, r0
 800263c:	2b00      	cmp	r3, #0
 800263e:	d00b      	beq.n	8002658 <HAL_ADC_IRQHandler+0x3bc>
 8002640:	2301      	movs	r3, #1
 8002642:	627b      	str	r3, [r7, #36]	; 0x24
 8002644:	e008      	b.n	8002658 <HAL_ADC_IRQHandler+0x3bc>
 8002646:	687b      	ldr	r3, [r7, #4]
 8002648:	681b      	ldr	r3, [r3, #0]
 800264a:	68db      	ldr	r3, [r3, #12]
 800264c:	f003 0301 	and.w	r3, r3, #1
 8002650:	2b00      	cmp	r3, #0
 8002652:	d001      	beq.n	8002658 <HAL_ADC_IRQHandler+0x3bc>
 8002654:	2301      	movs	r3, #1
 8002656:	627b      	str	r3, [r7, #36]	; 0x24
 8002658:	6a7b      	ldr	r3, [r7, #36]	; 0x24
 800265a:	2b01      	cmp	r3, #1
 800265c:	d10e      	bne.n	800267c <HAL_ADC_IRQHandler+0x3e0>
 800265e:	687b      	ldr	r3, [r7, #4]
 8002660:	6d5b      	ldr	r3, [r3, #84]	; 0x54
 8002662:	f443 6280 	orr.w	r2, r3, #1024	; 0x400
 8002666:	687b      	ldr	r3, [r7, #4]
 8002668:	655a      	str	r2, [r3, #84]	; 0x54
 800266a:	687b      	ldr	r3, [r7, #4]
 800266c:	6d9b      	ldr	r3, [r3, #88]	; 0x58
 800266e:	f043 0202 	orr.w	r2, r3, #2
 8002672:	687b      	ldr	r3, [r7, #4]
 8002674:	659a      	str	r2, [r3, #88]	; 0x58
 8002676:	6878      	ldr	r0, [r7, #4]
 8002678:	f000 f83e 	bl	80026f8 <HAL_ADC_ErrorCallback>
 800267c:	687b      	ldr	r3, [r7, #4]
 800267e:	681b      	ldr	r3, [r3, #0]
 8002680:	2210      	movs	r2, #16
 8002682:	601a      	str	r2, [r3, #0]
 8002684:	69fb      	ldr	r3, [r7, #28]
 8002686:	f403 6380 	and.w	r3, r3, #1024	; 0x400
 800268a:	2b00      	cmp	r3, #0
 800268c:	d018      	beq.n	80026c0 <HAL_ADC_IRQHandler+0x424>
 800268e:	69bb      	ldr	r3, [r7, #24]
 8002690:	f403 6380 	and.w	r3, r3, #1024	; 0x400
 8002694:	2b00      	cmp	r3, #0
 8002696:	d013      	beq.n	80026c0 <HAL_ADC_IRQHandler+0x424>
 8002698:	687b      	ldr	r3, [r7, #4]
 800269a:	6d5b      	ldr	r3, [r3, #84]	; 0x54
 800269c:	f443 4280 	orr.w	r2, r3, #16384	; 0x4000
 80026a0:	687b      	ldr	r3, [r7, #4]
 80026a2:	655a      	str	r2, [r3, #84]	; 0x54
 80026a4:	687b      	ldr	r3, [r7, #4]
 80026a6:	6d9b      	ldr	r3, [r3, #88]	; 0x58
 80026a8:	f043 0208 	orr.w	r2, r3, #8
 80026ac:	687b      	ldr	r3, [r7, #4]
 80026ae:	659a      	str	r2, [r3, #88]	; 0x58
 80026b0:	687b      	ldr	r3, [r7, #4]
 80026b2:	681b      	ldr	r3, [r3, #0]
 80026b4:	f44f 6280 	mov.w	r2, #1024	; 0x400
 80026b8:	601a      	str	r2, [r3, #0]
 80026ba:	6878      	ldr	r0, [r7, #4]
 80026bc:	f000 fd20 	bl	8003100 <HAL_ADCEx_InjectedQueueOverflowCallback>
 80026c0:	bf00      	nop
 80026c2:	3728      	adds	r7, #40	; 0x28
 80026c4:	46bd      	mov	sp, r7
 80026c6:	bd80      	pop	{r7, pc}
 80026c8:	50040000 	.word	0x50040000
 80026cc:	50040300 	.word	0x50040300

080026d0 <HAL_ADC_ConvCpltCallback>:
 80026d0:	b480      	push	{r7}
 80026d2:	b083      	sub	sp, #12
 80026d4:	af00      	add	r7, sp, #0
 80026d6:	6078      	str	r0, [r7, #4]
 80026d8:	bf00      	nop
 80026da:	370c      	adds	r7, #12
 80026dc:	46bd      	mov	sp, r7
 80026de:	f85d 7b04 	ldr.w	r7, [sp], #4
 80026e2:	4770      	bx	lr

080026e4 <HAL_ADC_LevelOutOfWindowCallback>:
 80026e4:	b480      	push	{r7}
 80026e6:	b083      	sub	sp, #12
 80026e8:	af00      	add	r7, sp, #0
 80026ea:	6078      	str	r0, [r7, #4]
 80026ec:	bf00      	nop
 80026ee:	370c      	adds	r7, #12
 80026f0:	46bd      	mov	sp, r7
 80026f2:	f85d 7b04 	ldr.w	r7, [sp], #4
 80026f6:	4770      	bx	lr

080026f8 <HAL_ADC_ErrorCallback>:
 80026f8:	b480      	push	{r7}
 80026fa:	b083      	sub	sp, #12
 80026fc:	af00      	add	r7, sp, #0
 80026fe:	6078      	str	r0, [r7, #4]
 8002700:	bf00      	nop
 8002702:	370c      	adds	r7, #12
 8002704:	46bd      	mov	sp, r7
 8002706:	f85d 7b04 	ldr.w	r7, [sp], #4
 800270a:	4770      	bx	lr

0800270c <HAL_ADC_ConfigChannel>:
 800270c:	b580      	push	{r7, lr}
 800270e:	b0a6      	sub	sp, #152	; 0x98
 8002710:	af00      	add	r7, sp, #0
 8002712:	6078      	str	r0, [r7, #4]
 8002714:	6039      	str	r1, [r7, #0]
 8002716:	2300      	movs	r3, #0
 8002718:	f887 3097 	strb.w	r3, [r7, #151]	; 0x97
 800271c:	2300      	movs	r3, #0
 800271e:	60bb      	str	r3, [r7, #8]
 8002720:	687b      	ldr	r3, [r7, #4]
 8002722:	f893 3050 	ldrb.w	r3, [r3, #80]	; 0x50
 8002726:	2b01      	cmp	r3, #1
 8002728:	d101      	bne.n	800272e <HAL_ADC_ConfigChannel+0x22>
 800272a:	2302      	movs	r3, #2
 800272c:	e348      	b.n	8002dc0 <HAL_ADC_ConfigChannel+0x6b4>
 800272e:	687b      	ldr	r3, [r7, #4]
 8002730:	2201      	movs	r2, #1
 8002732:	f883 2050 	strb.w	r2, [r3, #80]	; 0x50
 8002736:	687b      	ldr	r3, [r7, #4]
 8002738:	681b      	ldr	r3, [r3, #0]
 800273a:	4618      	mov	r0, r3
 800273c:	f7ff fa54 	bl	8001be8 <LL_ADC_REG_IsConversionOngoing>
 8002740:	4603      	mov	r3, r0
 8002742:	2b00      	cmp	r3, #0
 8002744:	f040 8329 	bne.w	8002d9a <HAL_ADC_ConfigChannel+0x68e>
 8002748:	683b      	ldr	r3, [r7, #0]
 800274a:	685b      	ldr	r3, [r3, #4]
 800274c:	2b05      	cmp	r3, #5
 800274e:	d824      	bhi.n	800279a <HAL_ADC_ConfigChannel+0x8e>
 8002750:	683b      	ldr	r3, [r7, #0]
 8002752:	685b      	ldr	r3, [r3, #4]
 8002754:	3b02      	subs	r3, #2
 8002756:	2b03      	cmp	r3, #3
 8002758:	d81b      	bhi.n	8002792 <HAL_ADC_ConfigChannel+0x86>
 800275a:	a201      	add	r2, pc, #4	; (adr r2, 8002760 <HAL_ADC_ConfigChannel+0x54>)
 800275c:	f852 f023 	ldr.w	pc, [r2, r3, lsl #2]
 8002760:	08002771 	.word	0x08002771
 8002764:	08002779 	.word	0x08002779
 8002768:	08002781 	.word	0x08002781
 800276c:	08002789 	.word	0x08002789
 8002770:	683b      	ldr	r3, [r7, #0]
 8002772:	220c      	movs	r2, #12
 8002774:	605a      	str	r2, [r3, #4]
 8002776:	e011      	b.n	800279c <HAL_ADC_ConfigChannel+0x90>
 8002778:	683b      	ldr	r3, [r7, #0]
 800277a:	2212      	movs	r2, #18
 800277c:	605a      	str	r2, [r3, #4]
 800277e:	e00d      	b.n	800279c <HAL_ADC_ConfigChannel+0x90>
 8002780:	683b      	ldr	r3, [r7, #0]
 8002782:	2218      	movs	r2, #24
 8002784:	605a      	str	r2, [r3, #4]
 8002786:	e009      	b.n	800279c <HAL_ADC_ConfigChannel+0x90>
 8002788:	683b      	ldr	r3, [r7, #0]
 800278a:	f44f 7280 	mov.w	r2, #256	; 0x100
 800278e:	605a      	str	r2, [r3, #4]
 8002790:	e004      	b.n	800279c <HAL_ADC_ConfigChannel+0x90>
 8002792:	683b      	ldr	r3, [r7, #0]
 8002794:	2206      	movs	r2, #6
 8002796:	605a      	str	r2, [r3, #4]
 8002798:	e000      	b.n	800279c <HAL_ADC_ConfigChannel+0x90>
 800279a:	bf00      	nop
 800279c:	687b      	ldr	r3, [r7, #4]
 800279e:	6818      	ldr	r0, [r3, #0]
 80027a0:	683b      	ldr	r3, [r7, #0]
 80027a2:	6859      	ldr	r1, [r3, #4]
 80027a4:	683b      	ldr	r3, [r7, #0]
 80027a6:	681b      	ldr	r3, [r3, #0]
 80027a8:	461a      	mov	r2, r3
 80027aa:	f7ff f8b4 	bl	8001916 <LL_ADC_REG_SetSequencerRanks>
 80027ae:	687b      	ldr	r3, [r7, #4]
 80027b0:	681b      	ldr	r3, [r3, #0]
 80027b2:	4618      	mov	r0, r3
 80027b4:	f7ff fa18 	bl	8001be8 <LL_ADC_REG_IsConversionOngoing>
 80027b8:	f8c7 0090 	str.w	r0, [r7, #144]	; 0x90
 80027bc:	687b      	ldr	r3, [r7, #4]
 80027be:	681b      	ldr	r3, [r3, #0]
 80027c0:	4618      	mov	r0, r3
 80027c2:	f7ff fa38 	bl	8001c36 <LL_ADC_INJ_IsConversionOngoing>
 80027c6:	f8c7 008c 	str.w	r0, [r7, #140]	; 0x8c
 80027ca:	f8d7 3090 	ldr.w	r3, [r7, #144]	; 0x90
 80027ce:	2b00      	cmp	r3, #0
 80027d0:	f040 8148 	bne.w	8002a64 <HAL_ADC_ConfigChannel+0x358>
 80027d4:	f8d7 308c 	ldr.w	r3, [r7, #140]	; 0x8c
 80027d8:	2b00      	cmp	r3, #0
 80027da:	f040 8143 	bne.w	8002a64 <HAL_ADC_ConfigChannel+0x358>
 80027de:	687b      	ldr	r3, [r7, #4]
 80027e0:	6818      	ldr	r0, [r3, #0]
 80027e2:	683b      	ldr	r3, [r7, #0]
 80027e4:	6819      	ldr	r1, [r3, #0]
 80027e6:	683b      	ldr	r3, [r7, #0]
 80027e8:	689b      	ldr	r3, [r3, #8]
 80027ea:	461a      	mov	r2, r3
 80027ec:	f7ff f8cf 	bl	800198e <LL_ADC_SetChannelSamplingTime>
 80027f0:	683b      	ldr	r3, [r7, #0]
 80027f2:	695a      	ldr	r2, [r3, #20]
 80027f4:	687b      	ldr	r3, [r7, #4]
 80027f6:	681b      	ldr	r3, [r3, #0]
 80027f8:	68db      	ldr	r3, [r3, #12]
 80027fa:	08db      	lsrs	r3, r3, #3
 80027fc:	f003 0303 	and.w	r3, r3, #3
 8002800:	005b      	lsls	r3, r3, #1
 8002802:	fa02 f303 	lsl.w	r3, r2, r3
 8002806:	f8c7 3088 	str.w	r3, [r7, #136]	; 0x88
 800280a:	683b      	ldr	r3, [r7, #0]
 800280c:	691b      	ldr	r3, [r3, #16]
 800280e:	2b04      	cmp	r3, #4
 8002810:	d00a      	beq.n	8002828 <HAL_ADC_ConfigChannel+0x11c>
 8002812:	687b      	ldr	r3, [r7, #4]
 8002814:	6818      	ldr	r0, [r3, #0]
 8002816:	683b      	ldr	r3, [r7, #0]
 8002818:	6919      	ldr	r1, [r3, #16]
 800281a:	683b      	ldr	r3, [r7, #0]
 800281c:	681a      	ldr	r2, [r3, #0]
 800281e:	f8d7 3088 	ldr.w	r3, [r7, #136]	; 0x88
 8002822:	f7ff f817 	bl	8001854 <LL_ADC_SetOffset>
 8002826:	e11d      	b.n	8002a64 <HAL_ADC_ConfigChannel+0x358>
 8002828:	687b      	ldr	r3, [r7, #4]
 800282a:	681b      	ldr	r3, [r3, #0]
 800282c:	2100      	movs	r1, #0
 800282e:	4618      	mov	r0, r3
 8002830:	f7ff f832 	bl	8001898 <LL_ADC_GetOffsetChannel>
 8002834:	4603      	mov	r3, r0
 8002836:	f3c3 0312 	ubfx	r3, r3, #0, #19
 800283a:	2b00      	cmp	r3, #0
 800283c:	d10a      	bne.n	8002854 <HAL_ADC_ConfigChannel+0x148>
 800283e:	687b      	ldr	r3, [r7, #4]
 8002840:	681b      	ldr	r3, [r3, #0]
 8002842:	2100      	movs	r1, #0
 8002844:	4618      	mov	r0, r3
 8002846:	f7ff f827 	bl	8001898 <LL_ADC_GetOffsetChannel>
 800284a:	4603      	mov	r3, r0
 800284c:	0e9b      	lsrs	r3, r3, #26
 800284e:	f003 021f 	and.w	r2, r3, #31
 8002852:	e012      	b.n	800287a <HAL_ADC_ConfigChannel+0x16e>
 8002854:	687b      	ldr	r3, [r7, #4]
 8002856:	681b      	ldr	r3, [r3, #0]
 8002858:	2100      	movs	r1, #0
 800285a:	4618      	mov	r0, r3
 800285c:	f7ff f81c 	bl	8001898 <LL_ADC_GetOffsetChannel>
 8002860:	4603      	mov	r3, r0
 8002862:	f8c7 3080 	str.w	r3, [r7, #128]	; 0x80
 8002866:	f8d7 3080 	ldr.w	r3, [r7, #128]	; 0x80
 800286a:	fa93 f3a3 	rbit	r3, r3
 800286e:	67fb      	str	r3, [r7, #124]	; 0x7c
 8002870:	6ffb      	ldr	r3, [r7, #124]	; 0x7c
 8002872:	fab3 f383 	clz	r3, r3
 8002876:	b2db      	uxtb	r3, r3
 8002878:	461a      	mov	r2, r3
 800287a:	683b      	ldr	r3, [r7, #0]
 800287c:	681b      	ldr	r3, [r3, #0]
 800287e:	f3c3 0312 	ubfx	r3, r3, #0, #19
 8002882:	2b00      	cmp	r3, #0
 8002884:	d105      	bne.n	8002892 <HAL_ADC_ConfigChannel+0x186>
 8002886:	683b      	ldr	r3, [r7, #0]
 8002888:	681b      	ldr	r3, [r3, #0]
 800288a:	0e9b      	lsrs	r3, r3, #26
 800288c:	f003 031f 	and.w	r3, r3, #31
 8002890:	e00a      	b.n	80028a8 <HAL_ADC_ConfigChannel+0x19c>
 8002892:	683b      	ldr	r3, [r7, #0]
 8002894:	681b      	ldr	r3, [r3, #0]
 8002896:	67bb      	str	r3, [r7, #120]	; 0x78
 8002898:	6fbb      	ldr	r3, [r7, #120]	; 0x78
 800289a:	fa93 f3a3 	rbit	r3, r3
 800289e:	677b      	str	r3, [r7, #116]	; 0x74
 80028a0:	6f7b      	ldr	r3, [r7, #116]	; 0x74
 80028a2:	fab3 f383 	clz	r3, r3
 80028a6:	b2db      	uxtb	r3, r3
 80028a8:	429a      	cmp	r2, r3
 80028aa:	d106      	bne.n	80028ba <HAL_ADC_ConfigChannel+0x1ae>
 80028ac:	687b      	ldr	r3, [r7, #4]
 80028ae:	681b      	ldr	r3, [r3, #0]
 80028b0:	2200      	movs	r2, #0
 80028b2:	2100      	movs	r1, #0
 80028b4:	4618      	mov	r0, r3
 80028b6:	f7ff f803 	bl	80018c0 <LL_ADC_SetOffsetState>
 80028ba:	687b      	ldr	r3, [r7, #4]
 80028bc:	681b      	ldr	r3, [r3, #0]
 80028be:	2101      	movs	r1, #1
 80028c0:	4618      	mov	r0, r3
 80028c2:	f7fe ffe9 	bl	8001898 <LL_ADC_GetOffsetChannel>
 80028c6:	4603      	mov	r3, r0
 80028c8:	f3c3 0312 	ubfx	r3, r3, #0, #19
 80028cc:	2b00      	cmp	r3, #0
 80028ce:	d10a      	bne.n	80028e6 <HAL_ADC_ConfigChannel+0x1da>
 80028d0:	687b      	ldr	r3, [r7, #4]
 80028d2:	681b      	ldr	r3, [r3, #0]
 80028d4:	2101      	movs	r1, #1
 80028d6:	4618      	mov	r0, r3
 80028d8:	f7fe ffde 	bl	8001898 <LL_ADC_GetOffsetChannel>
 80028dc:	4603      	mov	r3, r0
 80028de:	0e9b      	lsrs	r3, r3, #26
 80028e0:	f003 021f 	and.w	r2, r3, #31
 80028e4:	e010      	b.n	8002908 <HAL_ADC_ConfigChannel+0x1fc>
 80028e6:	687b      	ldr	r3, [r7, #4]
 80028e8:	681b      	ldr	r3, [r3, #0]
 80028ea:	2101      	movs	r1, #1
 80028ec:	4618      	mov	r0, r3
 80028ee:	f7fe ffd3 	bl	8001898 <LL_ADC_GetOffsetChannel>
 80028f2:	4603      	mov	r3, r0
 80028f4:	673b      	str	r3, [r7, #112]	; 0x70
 80028f6:	6f3b      	ldr	r3, [r7, #112]	; 0x70
 80028f8:	fa93 f3a3 	rbit	r3, r3
 80028fc:	66fb      	str	r3, [r7, #108]	; 0x6c
 80028fe:	6efb      	ldr	r3, [r7, #108]	; 0x6c
 8002900:	fab3 f383 	clz	r3, r3
 8002904:	b2db      	uxtb	r3, r3
 8002906:	461a      	mov	r2, r3
 8002908:	683b      	ldr	r3, [r7, #0]
 800290a:	681b      	ldr	r3, [r3, #0]
 800290c:	f3c3 0312 	ubfx	r3, r3, #0, #19
 8002910:	2b00      	cmp	r3, #0
 8002912:	d105      	bne.n	8002920 <HAL_ADC_ConfigChannel+0x214>
 8002914:	683b      	ldr	r3, [r7, #0]
 8002916:	681b      	ldr	r3, [r3, #0]
 8002918:	0e9b      	lsrs	r3, r3, #26
 800291a:	f003 031f 	and.w	r3, r3, #31
 800291e:	e00a      	b.n	8002936 <HAL_ADC_ConfigChannel+0x22a>
 8002920:	683b      	ldr	r3, [r7, #0]
 8002922:	681b      	ldr	r3, [r3, #0]
 8002924:	66bb      	str	r3, [r7, #104]	; 0x68
 8002926:	6ebb      	ldr	r3, [r7, #104]	; 0x68
 8002928:	fa93 f3a3 	rbit	r3, r3
 800292c:	667b      	str	r3, [r7, #100]	; 0x64
 800292e:	6e7b      	ldr	r3, [r7, #100]	; 0x64
 8002930:	fab3 f383 	clz	r3, r3
 8002934:	b2db      	uxtb	r3, r3
 8002936:	429a      	cmp	r2, r3
 8002938:	d106      	bne.n	8002948 <HAL_ADC_ConfigChannel+0x23c>
 800293a:	687b      	ldr	r3, [r7, #4]
 800293c:	681b      	ldr	r3, [r3, #0]
 800293e:	2200      	movs	r2, #0
 8002940:	2101      	movs	r1, #1
 8002942:	4618      	mov	r0, r3
 8002944:	f7fe ffbc 	bl	80018c0 <LL_ADC_SetOffsetState>
 8002948:	687b      	ldr	r3, [r7, #4]
 800294a:	681b      	ldr	r3, [r3, #0]
 800294c:	2102      	movs	r1, #2
 800294e:	4618      	mov	r0, r3
 8002950:	f7fe ffa2 	bl	8001898 <LL_ADC_GetOffsetChannel>
 8002954:	4603      	mov	r3, r0
 8002956:	f3c3 0312 	ubfx	r3, r3, #0, #19
 800295a:	2b00      	cmp	r3, #0
 800295c:	d10a      	bne.n	8002974 <HAL_ADC_ConfigChannel+0x268>
 800295e:	687b      	ldr	r3, [r7, #4]
 8002960:	681b      	ldr	r3, [r3, #0]
 8002962:	2102      	movs	r1, #2
 8002964:	4618      	mov	r0, r3
 8002966:	f7fe ff97 	bl	8001898 <LL_ADC_GetOffsetChannel>
 800296a:	4603      	mov	r3, r0
 800296c:	0e9b      	lsrs	r3, r3, #26
 800296e:	f003 021f 	and.w	r2, r3, #31
 8002972:	e010      	b.n	8002996 <HAL_ADC_ConfigChannel+0x28a>
 8002974:	687b      	ldr	r3, [r7, #4]
 8002976:	681b      	ldr	r3, [r3, #0]
 8002978:	2102      	movs	r1, #2
 800297a:	4618      	mov	r0, r3
 800297c:	f7fe ff8c 	bl	8001898 <LL_ADC_GetOffsetChannel>
 8002980:	4603      	mov	r3, r0
 8002982:	663b      	str	r3, [r7, #96]	; 0x60
 8002984:	6e3b      	ldr	r3, [r7, #96]	; 0x60
 8002986:	fa93 f3a3 	rbit	r3, r3
 800298a:	65fb      	str	r3, [r7, #92]	; 0x5c
 800298c:	6dfb      	ldr	r3, [r7, #92]	; 0x5c
 800298e:	fab3 f383 	clz	r3, r3
 8002992:	b2db      	uxtb	r3, r3
 8002994:	461a      	mov	r2, r3
 8002996:	683b      	ldr	r3, [r7, #0]
 8002998:	681b      	ldr	r3, [r3, #0]
 800299a:	f3c3 0312 	ubfx	r3, r3, #0, #19
 800299e:	2b00      	cmp	r3, #0
 80029a0:	d105      	bne.n	80029ae <HAL_ADC_ConfigChannel+0x2a2>
 80029a2:	683b      	ldr	r3, [r7, #0]
 80029a4:	681b      	ldr	r3, [r3, #0]
 80029a6:	0e9b      	lsrs	r3, r3, #26
 80029a8:	f003 031f 	and.w	r3, r3, #31
 80029ac:	e00a      	b.n	80029c4 <HAL_ADC_ConfigChannel+0x2b8>
 80029ae:	683b      	ldr	r3, [r7, #0]
 80029b0:	681b      	ldr	r3, [r3, #0]
 80029b2:	65bb      	str	r3, [r7, #88]	; 0x58
 80029b4:	6dbb      	ldr	r3, [r7, #88]	; 0x58
 80029b6:	fa93 f3a3 	rbit	r3, r3
 80029ba:	657b      	str	r3, [r7, #84]	; 0x54
 80029bc:	6d7b      	ldr	r3, [r7, #84]	; 0x54
 80029be:	fab3 f383 	clz	r3, r3
 80029c2:	b2db      	uxtb	r3, r3
 80029c4:	429a      	cmp	r2, r3
 80029c6:	d106      	bne.n	80029d6 <HAL_ADC_ConfigChannel+0x2ca>
 80029c8:	687b      	ldr	r3, [r7, #4]
 80029ca:	681b      	ldr	r3, [r3, #0]
 80029cc:	2200      	movs	r2, #0
 80029ce:	2102      	movs	r1, #2
 80029d0:	4618      	mov	r0, r3
 80029d2:	f7fe ff75 	bl	80018c0 <LL_ADC_SetOffsetState>
 80029d6:	687b      	ldr	r3, [r7, #4]
 80029d8:	681b      	ldr	r3, [r3, #0]
 80029da:	2103      	movs	r1, #3
 80029dc:	4618      	mov	r0, r3
 80029de:	f7fe ff5b 	bl	8001898 <LL_ADC_GetOffsetChannel>
 80029e2:	4603      	mov	r3, r0
 80029e4:	f3c3 0312 	ubfx	r3, r3, #0, #19
 80029e8:	2b00      	cmp	r3, #0
 80029ea:	d10a      	bne.n	8002a02 <HAL_ADC_ConfigChannel+0x2f6>
 80029ec:	687b      	ldr	r3, [r7, #4]
 80029ee:	681b      	ldr	r3, [r3, #0]
 80029f0:	2103      	movs	r1, #3
 80029f2:	4618      	mov	r0, r3
 80029f4:	f7fe ff50 	bl	8001898 <LL_ADC_GetOffsetChannel>
 80029f8:	4603      	mov	r3, r0
 80029fa:	0e9b      	lsrs	r3, r3, #26
 80029fc:	f003 021f 	and.w	r2, r3, #31
 8002a00:	e010      	b.n	8002a24 <HAL_ADC_ConfigChannel+0x318>
 8002a02:	687b      	ldr	r3, [r7, #4]
 8002a04:	681b      	ldr	r3, [r3, #0]
 8002a06:	2103      	movs	r1, #3
 8002a08:	4618      	mov	r0, r3
 8002a0a:	f7fe ff45 	bl	8001898 <LL_ADC_GetOffsetChannel>
 8002a0e:	4603      	mov	r3, r0
 8002a10:	653b      	str	r3, [r7, #80]	; 0x50
 8002a12:	6d3b      	ldr	r3, [r7, #80]	; 0x50
 8002a14:	fa93 f3a3 	rbit	r3, r3
 8002a18:	64fb      	str	r3, [r7, #76]	; 0x4c
 8002a1a:	6cfb      	ldr	r3, [r7, #76]	; 0x4c
 8002a1c:	fab3 f383 	clz	r3, r3
 8002a20:	b2db      	uxtb	r3, r3
 8002a22:	461a      	mov	r2, r3
 8002a24:	683b      	ldr	r3, [r7, #0]
 8002a26:	681b      	ldr	r3, [r3, #0]
 8002a28:	f3c3 0312 	ubfx	r3, r3, #0, #19
 8002a2c:	2b00      	cmp	r3, #0
 8002a2e:	d105      	bne.n	8002a3c <HAL_ADC_ConfigChannel+0x330>
 8002a30:	683b      	ldr	r3, [r7, #0]
 8002a32:	681b      	ldr	r3, [r3, #0]
 8002a34:	0e9b      	lsrs	r3, r3, #26
 8002a36:	f003 031f 	and.w	r3, r3, #31
 8002a3a:	e00a      	b.n	8002a52 <HAL_ADC_ConfigChannel+0x346>
 8002a3c:	683b      	ldr	r3, [r7, #0]
 8002a3e:	681b      	ldr	r3, [r3, #0]
 8002a40:	64bb      	str	r3, [r7, #72]	; 0x48
 8002a42:	6cbb      	ldr	r3, [r7, #72]	; 0x48
 8002a44:	fa93 f3a3 	rbit	r3, r3
 8002a48:	647b      	str	r3, [r7, #68]	; 0x44
 8002a4a:	6c7b      	ldr	r3, [r7, #68]	; 0x44
 8002a4c:	fab3 f383 	clz	r3, r3
 8002a50:	b2db      	uxtb	r3, r3
 8002a52:	429a      	cmp	r2, r3
 8002a54:	d106      	bne.n	8002a64 <HAL_ADC_ConfigChannel+0x358>
 8002a56:	687b      	ldr	r3, [r7, #4]
 8002a58:	681b      	ldr	r3, [r3, #0]
 8002a5a:	2200      	movs	r2, #0
 8002a5c:	2103      	movs	r1, #3
 8002a5e:	4618      	mov	r0, r3
 8002a60:	f7fe ff2e 	bl	80018c0 <LL_ADC_SetOffsetState>
 8002a64:	687b      	ldr	r3, [r7, #4]
 8002a66:	681b      	ldr	r3, [r3, #0]
 8002a68:	4618      	mov	r0, r3
 8002a6a:	f7ff f86f 	bl	8001b4c <LL_ADC_IsEnabled>
 8002a6e:	4603      	mov	r3, r0
 8002a70:	2b00      	cmp	r3, #0
 8002a72:	f040 810c 	bne.w	8002c8e <HAL_ADC_ConfigChannel+0x582>
 8002a76:	687b      	ldr	r3, [r7, #4]
 8002a78:	6818      	ldr	r0, [r3, #0]
 8002a7a:	683b      	ldr	r3, [r7, #0]
 8002a7c:	6819      	ldr	r1, [r3, #0]
 8002a7e:	683b      	ldr	r3, [r7, #0]
 8002a80:	68db      	ldr	r3, [r3, #12]
 8002a82:	461a      	mov	r2, r3
 8002a84:	f7fe ffac 	bl	80019e0 <LL_ADC_SetChannelSingleDiff>
 8002a88:	683b      	ldr	r3, [r7, #0]
 8002a8a:	68db      	ldr	r3, [r3, #12]
 8002a8c:	4aad      	ldr	r2, [pc, #692]	; (8002d44 <HAL_ADC_ConfigChannel+0x638>)
 8002a8e:	4293      	cmp	r3, r2
 8002a90:	f040 80fd 	bne.w	8002c8e <HAL_ADC_ConfigChannel+0x582>
 8002a94:	687b      	ldr	r3, [r7, #4]
 8002a96:	6818      	ldr	r0, [r3, #0]
 8002a98:	683b      	ldr	r3, [r7, #0]
 8002a9a:	681b      	ldr	r3, [r3, #0]
 8002a9c:	f3c3 0312 	ubfx	r3, r3, #0, #19
 8002aa0:	2b00      	cmp	r3, #0
 8002aa2:	d10b      	bne.n	8002abc <HAL_ADC_ConfigChannel+0x3b0>
 8002aa4:	683b      	ldr	r3, [r7, #0]
 8002aa6:	681b      	ldr	r3, [r3, #0]
 8002aa8:	0e9b      	lsrs	r3, r3, #26
 8002aaa:	3301      	adds	r3, #1
 8002aac:	f003 031f 	and.w	r3, r3, #31
 8002ab0:	2b09      	cmp	r3, #9
 8002ab2:	bf94      	ite	ls
 8002ab4:	2301      	movls	r3, #1
 8002ab6:	2300      	movhi	r3, #0
 8002ab8:	b2db      	uxtb	r3, r3
 8002aba:	e012      	b.n	8002ae2 <HAL_ADC_ConfigChannel+0x3d6>
 8002abc:	683b      	ldr	r3, [r7, #0]
 8002abe:	681b      	ldr	r3, [r3, #0]
 8002ac0:	643b      	str	r3, [r7, #64]	; 0x40
 8002ac2:	6c3b      	ldr	r3, [r7, #64]	; 0x40
 8002ac4:	fa93 f3a3 	rbit	r3, r3
 8002ac8:	63fb      	str	r3, [r7, #60]	; 0x3c
 8002aca:	6bfb      	ldr	r3, [r7, #60]	; 0x3c
 8002acc:	fab3 f383 	clz	r3, r3
 8002ad0:	b2db      	uxtb	r3, r3
 8002ad2:	3301      	adds	r3, #1
 8002ad4:	f003 031f 	and.w	r3, r3, #31
 8002ad8:	2b09      	cmp	r3, #9
 8002ada:	bf94      	ite	ls
 8002adc:	2301      	movls	r3, #1
 8002ade:	2300      	movhi	r3, #0
 8002ae0:	b2db      	uxtb	r3, r3
 8002ae2:	2b00      	cmp	r3, #0
 8002ae4:	d064      	beq.n	8002bb0 <HAL_ADC_ConfigChannel+0x4a4>
 8002ae6:	683b      	ldr	r3, [r7, #0]
 8002ae8:	681b      	ldr	r3, [r3, #0]
 8002aea:	f3c3 0312 	ubfx	r3, r3, #0, #19
 8002aee:	2b00      	cmp	r3, #0
 8002af0:	d107      	bne.n	8002b02 <HAL_ADC_ConfigChannel+0x3f6>
 8002af2:	683b      	ldr	r3, [r7, #0]
 8002af4:	681b      	ldr	r3, [r3, #0]
 8002af6:	0e9b      	lsrs	r3, r3, #26
 8002af8:	3301      	adds	r3, #1
 8002afa:	069b      	lsls	r3, r3, #26
 8002afc:	f003 42f8 	and.w	r2, r3, #2080374784	; 0x7c000000
 8002b00:	e00e      	b.n	8002b20 <HAL_ADC_ConfigChannel+0x414>
 8002b02:	683b      	ldr	r3, [r7, #0]
 8002b04:	681b      	ldr	r3, [r3, #0]
 8002b06:	63bb      	str	r3, [r7, #56]	; 0x38
 8002b08:	6bbb      	ldr	r3, [r7, #56]	; 0x38
 8002b0a:	fa93 f3a3 	rbit	r3, r3
 8002b0e:	637b      	str	r3, [r7, #52]	; 0x34
 8002b10:	6b7b      	ldr	r3, [r7, #52]	; 0x34
 8002b12:	fab3 f383 	clz	r3, r3
 8002b16:	b2db      	uxtb	r3, r3
 8002b18:	3301      	adds	r3, #1
 8002b1a:	069b      	lsls	r3, r3, #26
 8002b1c:	f003 42f8 	and.w	r2, r3, #2080374784	; 0x7c000000
 8002b20:	683b      	ldr	r3, [r7, #0]
 8002b22:	681b      	ldr	r3, [r3, #0]
 8002b24:	f3c3 0312 	ubfx	r3, r3, #0, #19
 8002b28:	2b00      	cmp	r3, #0
 8002b2a:	d109      	bne.n	8002b40 <HAL_ADC_ConfigChannel+0x434>
 8002b2c:	683b      	ldr	r3, [r7, #0]
 8002b2e:	681b      	ldr	r3, [r3, #0]
 8002b30:	0e9b      	lsrs	r3, r3, #26
 8002b32:	3301      	adds	r3, #1
 8002b34:	f003 031f 	and.w	r3, r3, #31
 8002b38:	2101      	movs	r1, #1
 8002b3a:	fa01 f303 	lsl.w	r3, r1, r3
 8002b3e:	e010      	b.n	8002b62 <HAL_ADC_ConfigChannel+0x456>
 8002b40:	683b      	ldr	r3, [r7, #0]
 8002b42:	681b      	ldr	r3, [r3, #0]
 8002b44:	633b      	str	r3, [r7, #48]	; 0x30
 8002b46:	6b3b      	ldr	r3, [r7, #48]	; 0x30
 8002b48:	fa93 f3a3 	rbit	r3, r3
 8002b4c:	62fb      	str	r3, [r7, #44]	; 0x2c
 8002b4e:	6afb      	ldr	r3, [r7, #44]	; 0x2c
 8002b50:	fab3 f383 	clz	r3, r3
 8002b54:	b2db      	uxtb	r3, r3
 8002b56:	3301      	adds	r3, #1
 8002b58:	f003 031f 	and.w	r3, r3, #31
 8002b5c:	2101      	movs	r1, #1
 8002b5e:	fa01 f303 	lsl.w	r3, r1, r3
 8002b62:	ea42 0103 	orr.w	r1, r2, r3
 8002b66:	683b      	ldr	r3, [r7, #0]
 8002b68:	681b      	ldr	r3, [r3, #0]
 8002b6a:	f3c3 0312 	ubfx	r3, r3, #0, #19
 8002b6e:	2b00      	cmp	r3, #0
 8002b70:	d10a      	bne.n	8002b88 <HAL_ADC_ConfigChannel+0x47c>
 8002b72:	683b      	ldr	r3, [r7, #0]
 8002b74:	681b      	ldr	r3, [r3, #0]
 8002b76:	0e9b      	lsrs	r3, r3, #26
 8002b78:	3301      	adds	r3, #1
 8002b7a:	f003 021f 	and.w	r2, r3, #31
 8002b7e:	4613      	mov	r3, r2
 8002b80:	005b      	lsls	r3, r3, #1
 8002b82:	4413      	add	r3, r2
 8002b84:	051b      	lsls	r3, r3, #20
 8002b86:	e011      	b.n	8002bac <HAL_ADC_ConfigChannel+0x4a0>
 8002b88:	683b      	ldr	r3, [r7, #0]
 8002b8a:	681b      	ldr	r3, [r3, #0]
 8002b8c:	62bb      	str	r3, [r7, #40]	; 0x28
 8002b8e:	6abb      	ldr	r3, [r7, #40]	; 0x28
 8002b90:	fa93 f3a3 	rbit	r3, r3
 8002b94:	627b      	str	r3, [r7, #36]	; 0x24
 8002b96:	6a7b      	ldr	r3, [r7, #36]	; 0x24
 8002b98:	fab3 f383 	clz	r3, r3
 8002b9c:	b2db      	uxtb	r3, r3
 8002b9e:	3301      	adds	r3, #1
 8002ba0:	f003 021f 	and.w	r2, r3, #31
 8002ba4:	4613      	mov	r3, r2
 8002ba6:	005b      	lsls	r3, r3, #1
 8002ba8:	4413      	add	r3, r2
 8002baa:	051b      	lsls	r3, r3, #20
 8002bac:	430b      	orrs	r3, r1
 8002bae:	e069      	b.n	8002c84 <HAL_ADC_ConfigChannel+0x578>
 8002bb0:	683b      	ldr	r3, [r7, #0]
 8002bb2:	681b      	ldr	r3, [r3, #0]
 8002bb4:	f3c3 0312 	ubfx	r3, r3, #0, #19
 8002bb8:	2b00      	cmp	r3, #0
 8002bba:	d107      	bne.n	8002bcc <HAL_ADC_ConfigChannel+0x4c0>
 8002bbc:	683b      	ldr	r3, [r7, #0]
 8002bbe:	681b      	ldr	r3, [r3, #0]
 8002bc0:	0e9b      	lsrs	r3, r3, #26
 8002bc2:	3301      	adds	r3, #1
 8002bc4:	069b      	lsls	r3, r3, #26
 8002bc6:	f003 42f8 	and.w	r2, r3, #2080374784	; 0x7c000000
 8002bca:	e00e      	b.n	8002bea <HAL_ADC_ConfigChannel+0x4de>
 8002bcc:	683b      	ldr	r3, [r7, #0]
 8002bce:	681b      	ldr	r3, [r3, #0]
 8002bd0:	623b      	str	r3, [r7, #32]
 8002bd2:	6a3b      	ldr	r3, [r7, #32]
 8002bd4:	fa93 f3a3 	rbit	r3, r3
 8002bd8:	61fb      	str	r3, [r7, #28]
 8002bda:	69fb      	ldr	r3, [r7, #28]
 8002bdc:	fab3 f383 	clz	r3, r3
 8002be0:	b2db      	uxtb	r3, r3
 8002be2:	3301      	adds	r3, #1
 8002be4:	069b      	lsls	r3, r3, #26
 8002be6:	f003 42f8 	and.w	r2, r3, #2080374784	; 0x7c000000
 8002bea:	683b      	ldr	r3, [r7, #0]
 8002bec:	681b      	ldr	r3, [r3, #0]
 8002bee:	f3c3 0312 	ubfx	r3, r3, #0, #19
 8002bf2:	2b00      	cmp	r3, #0
 8002bf4:	d109      	bne.n	8002c0a <HAL_ADC_ConfigChannel+0x4fe>
 8002bf6:	683b      	ldr	r3, [r7, #0]
 8002bf8:	681b      	ldr	r3, [r3, #0]
 8002bfa:	0e9b      	lsrs	r3, r3, #26
 8002bfc:	3301      	adds	r3, #1
 8002bfe:	f003 031f 	and.w	r3, r3, #31
 8002c02:	2101      	movs	r1, #1
 8002c04:	fa01 f303 	lsl.w	r3, r1, r3
 8002c08:	e010      	b.n	8002c2c <HAL_ADC_ConfigChannel+0x520>
 8002c0a:	683b      	ldr	r3, [r7, #0]
 8002c0c:	681b      	ldr	r3, [r3, #0]
 8002c0e:	61bb      	str	r3, [r7, #24]
 8002c10:	69bb      	ldr	r3, [r7, #24]
 8002c12:	fa93 f3a3 	rbit	r3, r3
 8002c16:	617b      	str	r3, [r7, #20]
 8002c18:	697b      	ldr	r3, [r7, #20]
 8002c1a:	fab3 f383 	clz	r3, r3
 8002c1e:	b2db      	uxtb	r3, r3
 8002c20:	3301      	adds	r3, #1
 8002c22:	f003 031f 	and.w	r3, r3, #31
 8002c26:	2101      	movs	r1, #1
 8002c28:	fa01 f303 	lsl.w	r3, r1, r3
 8002c2c:	ea42 0103 	orr.w	r1, r2, r3
 8002c30:	683b      	ldr	r3, [r7, #0]
 8002c32:	681b      	ldr	r3, [r3, #0]
 8002c34:	f3c3 0312 	ubfx	r3, r3, #0, #19
 8002c38:	2b00      	cmp	r3, #0
 8002c3a:	d10d      	bne.n	8002c58 <HAL_ADC_ConfigChannel+0x54c>
 8002c3c:	683b      	ldr	r3, [r7, #0]
 8002c3e:	681b      	ldr	r3, [r3, #0]
 8002c40:	0e9b      	lsrs	r3, r3, #26
 8002c42:	3301      	adds	r3, #1
 8002c44:	f003 021f 	and.w	r2, r3, #31
 8002c48:	4613      	mov	r3, r2
 8002c4a:	005b      	lsls	r3, r3, #1
 8002c4c:	4413      	add	r3, r2
 8002c4e:	3b1e      	subs	r3, #30
 8002c50:	051b      	lsls	r3, r3, #20
 8002c52:	f043 7300 	orr.w	r3, r3, #33554432	; 0x2000000
 8002c56:	e014      	b.n	8002c82 <HAL_ADC_ConfigChannel+0x576>
 8002c58:	683b      	ldr	r3, [r7, #0]
 8002c5a:	681b      	ldr	r3, [r3, #0]
 8002c5c:	613b      	str	r3, [r7, #16]
 8002c5e:	693b      	ldr	r3, [r7, #16]
 8002c60:	fa93 f3a3 	rbit	r3, r3
 8002c64:	60fb      	str	r3, [r7, #12]
 8002c66:	68fb      	ldr	r3, [r7, #12]
 8002c68:	fab3 f383 	clz	r3, r3
 8002c6c:	b2db      	uxtb	r3, r3
 8002c6e:	3301      	adds	r3, #1
 8002c70:	f003 021f 	and.w	r2, r3, #31
 8002c74:	4613      	mov	r3, r2
 8002c76:	005b      	lsls	r3, r3, #1
 8002c78:	4413      	add	r3, r2
 8002c7a:	3b1e      	subs	r3, #30
 8002c7c:	051b      	lsls	r3, r3, #20
 8002c7e:	f043 7300 	orr.w	r3, r3, #33554432	; 0x2000000
 8002c82:	430b      	orrs	r3, r1
 8002c84:	683a      	ldr	r2, [r7, #0]
 8002c86:	6892      	ldr	r2, [r2, #8]
 8002c88:	4619      	mov	r1, r3
 8002c8a:	f7fe fe80 	bl	800198e <LL_ADC_SetChannelSamplingTime>
 8002c8e:	683b      	ldr	r3, [r7, #0]
 8002c90:	681a      	ldr	r2, [r3, #0]
 8002c92:	4b2d      	ldr	r3, [pc, #180]	; (8002d48 <HAL_ADC_ConfigChannel+0x63c>)
 8002c94:	4013      	ands	r3, r2
 8002c96:	2b00      	cmp	r3, #0
 8002c98:	f000 808c 	beq.w	8002db4 <HAL_ADC_ConfigChannel+0x6a8>
 8002c9c:	482b      	ldr	r0, [pc, #172]	; (8002d4c <HAL_ADC_ConfigChannel+0x640>)
 8002c9e:	f7fe fdcb 	bl	8001838 <LL_ADC_GetCommonPathInternalCh>
 8002ca2:	f8c7 0084 	str.w	r0, [r7, #132]	; 0x84
 8002ca6:	683b      	ldr	r3, [r7, #0]
 8002ca8:	681b      	ldr	r3, [r3, #0]
 8002caa:	4a29      	ldr	r2, [pc, #164]	; (8002d50 <HAL_ADC_ConfigChannel+0x644>)
 8002cac:	4293      	cmp	r3, r2
 8002cae:	d12b      	bne.n	8002d08 <HAL_ADC_ConfigChannel+0x5fc>
 8002cb0:	f8d7 3084 	ldr.w	r3, [r7, #132]	; 0x84
 8002cb4:	f403 0300 	and.w	r3, r3, #8388608	; 0x800000
 8002cb8:	2b00      	cmp	r3, #0
 8002cba:	d125      	bne.n	8002d08 <HAL_ADC_ConfigChannel+0x5fc>
 8002cbc:	687b      	ldr	r3, [r7, #4]
 8002cbe:	681b      	ldr	r3, [r3, #0]
 8002cc0:	4a24      	ldr	r2, [pc, #144]	; (8002d54 <HAL_ADC_ConfigChannel+0x648>)
 8002cc2:	4293      	cmp	r3, r2
 8002cc4:	d004      	beq.n	8002cd0 <HAL_ADC_ConfigChannel+0x5c4>
 8002cc6:	687b      	ldr	r3, [r7, #4]
 8002cc8:	681b      	ldr	r3, [r3, #0]
 8002cca:	4a23      	ldr	r2, [pc, #140]	; (8002d58 <HAL_ADC_ConfigChannel+0x64c>)
 8002ccc:	4293      	cmp	r3, r2
 8002cce:	d16e      	bne.n	8002dae <HAL_ADC_ConfigChannel+0x6a2>
 8002cd0:	f8d7 3084 	ldr.w	r3, [r7, #132]	; 0x84
 8002cd4:	f443 0300 	orr.w	r3, r3, #8388608	; 0x800000
 8002cd8:	4619      	mov	r1, r3
 8002cda:	481c      	ldr	r0, [pc, #112]	; (8002d4c <HAL_ADC_ConfigChannel+0x640>)
 8002cdc:	f7fe fd99 	bl	8001812 <LL_ADC_SetCommonPathInternalCh>
 8002ce0:	4b1e      	ldr	r3, [pc, #120]	; (8002d5c <HAL_ADC_ConfigChannel+0x650>)
 8002ce2:	681b      	ldr	r3, [r3, #0]
 8002ce4:	099b      	lsrs	r3, r3, #6
 8002ce6:	4a1e      	ldr	r2, [pc, #120]	; (8002d60 <HAL_ADC_ConfigChannel+0x654>)
 8002ce8:	fba2 2303 	umull	r2, r3, r2, r3
 8002cec:	099a      	lsrs	r2, r3, #6
 8002cee:	4613      	mov	r3, r2
 8002cf0:	005b      	lsls	r3, r3, #1
 8002cf2:	4413      	add	r3, r2
 8002cf4:	009b      	lsls	r3, r3, #2
 8002cf6:	60bb      	str	r3, [r7, #8]
 8002cf8:	e002      	b.n	8002d00 <HAL_ADC_ConfigChannel+0x5f4>
 8002cfa:	68bb      	ldr	r3, [r7, #8]
 8002cfc:	3b01      	subs	r3, #1
 8002cfe:	60bb      	str	r3, [r7, #8]
 8002d00:	68bb      	ldr	r3, [r7, #8]
 8002d02:	2b00      	cmp	r3, #0
 8002d04:	d1f9      	bne.n	8002cfa <HAL_ADC_ConfigChannel+0x5ee>
 8002d06:	e052      	b.n	8002dae <HAL_ADC_ConfigChannel+0x6a2>
 8002d08:	683b      	ldr	r3, [r7, #0]
 8002d0a:	681b      	ldr	r3, [r3, #0]
 8002d0c:	4a15      	ldr	r2, [pc, #84]	; (8002d64 <HAL_ADC_ConfigChannel+0x658>)
 8002d0e:	4293      	cmp	r3, r2
 8002d10:	d12a      	bne.n	8002d68 <HAL_ADC_ConfigChannel+0x65c>
 8002d12:	f8d7 3084 	ldr.w	r3, [r7, #132]	; 0x84
 8002d16:	f003 7380 	and.w	r3, r3, #16777216	; 0x1000000
 8002d1a:	2b00      	cmp	r3, #0
 8002d1c:	d124      	bne.n	8002d68 <HAL_ADC_ConfigChannel+0x65c>
 8002d1e:	687b      	ldr	r3, [r7, #4]
 8002d20:	681b      	ldr	r3, [r3, #0]
 8002d22:	4a0c      	ldr	r2, [pc, #48]	; (8002d54 <HAL_ADC_ConfigChannel+0x648>)
 8002d24:	4293      	cmp	r3, r2
 8002d26:	d004      	beq.n	8002d32 <HAL_ADC_ConfigChannel+0x626>
 8002d28:	687b      	ldr	r3, [r7, #4]
 8002d2a:	681b      	ldr	r3, [r3, #0]
 8002d2c:	4a0a      	ldr	r2, [pc, #40]	; (8002d58 <HAL_ADC_ConfigChannel+0x64c>)
 8002d2e:	4293      	cmp	r3, r2
 8002d30:	d13f      	bne.n	8002db2 <HAL_ADC_ConfigChannel+0x6a6>
 8002d32:	f8d7 3084 	ldr.w	r3, [r7, #132]	; 0x84
 8002d36:	f043 7380 	orr.w	r3, r3, #16777216	; 0x1000000
 8002d3a:	4619      	mov	r1, r3
 8002d3c:	4803      	ldr	r0, [pc, #12]	; (8002d4c <HAL_ADC_ConfigChannel+0x640>)
 8002d3e:	f7fe fd68 	bl	8001812 <LL_ADC_SetCommonPathInternalCh>
 8002d42:	e036      	b.n	8002db2 <HAL_ADC_ConfigChannel+0x6a6>
 8002d44:	407f0000 	.word	0x407f0000
 8002d48:	80080000 	.word	0x80080000
 8002d4c:	50040300 	.word	0x50040300
 8002d50:	c7520000 	.word	0xc7520000
 8002d54:	50040000 	.word	0x50040000
 8002d58:	50040200 	.word	0x50040200
 8002d5c:	20000000 	.word	0x20000000
 8002d60:	053e2d63 	.word	0x053e2d63
 8002d64:	cb840000 	.word	0xcb840000
 8002d68:	683b      	ldr	r3, [r7, #0]
 8002d6a:	681b      	ldr	r3, [r3, #0]
 8002d6c:	4a16      	ldr	r2, [pc, #88]	; (8002dc8 <HAL_ADC_ConfigChannel+0x6bc>)
 8002d6e:	4293      	cmp	r3, r2
 8002d70:	d120      	bne.n	8002db4 <HAL_ADC_ConfigChannel+0x6a8>
 8002d72:	f8d7 3084 	ldr.w	r3, [r7, #132]	; 0x84
 8002d76:	f403 0380 	and.w	r3, r3, #4194304	; 0x400000
 8002d7a:	2b00      	cmp	r3, #0
 8002d7c:	d11a      	bne.n	8002db4 <HAL_ADC_ConfigChannel+0x6a8>
 8002d7e:	687b      	ldr	r3, [r7, #4]
 8002d80:	681b      	ldr	r3, [r3, #0]
 8002d82:	4a12      	ldr	r2, [pc, #72]	; (8002dcc <HAL_ADC_ConfigChannel+0x6c0>)
 8002d84:	4293      	cmp	r3, r2
 8002d86:	d115      	bne.n	8002db4 <HAL_ADC_ConfigChannel+0x6a8>
 8002d88:	f8d7 3084 	ldr.w	r3, [r7, #132]	; 0x84
 8002d8c:	f443 0380 	orr.w	r3, r3, #4194304	; 0x400000
 8002d90:	4619      	mov	r1, r3
 8002d92:	480f      	ldr	r0, [pc, #60]	; (8002dd0 <HAL_ADC_ConfigChannel+0x6c4>)
 8002d94:	f7fe fd3d 	bl	8001812 <LL_ADC_SetCommonPathInternalCh>
 8002d98:	e00c      	b.n	8002db4 <HAL_ADC_ConfigChannel+0x6a8>
 8002d9a:	687b      	ldr	r3, [r7, #4]
 8002d9c:	6d5b      	ldr	r3, [r3, #84]	; 0x54
 8002d9e:	f043 0220 	orr.w	r2, r3, #32
 8002da2:	687b      	ldr	r3, [r7, #4]
 8002da4:	655a      	str	r2, [r3, #84]	; 0x54
 8002da6:	2301      	movs	r3, #1
 8002da8:	f887 3097 	strb.w	r3, [r7, #151]	; 0x97
 8002dac:	e002      	b.n	8002db4 <HAL_ADC_ConfigChannel+0x6a8>
 8002dae:	bf00      	nop
 8002db0:	e000      	b.n	8002db4 <HAL_ADC_ConfigChannel+0x6a8>
 8002db2:	bf00      	nop
 8002db4:	687b      	ldr	r3, [r7, #4]
 8002db6:	2200      	movs	r2, #0
 8002db8:	f883 2050 	strb.w	r2, [r3, #80]	; 0x50
 8002dbc:	f897 3097 	ldrb.w	r3, [r7, #151]	; 0x97
 8002dc0:	4618      	mov	r0, r3
 8002dc2:	3798      	adds	r7, #152	; 0x98
 8002dc4:	46bd      	mov	sp, r7
 8002dc6:	bd80      	pop	{r7, pc}
 8002dc8:	80000001 	.word	0x80000001
 8002dcc:	50040000 	.word	0x50040000
 8002dd0:	50040300 	.word	0x50040300

08002dd4 <ADC_ConversionStop>:
 8002dd4:	b580      	push	{r7, lr}
 8002dd6:	b088      	sub	sp, #32
 8002dd8:	af00      	add	r7, sp, #0
 8002dda:	6078      	str	r0, [r7, #4]
 8002ddc:	6039      	str	r1, [r7, #0]
 8002dde:	2300      	movs	r3, #0
 8002de0:	61fb      	str	r3, [r7, #28]
 8002de2:	683b      	ldr	r3, [r7, #0]
 8002de4:	61bb      	str	r3, [r7, #24]
 8002de6:	687b      	ldr	r3, [r7, #4]
 8002de8:	681b      	ldr	r3, [r3, #0]
 8002dea:	4618      	mov	r0, r3
 8002dec:	f7fe fefc 	bl	8001be8 <LL_ADC_REG_IsConversionOngoing>
 8002df0:	6138      	str	r0, [r7, #16]
 8002df2:	687b      	ldr	r3, [r7, #4]
 8002df4:	681b      	ldr	r3, [r3, #0]
 8002df6:	4618      	mov	r0, r3
 8002df8:	f7fe ff1d 	bl	8001c36 <LL_ADC_INJ_IsConversionOngoing>
 8002dfc:	60f8      	str	r0, [r7, #12]
 8002dfe:	693b      	ldr	r3, [r7, #16]
 8002e00:	2b00      	cmp	r3, #0
 8002e02:	d103      	bne.n	8002e0c <ADC_ConversionStop+0x38>
 8002e04:	68fb      	ldr	r3, [r7, #12]
 8002e06:	2b00      	cmp	r3, #0
 8002e08:	f000 8090 	beq.w	8002f2c <ADC_ConversionStop+0x158>
 8002e0c:	687b      	ldr	r3, [r7, #4]
 8002e0e:	681b      	ldr	r3, [r3, #0]
 8002e10:	68db      	ldr	r3, [r3, #12]
 8002e12:	f003 7300 	and.w	r3, r3, #33554432	; 0x2000000
 8002e16:	2b00      	cmp	r3, #0
 8002e18:	d02a      	beq.n	8002e70 <ADC_ConversionStop+0x9c>
 8002e1a:	687b      	ldr	r3, [r7, #4]
 8002e1c:	7e5b      	ldrb	r3, [r3, #25]
 8002e1e:	2b01      	cmp	r3, #1
 8002e20:	d126      	bne.n	8002e70 <ADC_ConversionStop+0x9c>
 8002e22:	687b      	ldr	r3, [r7, #4]
 8002e24:	7e1b      	ldrb	r3, [r3, #24]
 8002e26:	2b01      	cmp	r3, #1
 8002e28:	d122      	bne.n	8002e70 <ADC_ConversionStop+0x9c>
 8002e2a:	2301      	movs	r3, #1
 8002e2c:	61bb      	str	r3, [r7, #24]
 8002e2e:	e014      	b.n	8002e5a <ADC_ConversionStop+0x86>
 8002e30:	69fb      	ldr	r3, [r7, #28]
 8002e32:	4a41      	ldr	r2, [pc, #260]	; (8002f38 <ADC_ConversionStop+0x164>)
 8002e34:	4293      	cmp	r3, r2
 8002e36:	d90d      	bls.n	8002e54 <ADC_ConversionStop+0x80>
 8002e38:	687b      	ldr	r3, [r7, #4]
 8002e3a:	6d5b      	ldr	r3, [r3, #84]	; 0x54
 8002e3c:	f043 0210 	orr.w	r2, r3, #16
 8002e40:	687b      	ldr	r3, [r7, #4]
 8002e42:	655a      	str	r2, [r3, #84]	; 0x54
 8002e44:	687b      	ldr	r3, [r7, #4]
 8002e46:	6d9b      	ldr	r3, [r3, #88]	; 0x58
 8002e48:	f043 0201 	orr.w	r2, r3, #1
 8002e4c:	687b      	ldr	r3, [r7, #4]
 8002e4e:	659a      	str	r2, [r3, #88]	; 0x58
 8002e50:	2301      	movs	r3, #1
 8002e52:	e06c      	b.n	8002f2e <ADC_ConversionStop+0x15a>
 8002e54:	69fb      	ldr	r3, [r7, #28]
 8002e56:	3301      	adds	r3, #1
 8002e58:	61fb      	str	r3, [r7, #28]
 8002e5a:	687b      	ldr	r3, [r7, #4]
 8002e5c:	681b      	ldr	r3, [r3, #0]
 8002e5e:	681b      	ldr	r3, [r3, #0]
 8002e60:	f003 0340 	and.w	r3, r3, #64	; 0x40
 8002e64:	2b40      	cmp	r3, #64	; 0x40
 8002e66:	d1e3      	bne.n	8002e30 <ADC_ConversionStop+0x5c>
 8002e68:	687b      	ldr	r3, [r7, #4]
 8002e6a:	681b      	ldr	r3, [r3, #0]
 8002e6c:	2240      	movs	r2, #64	; 0x40
 8002e6e:	601a      	str	r2, [r3, #0]
 8002e70:	69bb      	ldr	r3, [r7, #24]
 8002e72:	2b02      	cmp	r3, #2
 8002e74:	d014      	beq.n	8002ea0 <ADC_ConversionStop+0xcc>
 8002e76:	687b      	ldr	r3, [r7, #4]
 8002e78:	681b      	ldr	r3, [r3, #0]
 8002e7a:	4618      	mov	r0, r3
 8002e7c:	f7fe feb4 	bl	8001be8 <LL_ADC_REG_IsConversionOngoing>
 8002e80:	4603      	mov	r3, r0
 8002e82:	2b00      	cmp	r3, #0
 8002e84:	d00c      	beq.n	8002ea0 <ADC_ConversionStop+0xcc>
 8002e86:	687b      	ldr	r3, [r7, #4]
 8002e88:	681b      	ldr	r3, [r3, #0]
 8002e8a:	4618      	mov	r0, r3
 8002e8c:	f7fe fe71 	bl	8001b72 <LL_ADC_IsDisableOngoing>
 8002e90:	4603      	mov	r3, r0
 8002e92:	2b00      	cmp	r3, #0
 8002e94:	d104      	bne.n	8002ea0 <ADC_ConversionStop+0xcc>
 8002e96:	687b      	ldr	r3, [r7, #4]
 8002e98:	681b      	ldr	r3, [r3, #0]
 8002e9a:	4618      	mov	r0, r3
 8002e9c:	f7fe fe90 	bl	8001bc0 <LL_ADC_REG_StopConversion>
 8002ea0:	69bb      	ldr	r3, [r7, #24]
 8002ea2:	2b01      	cmp	r3, #1
 8002ea4:	d014      	beq.n	8002ed0 <ADC_ConversionStop+0xfc>
 8002ea6:	687b      	ldr	r3, [r7, #4]
 8002ea8:	681b      	ldr	r3, [r3, #0]
 8002eaa:	4618      	mov	r0, r3
 8002eac:	f7fe fec3 	bl	8001c36 <LL_ADC_INJ_IsConversionOngoing>
 8002eb0:	4603      	mov	r3, r0
 8002eb2:	2b00      	cmp	r3, #0
 8002eb4:	d00c      	beq.n	8002ed0 <ADC_ConversionStop+0xfc>
 8002eb6:	687b      	ldr	r3, [r7, #4]
 8002eb8:	681b      	ldr	r3, [r3, #0]
 8002eba:	4618      	mov	r0, r3
 8002ebc:	f7fe fe59 	bl	8001b72 <LL_ADC_IsDisableOngoing>
 8002ec0:	4603      	mov	r3, r0
 8002ec2:	2b00      	cmp	r3, #0
 8002ec4:	d104      	bne.n	8002ed0 <ADC_ConversionStop+0xfc>
 8002ec6:	687b      	ldr	r3, [r7, #4]
 8002ec8:	681b      	ldr	r3, [r3, #0]
 8002eca:	4618      	mov	r0, r3
 8002ecc:	f7fe fe9f 	bl	8001c0e <LL_ADC_INJ_StopConversion>
 8002ed0:	69bb      	ldr	r3, [r7, #24]
 8002ed2:	2b02      	cmp	r3, #2
 8002ed4:	d004      	beq.n	8002ee0 <ADC_ConversionStop+0x10c>
 8002ed6:	2b03      	cmp	r3, #3
 8002ed8:	d105      	bne.n	8002ee6 <ADC_ConversionStop+0x112>
 8002eda:	230c      	movs	r3, #12
 8002edc:	617b      	str	r3, [r7, #20]
 8002ede:	e005      	b.n	8002eec <ADC_ConversionStop+0x118>
 8002ee0:	2308      	movs	r3, #8
 8002ee2:	617b      	str	r3, [r7, #20]
 8002ee4:	e002      	b.n	8002eec <ADC_ConversionStop+0x118>
 8002ee6:	2304      	movs	r3, #4
 8002ee8:	617b      	str	r3, [r7, #20]
 8002eea:	bf00      	nop
 8002eec:	f7fe fc50 	bl	8001790 <HAL_GetTick>
 8002ef0:	60b8      	str	r0, [r7, #8]
 8002ef2:	e014      	b.n	8002f1e <ADC_ConversionStop+0x14a>
 8002ef4:	f7fe fc4c 	bl	8001790 <HAL_GetTick>
 8002ef8:	4602      	mov	r2, r0
 8002efa:	68bb      	ldr	r3, [r7, #8]
 8002efc:	1ad3      	subs	r3, r2, r3
 8002efe:	2b05      	cmp	r3, #5
 8002f00:	d90d      	bls.n	8002f1e <ADC_ConversionStop+0x14a>
 8002f02:	687b      	ldr	r3, [r7, #4]
 8002f04:	6d5b      	ldr	r3, [r3, #84]	; 0x54
 8002f06:	f043 0210 	orr.w	r2, r3, #16
 8002f0a:	687b      	ldr	r3, [r7, #4]
 8002f0c:	655a      	str	r2, [r3, #84]	; 0x54
 8002f0e:	687b      	ldr	r3, [r7, #4]
 8002f10:	6d9b      	ldr	r3, [r3, #88]	; 0x58
 8002f12:	f043 0201 	orr.w	r2, r3, #1
 8002f16:	687b      	ldr	r3, [r7, #4]
 8002f18:	659a      	str	r2, [r3, #88]	; 0x58
 8002f1a:	2301      	movs	r3, #1
 8002f1c:	e007      	b.n	8002f2e <ADC_ConversionStop+0x15a>
 8002f1e:	687b      	ldr	r3, [r7, #4]
 8002f20:	681b      	ldr	r3, [r3, #0]
 8002f22:	689a      	ldr	r2, [r3, #8]
 8002f24:	697b      	ldr	r3, [r7, #20]
 8002f26:	4013      	ands	r3, r2
 8002f28:	2b00      	cmp	r3, #0
 8002f2a:	d1e3      	bne.n	8002ef4 <ADC_ConversionStop+0x120>
 8002f2c:	2300      	movs	r3, #0
 8002f2e:	4618      	mov	r0, r3
 8002f30:	3720      	adds	r7, #32
 8002f32:	46bd      	mov	sp, r7
 8002f34:	bd80      	pop	{r7, pc}
 8002f36:	bf00      	nop
 8002f38:	a33fffff 	.word	0xa33fffff

08002f3c <ADC_Enable>:
 8002f3c:	b580      	push	{r7, lr}
 8002f3e:	b084      	sub	sp, #16
 8002f40:	af00      	add	r7, sp, #0
 8002f42:	6078      	str	r0, [r7, #4]
 8002f44:	687b      	ldr	r3, [r7, #4]
 8002f46:	681b      	ldr	r3, [r3, #0]
 8002f48:	4618      	mov	r0, r3
 8002f4a:	f7fe fdff 	bl	8001b4c <LL_ADC_IsEnabled>
 8002f4e:	4603      	mov	r3, r0
 8002f50:	2b00      	cmp	r3, #0
 8002f52:	d146      	bne.n	8002fe2 <ADC_Enable+0xa6>
 8002f54:	687b      	ldr	r3, [r7, #4]
 8002f56:	681b      	ldr	r3, [r3, #0]
 8002f58:	689a      	ldr	r2, [r3, #8]
 8002f5a:	4b24      	ldr	r3, [pc, #144]	; (8002fec <ADC_Enable+0xb0>)
 8002f5c:	4013      	ands	r3, r2
 8002f5e:	2b00      	cmp	r3, #0
 8002f60:	d00d      	beq.n	8002f7e <ADC_Enable+0x42>
 8002f62:	687b      	ldr	r3, [r7, #4]
 8002f64:	6d5b      	ldr	r3, [r3, #84]	; 0x54
 8002f66:	f043 0210 	orr.w	r2, r3, #16
 8002f6a:	687b      	ldr	r3, [r7, #4]
 8002f6c:	655a      	str	r2, [r3, #84]	; 0x54
 8002f6e:	687b      	ldr	r3, [r7, #4]
 8002f70:	6d9b      	ldr	r3, [r3, #88]	; 0x58
 8002f72:	f043 0201 	orr.w	r2, r3, #1
 8002f76:	687b      	ldr	r3, [r7, #4]
 8002f78:	659a      	str	r2, [r3, #88]	; 0x58
 8002f7a:	2301      	movs	r3, #1
 8002f7c:	e032      	b.n	8002fe4 <ADC_Enable+0xa8>
 8002f7e:	687b      	ldr	r3, [r7, #4]
 8002f80:	681b      	ldr	r3, [r3, #0]
 8002f82:	4618      	mov	r0, r3
 8002f84:	f7fe fdba 	bl	8001afc <LL_ADC_Enable>
 8002f88:	f7fe fc02 	bl	8001790 <HAL_GetTick>
 8002f8c:	60f8      	str	r0, [r7, #12]
 8002f8e:	e021      	b.n	8002fd4 <ADC_Enable+0x98>
 8002f90:	687b      	ldr	r3, [r7, #4]
 8002f92:	681b      	ldr	r3, [r3, #0]
 8002f94:	4618      	mov	r0, r3
 8002f96:	f7fe fdd9 	bl	8001b4c <LL_ADC_IsEnabled>
 8002f9a:	4603      	mov	r3, r0
 8002f9c:	2b00      	cmp	r3, #0
 8002f9e:	d104      	bne.n	8002faa <ADC_Enable+0x6e>
 8002fa0:	687b      	ldr	r3, [r7, #4]
 8002fa2:	681b      	ldr	r3, [r3, #0]
 8002fa4:	4618      	mov	r0, r3
 8002fa6:	f7fe fda9 	bl	8001afc <LL_ADC_Enable>
 8002faa:	f7fe fbf1 	bl	8001790 <HAL_GetTick>
 8002fae:	4602      	mov	r2, r0
 8002fb0:	68fb      	ldr	r3, [r7, #12]
 8002fb2:	1ad3      	subs	r3, r2, r3
 8002fb4:	2b02      	cmp	r3, #2
 8002fb6:	d90d      	bls.n	8002fd4 <ADC_Enable+0x98>
 8002fb8:	687b      	ldr	r3, [r7, #4]
 8002fba:	6d5b      	ldr	r3, [r3, #84]	; 0x54
 8002fbc:	f043 0210 	orr.w	r2, r3, #16
 8002fc0:	687b      	ldr	r3, [r7, #4]
 8002fc2:	655a      	str	r2, [r3, #84]	; 0x54
 8002fc4:	687b      	ldr	r3, [r7, #4]
 8002fc6:	6d9b      	ldr	r3, [r3, #88]	; 0x58
 8002fc8:	f043 0201 	orr.w	r2, r3, #1
 8002fcc:	687b      	ldr	r3, [r7, #4]
 8002fce:	659a      	str	r2, [r3, #88]	; 0x58
 8002fd0:	2301      	movs	r3, #1
 8002fd2:	e007      	b.n	8002fe4 <ADC_Enable+0xa8>
 8002fd4:	687b      	ldr	r3, [r7, #4]
 8002fd6:	681b      	ldr	r3, [r3, #0]
 8002fd8:	681b      	ldr	r3, [r3, #0]
 8002fda:	f003 0301 	and.w	r3, r3, #1
 8002fde:	2b01      	cmp	r3, #1
 8002fe0:	d1d6      	bne.n	8002f90 <ADC_Enable+0x54>
 8002fe2:	2300      	movs	r3, #0
 8002fe4:	4618      	mov	r0, r3
 8002fe6:	3710      	adds	r7, #16
 8002fe8:	46bd      	mov	sp, r7
 8002fea:	bd80      	pop	{r7, pc}
 8002fec:	8000003f 	.word	0x8000003f

08002ff0 <ADC_Disable>:
 8002ff0:	b580      	push	{r7, lr}
 8002ff2:	b084      	sub	sp, #16
 8002ff4:	af00      	add	r7, sp, #0
 8002ff6:	6078      	str	r0, [r7, #4]
 8002ff8:	687b      	ldr	r3, [r7, #4]
 8002ffa:	681b      	ldr	r3, [r3, #0]
 8002ffc:	4618      	mov	r0, r3
 8002ffe:	f7fe fdb8 	bl	8001b72 <LL_ADC_IsDisableOngoing>
 8003002:	60f8      	str	r0, [r7, #12]
 8003004:	687b      	ldr	r3, [r7, #4]
 8003006:	681b      	ldr	r3, [r3, #0]
 8003008:	4618      	mov	r0, r3
 800300a:	f7fe fd9f 	bl	8001b4c <LL_ADC_IsEnabled>
 800300e:	4603      	mov	r3, r0
 8003010:	2b00      	cmp	r3, #0
 8003012:	d040      	beq.n	8003096 <ADC_Disable+0xa6>
 8003014:	68fb      	ldr	r3, [r7, #12]
 8003016:	2b00      	cmp	r3, #0
 8003018:	d13d      	bne.n	8003096 <ADC_Disable+0xa6>
 800301a:	687b      	ldr	r3, [r7, #4]
 800301c:	681b      	ldr	r3, [r3, #0]
 800301e:	689b      	ldr	r3, [r3, #8]
 8003020:	f003 030d 	and.w	r3, r3, #13
 8003024:	2b01      	cmp	r3, #1
 8003026:	d10c      	bne.n	8003042 <ADC_Disable+0x52>
 8003028:	687b      	ldr	r3, [r7, #4]
 800302a:	681b      	ldr	r3, [r3, #0]
 800302c:	4618      	mov	r0, r3
 800302e:	f7fe fd79 	bl	8001b24 <LL_ADC_Disable>
 8003032:	687b      	ldr	r3, [r7, #4]
 8003034:	681b      	ldr	r3, [r3, #0]
 8003036:	2203      	movs	r2, #3
 8003038:	601a      	str	r2, [r3, #0]
 800303a:	f7fe fba9 	bl	8001790 <HAL_GetTick>
 800303e:	60b8      	str	r0, [r7, #8]
 8003040:	e022      	b.n	8003088 <ADC_Disable+0x98>
 8003042:	687b      	ldr	r3, [r7, #4]
 8003044:	6d5b      	ldr	r3, [r3, #84]	; 0x54
 8003046:	f043 0210 	orr.w	r2, r3, #16
 800304a:	687b      	ldr	r3, [r7, #4]
 800304c:	655a      	str	r2, [r3, #84]	; 0x54
 800304e:	687b      	ldr	r3, [r7, #4]
 8003050:	6d9b      	ldr	r3, [r3, #88]	; 0x58
 8003052:	f043 0201 	orr.w	r2, r3, #1
 8003056:	687b      	ldr	r3, [r7, #4]
 8003058:	659a      	str	r2, [r3, #88]	; 0x58
 800305a:	2301      	movs	r3, #1
 800305c:	e01c      	b.n	8003098 <ADC_Disable+0xa8>
 800305e:	f7fe fb97 	bl	8001790 <HAL_GetTick>
 8003062:	4602      	mov	r2, r0
 8003064:	68bb      	ldr	r3, [r7, #8]
 8003066:	1ad3      	subs	r3, r2, r3
 8003068:	2b02      	cmp	r3, #2
 800306a:	d90d      	bls.n	8003088 <ADC_Disable+0x98>
 800306c:	687b      	ldr	r3, [r7, #4]
 800306e:	6d5b      	ldr	r3, [r3, #84]	; 0x54
 8003070:	f043 0210 	orr.w	r2, r3, #16
 8003074:	687b      	ldr	r3, [r7, #4]
 8003076:	655a      	str	r2, [r3, #84]	; 0x54
 8003078:	687b      	ldr	r3, [r7, #4]
 800307a:	6d9b      	ldr	r3, [r3, #88]	; 0x58
 800307c:	f043 0201 	orr.w	r2, r3, #1
 8003080:	687b      	ldr	r3, [r7, #4]
 8003082:	659a      	str	r2, [r3, #88]	; 0x58
 8003084:	2301      	movs	r3, #1
 8003086:	e007      	b.n	8003098 <ADC_Disable+0xa8>
 8003088:	687b      	ldr	r3, [r7, #4]
 800308a:	681b      	ldr	r3, [r3, #0]
 800308c:	689b      	ldr	r3, [r3, #8]
 800308e:	f003 0301 	and.w	r3, r3, #1
 8003092:	2b00      	cmp	r3, #0
 8003094:	d1e3      	bne.n	800305e <ADC_Disable+0x6e>
 8003096:	2300      	movs	r3, #0
 8003098:	4618      	mov	r0, r3
 800309a:	3710      	adds	r7, #16
 800309c:	46bd      	mov	sp, r7
 800309e:	bd80      	pop	{r7, pc}

080030a0 <LL_ADC_IsEnabled>:
 80030a0:	b480      	push	{r7}
 80030a2:	b083      	sub	sp, #12
 80030a4:	af00      	add	r7, sp, #0
 80030a6:	6078      	str	r0, [r7, #4]
 80030a8:	687b      	ldr	r3, [r7, #4]
 80030aa:	689b      	ldr	r3, [r3, #8]
 80030ac:	f003 0301 	and.w	r3, r3, #1
 80030b0:	2b01      	cmp	r3, #1
 80030b2:	d101      	bne.n	80030b8 <LL_ADC_IsEnabled+0x18>
 80030b4:	2301      	movs	r3, #1
 80030b6:	e000      	b.n	80030ba <LL_ADC_IsEnabled+0x1a>
 80030b8:	2300      	movs	r3, #0
 80030ba:	4618      	mov	r0, r3
 80030bc:	370c      	adds	r7, #12
 80030be:	46bd      	mov	sp, r7
 80030c0:	f85d 7b04 	ldr.w	r7, [sp], #4
 80030c4:	4770      	bx	lr

080030c6 <LL_ADC_REG_IsConversionOngoing>:
 80030c6:	b480      	push	{r7}
 80030c8:	b083      	sub	sp, #12
 80030ca:	af00      	add	r7, sp, #0
 80030cc:	6078      	str	r0, [r7, #4]
 80030ce:	687b      	ldr	r3, [r7, #4]
 80030d0:	689b      	ldr	r3, [r3, #8]
 80030d2:	f003 0304 	and.w	r3, r3, #4
 80030d6:	2b04      	cmp	r3, #4
 80030d8:	d101      	bne.n	80030de <LL_ADC_REG_IsConversionOngoing+0x18>
 80030da:	2301      	movs	r3, #1
 80030dc:	e000      	b.n	80030e0 <LL_ADC_REG_IsConversionOngoing+0x1a>
 80030de:	2300      	movs	r3, #0
 80030e0:	4618      	mov	r0, r3
 80030e2:	370c      	adds	r7, #12
 80030e4:	46bd      	mov	sp, r7
 80030e6:	f85d 7b04 	ldr.w	r7, [sp], #4
 80030ea:	4770      	bx	lr

080030ec <HAL_ADCEx_InjectedConvCpltCallback>:
 80030ec:	b480      	push	{r7}
 80030ee:	b083      	sub	sp, #12
 80030f0:	af00      	add	r7, sp, #0
 80030f2:	6078      	str	r0, [r7, #4]
 80030f4:	bf00      	nop
 80030f6:	370c      	adds	r7, #12
 80030f8:	46bd      	mov	sp, r7
 80030fa:	f85d 7b04 	ldr.w	r7, [sp], #4
 80030fe:	4770      	bx	lr

08003100 <HAL_ADCEx_InjectedQueueOverflowCallback>:
 8003100:	b480      	push	{r7}
 8003102:	b083      	sub	sp, #12
 8003104:	af00      	add	r7, sp, #0
 8003106:	6078      	str	r0, [r7, #4]
 8003108:	bf00      	nop
 800310a:	370c      	adds	r7, #12
 800310c:	46bd      	mov	sp, r7
 800310e:	f85d 7b04 	ldr.w	r7, [sp], #4
 8003112:	4770      	bx	lr

08003114 <HAL_ADCEx_LevelOutOfWindow2Callback>:
 8003114:	b480      	push	{r7}
 8003116:	b083      	sub	sp, #12
 8003118:	af00      	add	r7, sp, #0
 800311a:	6078      	str	r0, [r7, #4]
 800311c:	bf00      	nop
 800311e:	370c      	adds	r7, #12
 8003120:	46bd      	mov	sp, r7
 8003122:	f85d 7b04 	ldr.w	r7, [sp], #4
 8003126:	4770      	bx	lr

08003128 <HAL_ADCEx_LevelOutOfWindow3Callback>:
 8003128:	b480      	push	{r7}
 800312a:	b083      	sub	sp, #12
 800312c:	af00      	add	r7, sp, #0
 800312e:	6078      	str	r0, [r7, #4]
 8003130:	bf00      	nop
 8003132:	370c      	adds	r7, #12
 8003134:	46bd      	mov	sp, r7
 8003136:	f85d 7b04 	ldr.w	r7, [sp], #4
 800313a:	4770      	bx	lr

0800313c <HAL_ADCEx_EndOfSamplingCallback>:
 800313c:	b480      	push	{r7}
 800313e:	b083      	sub	sp, #12
 8003140:	af00      	add	r7, sp, #0
 8003142:	6078      	str	r0, [r7, #4]
 8003144:	bf00      	nop
 8003146:	370c      	adds	r7, #12
 8003148:	46bd      	mov	sp, r7
 800314a:	f85d 7b04 	ldr.w	r7, [sp], #4
 800314e:	4770      	bx	lr

08003150 <HAL_ADCEx_MultiModeConfigChannel>:
 8003150:	b590      	push	{r4, r7, lr}
 8003152:	b09f      	sub	sp, #124	; 0x7c
 8003154:	af00      	add	r7, sp, #0
 8003156:	6078      	str	r0, [r7, #4]
 8003158:	6039      	str	r1, [r7, #0]
 800315a:	2300      	movs	r3, #0
 800315c:	f887 3077 	strb.w	r3, [r7, #119]	; 0x77
 8003160:	687b      	ldr	r3, [r7, #4]
 8003162:	f893 3050 	ldrb.w	r3, [r3, #80]	; 0x50
 8003166:	2b01      	cmp	r3, #1
 8003168:	d101      	bne.n	800316e <HAL_ADCEx_MultiModeConfigChannel+0x1e>
 800316a:	2302      	movs	r3, #2
 800316c:	e08f      	b.n	800328e <HAL_ADCEx_MultiModeConfigChannel+0x13e>
 800316e:	687b      	ldr	r3, [r7, #4]
 8003170:	2201      	movs	r2, #1
 8003172:	f883 2050 	strb.w	r2, [r3, #80]	; 0x50
 8003176:	687b      	ldr	r3, [r7, #4]
 8003178:	681b      	ldr	r3, [r3, #0]
 800317a:	4a47      	ldr	r2, [pc, #284]	; (8003298 <HAL_ADCEx_MultiModeConfigChannel+0x148>)
 800317c:	4293      	cmp	r3, r2
 800317e:	d102      	bne.n	8003186 <HAL_ADCEx_MultiModeConfigChannel+0x36>
 8003180:	4b46      	ldr	r3, [pc, #280]	; (800329c <HAL_ADCEx_MultiModeConfigChannel+0x14c>)
 8003182:	60bb      	str	r3, [r7, #8]
 8003184:	e001      	b.n	800318a <HAL_ADCEx_MultiModeConfigChannel+0x3a>
 8003186:	2300      	movs	r3, #0
 8003188:	60bb      	str	r3, [r7, #8]
 800318a:	68bb      	ldr	r3, [r7, #8]
 800318c:	2b00      	cmp	r3, #0
 800318e:	d10b      	bne.n	80031a8 <HAL_ADCEx_MultiModeConfigChannel+0x58>
 8003190:	687b      	ldr	r3, [r7, #4]
 8003192:	6d5b      	ldr	r3, [r3, #84]	; 0x54
 8003194:	f043 0220 	orr.w	r2, r3, #32
 8003198:	687b      	ldr	r3, [r7, #4]
 800319a:	655a      	str	r2, [r3, #84]	; 0x54
 800319c:	687b      	ldr	r3, [r7, #4]
 800319e:	2200      	movs	r2, #0
 80031a0:	f883 2050 	strb.w	r2, [r3, #80]	; 0x50
 80031a4:	2301      	movs	r3, #1
 80031a6:	e072      	b.n	800328e <HAL_ADCEx_MultiModeConfigChannel+0x13e>
 80031a8:	68bb      	ldr	r3, [r7, #8]
 80031aa:	4618      	mov	r0, r3
 80031ac:	f7ff ff8b 	bl	80030c6 <LL_ADC_REG_IsConversionOngoing>
 80031b0:	6738      	str	r0, [r7, #112]	; 0x70
 80031b2:	687b      	ldr	r3, [r7, #4]
 80031b4:	681b      	ldr	r3, [r3, #0]
 80031b6:	4618      	mov	r0, r3
 80031b8:	f7ff ff85 	bl	80030c6 <LL_ADC_REG_IsConversionOngoing>
 80031bc:	4603      	mov	r3, r0
 80031be:	2b00      	cmp	r3, #0
 80031c0:	d154      	bne.n	800326c <HAL_ADCEx_MultiModeConfigChannel+0x11c>
 80031c2:	6f3b      	ldr	r3, [r7, #112]	; 0x70
 80031c4:	2b00      	cmp	r3, #0
 80031c6:	d151      	bne.n	800326c <HAL_ADCEx_MultiModeConfigChannel+0x11c>
 80031c8:	4b35      	ldr	r3, [pc, #212]	; (80032a0 <HAL_ADCEx_MultiModeConfigChannel+0x150>)
 80031ca:	66fb      	str	r3, [r7, #108]	; 0x6c
 80031cc:	683b      	ldr	r3, [r7, #0]
 80031ce:	681b      	ldr	r3, [r3, #0]
 80031d0:	2b00      	cmp	r3, #0
 80031d2:	d02c      	beq.n	800322e <HAL_ADCEx_MultiModeConfigChannel+0xde>
 80031d4:	6efb      	ldr	r3, [r7, #108]	; 0x6c
 80031d6:	689b      	ldr	r3, [r3, #8]
 80031d8:	f423 4260 	bic.w	r2, r3, #57344	; 0xe000
 80031dc:	683b      	ldr	r3, [r7, #0]
 80031de:	6859      	ldr	r1, [r3, #4]
 80031e0:	687b      	ldr	r3, [r7, #4]
 80031e2:	f893 3030 	ldrb.w	r3, [r3, #48]	; 0x30
 80031e6:	035b      	lsls	r3, r3, #13
 80031e8:	430b      	orrs	r3, r1
 80031ea:	431a      	orrs	r2, r3
 80031ec:	6efb      	ldr	r3, [r7, #108]	; 0x6c
 80031ee:	609a      	str	r2, [r3, #8]
 80031f0:	4829      	ldr	r0, [pc, #164]	; (8003298 <HAL_ADCEx_MultiModeConfigChannel+0x148>)
 80031f2:	f7ff ff55 	bl	80030a0 <LL_ADC_IsEnabled>
 80031f6:	4604      	mov	r4, r0
 80031f8:	4828      	ldr	r0, [pc, #160]	; (800329c <HAL_ADCEx_MultiModeConfigChannel+0x14c>)
 80031fa:	f7ff ff51 	bl	80030a0 <LL_ADC_IsEnabled>
 80031fe:	4603      	mov	r3, r0
 8003200:	431c      	orrs	r4, r3
 8003202:	4828      	ldr	r0, [pc, #160]	; (80032a4 <HAL_ADCEx_MultiModeConfigChannel+0x154>)
 8003204:	f7ff ff4c 	bl	80030a0 <LL_ADC_IsEnabled>
 8003208:	4603      	mov	r3, r0
 800320a:	4323      	orrs	r3, r4
 800320c:	2b00      	cmp	r3, #0
 800320e:	d137      	bne.n	8003280 <HAL_ADCEx_MultiModeConfigChannel+0x130>
 8003210:	6efb      	ldr	r3, [r7, #108]	; 0x6c
 8003212:	689b      	ldr	r3, [r3, #8]
 8003214:	f423 6371 	bic.w	r3, r3, #3856	; 0xf10
 8003218:	f023 030f 	bic.w	r3, r3, #15
 800321c:	683a      	ldr	r2, [r7, #0]
 800321e:	6811      	ldr	r1, [r2, #0]
 8003220:	683a      	ldr	r2, [r7, #0]
 8003222:	6892      	ldr	r2, [r2, #8]
 8003224:	430a      	orrs	r2, r1
 8003226:	431a      	orrs	r2, r3
 8003228:	6efb      	ldr	r3, [r7, #108]	; 0x6c
 800322a:	609a      	str	r2, [r3, #8]
 800322c:	e028      	b.n	8003280 <HAL_ADCEx_MultiModeConfigChannel+0x130>
 800322e:	6efb      	ldr	r3, [r7, #108]	; 0x6c
 8003230:	689b      	ldr	r3, [r3, #8]
 8003232:	f423 4260 	bic.w	r2, r3, #57344	; 0xe000
 8003236:	6efb      	ldr	r3, [r7, #108]	; 0x6c
 8003238:	609a      	str	r2, [r3, #8]
 800323a:	4817      	ldr	r0, [pc, #92]	; (8003298 <HAL_ADCEx_MultiModeConfigChannel+0x148>)
 800323c:	f7ff ff30 	bl	80030a0 <LL_ADC_IsEnabled>
 8003240:	4604      	mov	r4, r0
 8003242:	4816      	ldr	r0, [pc, #88]	; (800329c <HAL_ADCEx_MultiModeConfigChannel+0x14c>)
 8003244:	f7ff ff2c 	bl	80030a0 <LL_ADC_IsEnabled>
 8003248:	4603      	mov	r3, r0
 800324a:	431c      	orrs	r4, r3
 800324c:	4815      	ldr	r0, [pc, #84]	; (80032a4 <HAL_ADCEx_MultiModeConfigChannel+0x154>)
 800324e:	f7ff ff27 	bl	80030a0 <LL_ADC_IsEnabled>
 8003252:	4603      	mov	r3, r0
 8003254:	4323      	orrs	r3, r4
 8003256:	2b00      	cmp	r3, #0
 8003258:	d112      	bne.n	8003280 <HAL_ADCEx_MultiModeConfigChannel+0x130>
 800325a:	6efb      	ldr	r3, [r7, #108]	; 0x6c
 800325c:	689b      	ldr	r3, [r3, #8]
 800325e:	f423 6371 	bic.w	r3, r3, #3856	; 0xf10
 8003262:	f023 030f 	bic.w	r3, r3, #15
 8003266:	6efa      	ldr	r2, [r7, #108]	; 0x6c
 8003268:	6093      	str	r3, [r2, #8]
 800326a:	e009      	b.n	8003280 <HAL_ADCEx_MultiModeConfigChannel+0x130>
 800326c:	687b      	ldr	r3, [r7, #4]
 800326e:	6d5b      	ldr	r3, [r3, #84]	; 0x54
 8003270:	f043 0220 	orr.w	r2, r3, #32
 8003274:	687b      	ldr	r3, [r7, #4]
 8003276:	655a      	str	r2, [r3, #84]	; 0x54
 8003278:	2301      	movs	r3, #1
 800327a:	f887 3077 	strb.w	r3, [r7, #119]	; 0x77
 800327e:	e000      	b.n	8003282 <HAL_ADCEx_MultiModeConfigChannel+0x132>
 8003280:	bf00      	nop
 8003282:	687b      	ldr	r3, [r7, #4]
 8003284:	2200      	movs	r2, #0
 8003286:	f883 2050 	strb.w	r2, [r3, #80]	; 0x50
 800328a:	f897 3077 	ldrb.w	r3, [r7, #119]	; 0x77
 800328e:	4618      	mov	r0, r3
 8003290:	377c      	adds	r7, #124	; 0x7c
 8003292:	46bd      	mov	sp, r7
 8003294:	bd90      	pop	{r4, r7, pc}
 8003296:	bf00      	nop
 8003298:	50040000 	.word	0x50040000
 800329c:	50040100 	.word	0x50040100
 80032a0:	50040300 	.word	0x50040300
 80032a4:	50040200 	.word	0x50040200

080032a8 <__NVIC_SetPriorityGrouping>:
 80032a8:	b480      	push	{r7}
 80032aa:	b085      	sub	sp, #20
 80032ac:	af00      	add	r7, sp, #0
 80032ae:	6078      	str	r0, [r7, #4]
 80032b0:	687b      	ldr	r3, [r7, #4]
 80032b2:	f003 0307 	and.w	r3, r3, #7
 80032b6:	60fb      	str	r3, [r7, #12]
 80032b8:	4b0c      	ldr	r3, [pc, #48]	; (80032ec <__NVIC_SetPriorityGrouping+0x44>)
 80032ba:	68db      	ldr	r3, [r3, #12]
 80032bc:	60bb      	str	r3, [r7, #8]
 80032be:	68ba      	ldr	r2, [r7, #8]
 80032c0:	f64f 03ff 	movw	r3, #63743	; 0xf8ff
 80032c4:	4013      	ands	r3, r2
 80032c6:	60bb      	str	r3, [r7, #8]
 80032c8:	68fb      	ldr	r3, [r7, #12]
 80032ca:	021a      	lsls	r2, r3, #8
 80032cc:	68bb      	ldr	r3, [r7, #8]
 80032ce:	4313      	orrs	r3, r2
 80032d0:	f043 63bf 	orr.w	r3, r3, #100139008	; 0x5f80000
 80032d4:	f443 3300 	orr.w	r3, r3, #131072	; 0x20000
 80032d8:	60bb      	str	r3, [r7, #8]
 80032da:	4a04      	ldr	r2, [pc, #16]	; (80032ec <__NVIC_SetPriorityGrouping+0x44>)
 80032dc:	68bb      	ldr	r3, [r7, #8]
 80032de:	60d3      	str	r3, [r2, #12]
 80032e0:	bf00      	nop
 80032e2:	3714      	adds	r7, #20
 80032e4:	46bd      	mov	sp, r7
 80032e6:	f85d 7b04 	ldr.w	r7, [sp], #4
 80032ea:	4770      	bx	lr
 80032ec:	e000ed00 	.word	0xe000ed00

080032f0 <__NVIC_GetPriorityGrouping>:
 80032f0:	b480      	push	{r7}
 80032f2:	af00      	add	r7, sp, #0
 80032f4:	4b04      	ldr	r3, [pc, #16]	; (8003308 <__NVIC_GetPriorityGrouping+0x18>)
 80032f6:	68db      	ldr	r3, [r3, #12]
 80032f8:	0a1b      	lsrs	r3, r3, #8
 80032fa:	f003 0307 	and.w	r3, r3, #7
 80032fe:	4618      	mov	r0, r3
 8003300:	46bd      	mov	sp, r7
 8003302:	f85d 7b04 	ldr.w	r7, [sp], #4
 8003306:	4770      	bx	lr
 8003308:	e000ed00 	.word	0xe000ed00

0800330c <__NVIC_EnableIRQ>:
 800330c:	b480      	push	{r7}
 800330e:	b083      	sub	sp, #12
 8003310:	af00      	add	r7, sp, #0
 8003312:	4603      	mov	r3, r0
 8003314:	71fb      	strb	r3, [r7, #7]
 8003316:	f997 3007 	ldrsb.w	r3, [r7, #7]
 800331a:	2b00      	cmp	r3, #0
 800331c:	db0b      	blt.n	8003336 <__NVIC_EnableIRQ+0x2a>
 800331e:	79fb      	ldrb	r3, [r7, #7]
 8003320:	f003 021f 	and.w	r2, r3, #31
 8003324:	4907      	ldr	r1, [pc, #28]	; (8003344 <__NVIC_EnableIRQ+0x38>)
 8003326:	f997 3007 	ldrsb.w	r3, [r7, #7]
 800332a:	095b      	lsrs	r3, r3, #5
 800332c:	2001      	movs	r0, #1
 800332e:	fa00 f202 	lsl.w	r2, r0, r2
 8003332:	f841 2023 	str.w	r2, [r1, r3, lsl #2]
 8003336:	bf00      	nop
 8003338:	370c      	adds	r7, #12
 800333a:	46bd      	mov	sp, r7
 800333c:	f85d 7b04 	ldr.w	r7, [sp], #4
 8003340:	4770      	bx	lr
 8003342:	bf00      	nop
 8003344:	e000e100 	.word	0xe000e100

08003348 <__NVIC_SetPriority>:
 8003348:	b480      	push	{r7}
 800334a:	b083      	sub	sp, #12
 800334c:	af00      	add	r7, sp, #0
 800334e:	4603      	mov	r3, r0
 8003350:	6039      	str	r1, [r7, #0]
 8003352:	71fb      	strb	r3, [r7, #7]
 8003354:	f997 3007 	ldrsb.w	r3, [r7, #7]
 8003358:	2b00      	cmp	r3, #0
 800335a:	db0a      	blt.n	8003372 <__NVIC_SetPriority+0x2a>
 800335c:	683b      	ldr	r3, [r7, #0]
 800335e:	b2da      	uxtb	r2, r3
 8003360:	490c      	ldr	r1, [pc, #48]	; (8003394 <__NVIC_SetPriority+0x4c>)
 8003362:	f997 3007 	ldrsb.w	r3, [r7, #7]
 8003366:	0112      	lsls	r2, r2, #4
 8003368:	b2d2      	uxtb	r2, r2
 800336a:	440b      	add	r3, r1
 800336c:	f883 2300 	strb.w	r2, [r3, #768]	; 0x300
 8003370:	e00a      	b.n	8003388 <__NVIC_SetPriority+0x40>
 8003372:	683b      	ldr	r3, [r7, #0]
 8003374:	b2da      	uxtb	r2, r3
 8003376:	4908      	ldr	r1, [pc, #32]	; (8003398 <__NVIC_SetPriority+0x50>)
 8003378:	79fb      	ldrb	r3, [r7, #7]
 800337a:	f003 030f 	and.w	r3, r3, #15
 800337e:	3b04      	subs	r3, #4
 8003380:	0112      	lsls	r2, r2, #4
 8003382:	b2d2      	uxtb	r2, r2
 8003384:	440b      	add	r3, r1
 8003386:	761a      	strb	r2, [r3, #24]
 8003388:	bf00      	nop
 800338a:	370c      	adds	r7, #12
 800338c:	46bd      	mov	sp, r7
 800338e:	f85d 7b04 	ldr.w	r7, [sp], #4
 8003392:	4770      	bx	lr
 8003394:	e000e100 	.word	0xe000e100
 8003398:	e000ed00 	.word	0xe000ed00

0800339c <NVIC_EncodePriority>:
 800339c:	b480      	push	{r7}
 800339e:	b089      	sub	sp, #36	; 0x24
 80033a0:	af00      	add	r7, sp, #0
 80033a2:	60f8      	str	r0, [r7, #12]
 80033a4:	60b9      	str	r1, [r7, #8]
 80033a6:	607a      	str	r2, [r7, #4]
 80033a8:	68fb      	ldr	r3, [r7, #12]
 80033aa:	f003 0307 	and.w	r3, r3, #7
 80033ae:	61fb      	str	r3, [r7, #28]
 80033b0:	69fb      	ldr	r3, [r7, #28]
 80033b2:	f1c3 0307 	rsb	r3, r3, #7
 80033b6:	2b04      	cmp	r3, #4
 80033b8:	bf28      	it	cs
 80033ba:	2304      	movcs	r3, #4
 80033bc:	61bb      	str	r3, [r7, #24]
 80033be:	69fb      	ldr	r3, [r7, #28]
 80033c0:	3304      	adds	r3, #4
 80033c2:	2b06      	cmp	r3, #6
 80033c4:	d902      	bls.n	80033cc <NVIC_EncodePriority+0x30>
 80033c6:	69fb      	ldr	r3, [r7, #28]
 80033c8:	3b03      	subs	r3, #3
 80033ca:	e000      	b.n	80033ce <NVIC_EncodePriority+0x32>
 80033cc:	2300      	movs	r3, #0
 80033ce:	617b      	str	r3, [r7, #20]
 80033d0:	f04f 32ff 	mov.w	r2, #4294967295
 80033d4:	69bb      	ldr	r3, [r7, #24]
 80033d6:	fa02 f303 	lsl.w	r3, r2, r3
 80033da:	43da      	mvns	r2, r3
 80033dc:	68bb      	ldr	r3, [r7, #8]
 80033de:	401a      	ands	r2, r3
 80033e0:	697b      	ldr	r3, [r7, #20]
 80033e2:	409a      	lsls	r2, r3
 80033e4:	f04f 31ff 	mov.w	r1, #4294967295
 80033e8:	697b      	ldr	r3, [r7, #20]
 80033ea:	fa01 f303 	lsl.w	r3, r1, r3
 80033ee:	43d9      	mvns	r1, r3
 80033f0:	687b      	ldr	r3, [r7, #4]
 80033f2:	400b      	ands	r3, r1
 80033f4:	4313      	orrs	r3, r2
 80033f6:	4618      	mov	r0, r3
 80033f8:	3724      	adds	r7, #36	; 0x24
 80033fa:	46bd      	mov	sp, r7
 80033fc:	f85d 7b04 	ldr.w	r7, [sp], #4
 8003400:	4770      	bx	lr
	...

08003404 <SysTick_Config>:
 8003404:	b580      	push	{r7, lr}
 8003406:	b082      	sub	sp, #8
 8003408:	af00      	add	r7, sp, #0
 800340a:	6078      	str	r0, [r7, #4]
 800340c:	687b      	ldr	r3, [r7, #4]
 800340e:	3b01      	subs	r3, #1
 8003410:	f1b3 7f80 	cmp.w	r3, #16777216	; 0x1000000
 8003414:	d301      	bcc.n	800341a <SysTick_Config+0x16>
 8003416:	2301      	movs	r3, #1
 8003418:	e00f      	b.n	800343a <SysTick_Config+0x36>
 800341a:	4a0a      	ldr	r2, [pc, #40]	; (8003444 <SysTick_Config+0x40>)
 800341c:	687b      	ldr	r3, [r7, #4]
 800341e:	3b01      	subs	r3, #1
 8003420:	6053      	str	r3, [r2, #4]
 8003422:	210f      	movs	r1, #15
 8003424:	f04f 30ff 	mov.w	r0, #4294967295
 8003428:	f7ff ff8e 	bl	8003348 <__NVIC_SetPriority>
 800342c:	4b05      	ldr	r3, [pc, #20]	; (8003444 <SysTick_Config+0x40>)
 800342e:	2200      	movs	r2, #0
 8003430:	609a      	str	r2, [r3, #8]
 8003432:	4b04      	ldr	r3, [pc, #16]	; (8003444 <SysTick_Config+0x40>)
 8003434:	2207      	movs	r2, #7
 8003436:	601a      	str	r2, [r3, #0]
 8003438:	2300      	movs	r3, #0
 800343a:	4618      	mov	r0, r3
 800343c:	3708      	adds	r7, #8
 800343e:	46bd      	mov	sp, r7
 8003440:	bd80      	pop	{r7, pc}
 8003442:	bf00      	nop
 8003444:	e000e010 	.word	0xe000e010

08003448 <HAL_NVIC_SetPriorityGrouping>:
 8003448:	b580      	push	{r7, lr}
 800344a:	b082      	sub	sp, #8
 800344c:	af00      	add	r7, sp, #0
 800344e:	6078      	str	r0, [r7, #4]
 8003450:	6878      	ldr	r0, [r7, #4]
 8003452:	f7ff ff29 	bl	80032a8 <__NVIC_SetPriorityGrouping>
 8003456:	bf00      	nop
 8003458:	3708      	adds	r7, #8
 800345a:	46bd      	mov	sp, r7
 800345c:	bd80      	pop	{r7, pc}

0800345e <HAL_NVIC_SetPriority>:
 800345e:	b580      	push	{r7, lr}
 8003460:	b086      	sub	sp, #24
 8003462:	af00      	add	r7, sp, #0
 8003464:	4603      	mov	r3, r0
 8003466:	60b9      	str	r1, [r7, #8]
 8003468:	607a      	str	r2, [r7, #4]
 800346a:	73fb      	strb	r3, [r7, #15]
 800346c:	2300      	movs	r3, #0
 800346e:	617b      	str	r3, [r7, #20]
 8003470:	f7ff ff3e 	bl	80032f0 <__NVIC_GetPriorityGrouping>
 8003474:	6178      	str	r0, [r7, #20]
 8003476:	687a      	ldr	r2, [r7, #4]
 8003478:	68b9      	ldr	r1, [r7, #8]
 800347a:	6978      	ldr	r0, [r7, #20]
 800347c:	f7ff ff8e 	bl	800339c <NVIC_EncodePriority>
 8003480:	4602      	mov	r2, r0
 8003482:	f997 300f 	ldrsb.w	r3, [r7, #15]
 8003486:	4611      	mov	r1, r2
 8003488:	4618      	mov	r0, r3
 800348a:	f7ff ff5d 	bl	8003348 <__NVIC_SetPriority>
 800348e:	bf00      	nop
 8003490:	3718      	adds	r7, #24
 8003492:	46bd      	mov	sp, r7
 8003494:	bd80      	pop	{r7, pc}

08003496 <HAL_NVIC_EnableIRQ>:
 8003496:	b580      	push	{r7, lr}
 8003498:	b082      	sub	sp, #8
 800349a:	af00      	add	r7, sp, #0
 800349c:	4603      	mov	r3, r0
 800349e:	71fb      	strb	r3, [r7, #7]
 80034a0:	f997 3007 	ldrsb.w	r3, [r7, #7]
 80034a4:	4618      	mov	r0, r3
 80034a6:	f7ff ff31 	bl	800330c <__NVIC_EnableIRQ>
 80034aa:	bf00      	nop
 80034ac:	3708      	adds	r7, #8
 80034ae:	46bd      	mov	sp, r7
 80034b0:	bd80      	pop	{r7, pc}

080034b2 <HAL_SYSTICK_Config>:
 80034b2:	b580      	push	{r7, lr}
 80034b4:	b082      	sub	sp, #8
 80034b6:	af00      	add	r7, sp, #0
 80034b8:	6078      	str	r0, [r7, #4]
 80034ba:	6878      	ldr	r0, [r7, #4]
 80034bc:	f7ff ffa2 	bl	8003404 <SysTick_Config>
 80034c0:	4603      	mov	r3, r0
 80034c2:	4618      	mov	r0, r3
 80034c4:	3708      	adds	r7, #8
 80034c6:	46bd      	mov	sp, r7
 80034c8:	bd80      	pop	{r7, pc}
	...

080034cc <HAL_GPIO_Init>:
 80034cc:	b480      	push	{r7}
 80034ce:	b087      	sub	sp, #28
 80034d0:	af00      	add	r7, sp, #0
 80034d2:	6078      	str	r0, [r7, #4]
 80034d4:	6039      	str	r1, [r7, #0]
 80034d6:	2300      	movs	r3, #0
 80034d8:	617b      	str	r3, [r7, #20]
 80034da:	e17f      	b.n	80037dc <HAL_GPIO_Init+0x310>
 80034dc:	683b      	ldr	r3, [r7, #0]
 80034de:	681a      	ldr	r2, [r3, #0]
 80034e0:	2101      	movs	r1, #1
 80034e2:	697b      	ldr	r3, [r7, #20]
 80034e4:	fa01 f303 	lsl.w	r3, r1, r3
 80034e8:	4013      	ands	r3, r2
 80034ea:	60fb      	str	r3, [r7, #12]
 80034ec:	68fb      	ldr	r3, [r7, #12]
 80034ee:	2b00      	cmp	r3, #0
 80034f0:	f000 8171 	beq.w	80037d6 <HAL_GPIO_Init+0x30a>
 80034f4:	683b      	ldr	r3, [r7, #0]
 80034f6:	685b      	ldr	r3, [r3, #4]
 80034f8:	2b02      	cmp	r3, #2
 80034fa:	d003      	beq.n	8003504 <HAL_GPIO_Init+0x38>
 80034fc:	683b      	ldr	r3, [r7, #0]
 80034fe:	685b      	ldr	r3, [r3, #4]
 8003500:	2b12      	cmp	r3, #18
 8003502:	d123      	bne.n	800354c <HAL_GPIO_Init+0x80>
 8003504:	697b      	ldr	r3, [r7, #20]
 8003506:	08da      	lsrs	r2, r3, #3
 8003508:	687b      	ldr	r3, [r7, #4]
 800350a:	3208      	adds	r2, #8
 800350c:	f853 3022 	ldr.w	r3, [r3, r2, lsl #2]
 8003510:	613b      	str	r3, [r7, #16]
 8003512:	697b      	ldr	r3, [r7, #20]
 8003514:	f003 0307 	and.w	r3, r3, #7
 8003518:	009b      	lsls	r3, r3, #2
 800351a:	220f      	movs	r2, #15
 800351c:	fa02 f303 	lsl.w	r3, r2, r3
 8003520:	43db      	mvns	r3, r3
 8003522:	693a      	ldr	r2, [r7, #16]
 8003524:	4013      	ands	r3, r2
 8003526:	613b      	str	r3, [r7, #16]
 8003528:	683b      	ldr	r3, [r7, #0]
 800352a:	691a      	ldr	r2, [r3, #16]
 800352c:	697b      	ldr	r3, [r7, #20]
 800352e:	f003 0307 	and.w	r3, r3, #7
 8003532:	009b      	lsls	r3, r3, #2
 8003534:	fa02 f303 	lsl.w	r3, r2, r3
 8003538:	693a      	ldr	r2, [r7, #16]
 800353a:	4313      	orrs	r3, r2
 800353c:	613b      	str	r3, [r7, #16]
 800353e:	697b      	ldr	r3, [r7, #20]
 8003540:	08da      	lsrs	r2, r3, #3
 8003542:	687b      	ldr	r3, [r7, #4]
 8003544:	3208      	adds	r2, #8
 8003546:	6939      	ldr	r1, [r7, #16]
 8003548:	f843 1022 	str.w	r1, [r3, r2, lsl #2]
 800354c:	687b      	ldr	r3, [r7, #4]
 800354e:	681b      	ldr	r3, [r3, #0]
 8003550:	613b      	str	r3, [r7, #16]
 8003552:	697b      	ldr	r3, [r7, #20]
 8003554:	005b      	lsls	r3, r3, #1
 8003556:	2203      	movs	r2, #3
 8003558:	fa02 f303 	lsl.w	r3, r2, r3
 800355c:	43db      	mvns	r3, r3
 800355e:	693a      	ldr	r2, [r7, #16]
 8003560:	4013      	ands	r3, r2
 8003562:	613b      	str	r3, [r7, #16]
 8003564:	683b      	ldr	r3, [r7, #0]
 8003566:	685b      	ldr	r3, [r3, #4]
 8003568:	f003 0203 	and.w	r2, r3, #3
 800356c:	697b      	ldr	r3, [r7, #20]
 800356e:	005b      	lsls	r3, r3, #1
 8003570:	fa02 f303 	lsl.w	r3, r2, r3
 8003574:	693a      	ldr	r2, [r7, #16]
 8003576:	4313      	orrs	r3, r2
 8003578:	613b      	str	r3, [r7, #16]
 800357a:	687b      	ldr	r3, [r7, #4]
 800357c:	693a      	ldr	r2, [r7, #16]
 800357e:	601a      	str	r2, [r3, #0]
 8003580:	683b      	ldr	r3, [r7, #0]
 8003582:	685b      	ldr	r3, [r3, #4]
 8003584:	2b01      	cmp	r3, #1
 8003586:	d00b      	beq.n	80035a0 <HAL_GPIO_Init+0xd4>
 8003588:	683b      	ldr	r3, [r7, #0]
 800358a:	685b      	ldr	r3, [r3, #4]
 800358c:	2b02      	cmp	r3, #2
 800358e:	d007      	beq.n	80035a0 <HAL_GPIO_Init+0xd4>
 8003590:	683b      	ldr	r3, [r7, #0]
 8003592:	685b      	ldr	r3, [r3, #4]
 8003594:	2b11      	cmp	r3, #17
 8003596:	d003      	beq.n	80035a0 <HAL_GPIO_Init+0xd4>
 8003598:	683b      	ldr	r3, [r7, #0]
 800359a:	685b      	ldr	r3, [r3, #4]
 800359c:	2b12      	cmp	r3, #18
 800359e:	d130      	bne.n	8003602 <HAL_GPIO_Init+0x136>
 80035a0:	687b      	ldr	r3, [r7, #4]
 80035a2:	689b      	ldr	r3, [r3, #8]
 80035a4:	613b      	str	r3, [r7, #16]
 80035a6:	697b      	ldr	r3, [r7, #20]
 80035a8:	005b      	lsls	r3, r3, #1
 80035aa:	2203      	movs	r2, #3
 80035ac:	fa02 f303 	lsl.w	r3, r2, r3
 80035b0:	43db      	mvns	r3, r3
 80035b2:	693a      	ldr	r2, [r7, #16]
 80035b4:	4013      	ands	r3, r2
 80035b6:	613b      	str	r3, [r7, #16]
 80035b8:	683b      	ldr	r3, [r7, #0]
 80035ba:	68da      	ldr	r2, [r3, #12]
 80035bc:	697b      	ldr	r3, [r7, #20]
 80035be:	005b      	lsls	r3, r3, #1
 80035c0:	fa02 f303 	lsl.w	r3, r2, r3
 80035c4:	693a      	ldr	r2, [r7, #16]
 80035c6:	4313      	orrs	r3, r2
 80035c8:	613b      	str	r3, [r7, #16]
 80035ca:	687b      	ldr	r3, [r7, #4]
 80035cc:	693a      	ldr	r2, [r7, #16]
 80035ce:	609a      	str	r2, [r3, #8]
 80035d0:	687b      	ldr	r3, [r7, #4]
 80035d2:	685b      	ldr	r3, [r3, #4]
 80035d4:	613b      	str	r3, [r7, #16]
 80035d6:	2201      	movs	r2, #1
 80035d8:	697b      	ldr	r3, [r7, #20]
 80035da:	fa02 f303 	lsl.w	r3, r2, r3
 80035de:	43db      	mvns	r3, r3
 80035e0:	693a      	ldr	r2, [r7, #16]
 80035e2:	4013      	ands	r3, r2
 80035e4:	613b      	str	r3, [r7, #16]
 80035e6:	683b      	ldr	r3, [r7, #0]
 80035e8:	685b      	ldr	r3, [r3, #4]
 80035ea:	091b      	lsrs	r3, r3, #4
 80035ec:	f003 0201 	and.w	r2, r3, #1
 80035f0:	697b      	ldr	r3, [r7, #20]
 80035f2:	fa02 f303 	lsl.w	r3, r2, r3
 80035f6:	693a      	ldr	r2, [r7, #16]
 80035f8:	4313      	orrs	r3, r2
 80035fa:	613b      	str	r3, [r7, #16]
 80035fc:	687b      	ldr	r3, [r7, #4]
 80035fe:	693a      	ldr	r2, [r7, #16]
 8003600:	605a      	str	r2, [r3, #4]
 8003602:	683b      	ldr	r3, [r7, #0]
 8003604:	685b      	ldr	r3, [r3, #4]
 8003606:	f003 0303 	and.w	r3, r3, #3
 800360a:	2b03      	cmp	r3, #3
 800360c:	d118      	bne.n	8003640 <HAL_GPIO_Init+0x174>
 800360e:	687b      	ldr	r3, [r7, #4]
 8003610:	6adb      	ldr	r3, [r3, #44]	; 0x2c
 8003612:	613b      	str	r3, [r7, #16]
 8003614:	2201      	movs	r2, #1
 8003616:	697b      	ldr	r3, [r7, #20]
 8003618:	fa02 f303 	lsl.w	r3, r2, r3
 800361c:	43db      	mvns	r3, r3
 800361e:	693a      	ldr	r2, [r7, #16]
 8003620:	4013      	ands	r3, r2
 8003622:	613b      	str	r3, [r7, #16]
 8003624:	683b      	ldr	r3, [r7, #0]
 8003626:	685b      	ldr	r3, [r3, #4]
 8003628:	08db      	lsrs	r3, r3, #3
 800362a:	f003 0201 	and.w	r2, r3, #1
 800362e:	697b      	ldr	r3, [r7, #20]
 8003630:	fa02 f303 	lsl.w	r3, r2, r3
 8003634:	693a      	ldr	r2, [r7, #16]
 8003636:	4313      	orrs	r3, r2
 8003638:	613b      	str	r3, [r7, #16]
 800363a:	687b      	ldr	r3, [r7, #4]
 800363c:	693a      	ldr	r2, [r7, #16]
 800363e:	62da      	str	r2, [r3, #44]	; 0x2c
 8003640:	687b      	ldr	r3, [r7, #4]
 8003642:	68db      	ldr	r3, [r3, #12]
 8003644:	613b      	str	r3, [r7, #16]
 8003646:	697b      	ldr	r3, [r7, #20]
 8003648:	005b      	lsls	r3, r3, #1
 800364a:	2203      	movs	r2, #3
 800364c:	fa02 f303 	lsl.w	r3, r2, r3
 8003650:	43db      	mvns	r3, r3
 8003652:	693a      	ldr	r2, [r7, #16]
 8003654:	4013      	ands	r3, r2
 8003656:	613b      	str	r3, [r7, #16]
 8003658:	683b      	ldr	r3, [r7, #0]
 800365a:	689a      	ldr	r2, [r3, #8]
 800365c:	697b      	ldr	r3, [r7, #20]
 800365e:	005b      	lsls	r3, r3, #1
 8003660:	fa02 f303 	lsl.w	r3, r2, r3
 8003664:	693a      	ldr	r2, [r7, #16]
 8003666:	4313      	orrs	r3, r2
 8003668:	613b      	str	r3, [r7, #16]
 800366a:	687b      	ldr	r3, [r7, #4]
 800366c:	693a      	ldr	r2, [r7, #16]
 800366e:	60da      	str	r2, [r3, #12]
 8003670:	683b      	ldr	r3, [r7, #0]
 8003672:	685b      	ldr	r3, [r3, #4]
 8003674:	f003 5380 	and.w	r3, r3, #268435456	; 0x10000000
 8003678:	2b00      	cmp	r3, #0
 800367a:	f000 80ac 	beq.w	80037d6 <HAL_GPIO_Init+0x30a>
 800367e:	4b5e      	ldr	r3, [pc, #376]	; (80037f8 <HAL_GPIO_Init+0x32c>)
 8003680:	6e1b      	ldr	r3, [r3, #96]	; 0x60
 8003682:	4a5d      	ldr	r2, [pc, #372]	; (80037f8 <HAL_GPIO_Init+0x32c>)
 8003684:	f043 0301 	orr.w	r3, r3, #1
 8003688:	6613      	str	r3, [r2, #96]	; 0x60
 800368a:	4b5b      	ldr	r3, [pc, #364]	; (80037f8 <HAL_GPIO_Init+0x32c>)
 800368c:	6e1b      	ldr	r3, [r3, #96]	; 0x60
 800368e:	f003 0301 	and.w	r3, r3, #1
 8003692:	60bb      	str	r3, [r7, #8]
 8003694:	68bb      	ldr	r3, [r7, #8]
 8003696:	4a59      	ldr	r2, [pc, #356]	; (80037fc <HAL_GPIO_Init+0x330>)
 8003698:	697b      	ldr	r3, [r7, #20]
 800369a:	089b      	lsrs	r3, r3, #2
 800369c:	3302      	adds	r3, #2
 800369e:	f852 3023 	ldr.w	r3, [r2, r3, lsl #2]
 80036a2:	613b      	str	r3, [r7, #16]
 80036a4:	697b      	ldr	r3, [r7, #20]
 80036a6:	f003 0303 	and.w	r3, r3, #3
 80036aa:	009b      	lsls	r3, r3, #2
 80036ac:	220f      	movs	r2, #15
 80036ae:	fa02 f303 	lsl.w	r3, r2, r3
 80036b2:	43db      	mvns	r3, r3
 80036b4:	693a      	ldr	r2, [r7, #16]
 80036b6:	4013      	ands	r3, r2
 80036b8:	613b      	str	r3, [r7, #16]
 80036ba:	687b      	ldr	r3, [r7, #4]
 80036bc:	f1b3 4f90 	cmp.w	r3, #1207959552	; 0x48000000
 80036c0:	d025      	beq.n	800370e <HAL_GPIO_Init+0x242>
 80036c2:	687b      	ldr	r3, [r7, #4]
 80036c4:	4a4e      	ldr	r2, [pc, #312]	; (8003800 <HAL_GPIO_Init+0x334>)
 80036c6:	4293      	cmp	r3, r2
 80036c8:	d01f      	beq.n	800370a <HAL_GPIO_Init+0x23e>
 80036ca:	687b      	ldr	r3, [r7, #4]
 80036cc:	4a4d      	ldr	r2, [pc, #308]	; (8003804 <HAL_GPIO_Init+0x338>)
 80036ce:	4293      	cmp	r3, r2
 80036d0:	d019      	beq.n	8003706 <HAL_GPIO_Init+0x23a>
 80036d2:	687b      	ldr	r3, [r7, #4]
 80036d4:	4a4c      	ldr	r2, [pc, #304]	; (8003808 <HAL_GPIO_Init+0x33c>)
 80036d6:	4293      	cmp	r3, r2
 80036d8:	d013      	beq.n	8003702 <HAL_GPIO_Init+0x236>
 80036da:	687b      	ldr	r3, [r7, #4]
 80036dc:	4a4b      	ldr	r2, [pc, #300]	; (800380c <HAL_GPIO_Init+0x340>)
 80036de:	4293      	cmp	r3, r2
 80036e0:	d00d      	beq.n	80036fe <HAL_GPIO_Init+0x232>
 80036e2:	687b      	ldr	r3, [r7, #4]
 80036e4:	4a4a      	ldr	r2, [pc, #296]	; (8003810 <HAL_GPIO_Init+0x344>)
 80036e6:	4293      	cmp	r3, r2
 80036e8:	d007      	beq.n	80036fa <HAL_GPIO_Init+0x22e>
 80036ea:	687b      	ldr	r3, [r7, #4]
 80036ec:	4a49      	ldr	r2, [pc, #292]	; (8003814 <HAL_GPIO_Init+0x348>)
 80036ee:	4293      	cmp	r3, r2
 80036f0:	d101      	bne.n	80036f6 <HAL_GPIO_Init+0x22a>
 80036f2:	2306      	movs	r3, #6
 80036f4:	e00c      	b.n	8003710 <HAL_GPIO_Init+0x244>
 80036f6:	2307      	movs	r3, #7
 80036f8:	e00a      	b.n	8003710 <HAL_GPIO_Init+0x244>
 80036fa:	2305      	movs	r3, #5
 80036fc:	e008      	b.n	8003710 <HAL_GPIO_Init+0x244>
 80036fe:	2304      	movs	r3, #4
 8003700:	e006      	b.n	8003710 <HAL_GPIO_Init+0x244>
 8003702:	2303      	movs	r3, #3
 8003704:	e004      	b.n	8003710 <HAL_GPIO_Init+0x244>
 8003706:	2302      	movs	r3, #2
 8003708:	e002      	b.n	8003710 <HAL_GPIO_Init+0x244>
 800370a:	2301      	movs	r3, #1
 800370c:	e000      	b.n	8003710 <HAL_GPIO_Init+0x244>
 800370e:	2300      	movs	r3, #0
 8003710:	697a      	ldr	r2, [r7, #20]
 8003712:	f002 0203 	and.w	r2, r2, #3
 8003716:	0092      	lsls	r2, r2, #2
 8003718:	4093      	lsls	r3, r2
 800371a:	693a      	ldr	r2, [r7, #16]
 800371c:	4313      	orrs	r3, r2
 800371e:	613b      	str	r3, [r7, #16]
 8003720:	4936      	ldr	r1, [pc, #216]	; (80037fc <HAL_GPIO_Init+0x330>)
 8003722:	697b      	ldr	r3, [r7, #20]
 8003724:	089b      	lsrs	r3, r3, #2
 8003726:	3302      	adds	r3, #2
 8003728:	693a      	ldr	r2, [r7, #16]
 800372a:	f841 2023 	str.w	r2, [r1, r3, lsl #2]
 800372e:	4b3a      	ldr	r3, [pc, #232]	; (8003818 <HAL_GPIO_Init+0x34c>)
 8003730:	681b      	ldr	r3, [r3, #0]
 8003732:	613b      	str	r3, [r7, #16]
 8003734:	68fb      	ldr	r3, [r7, #12]
 8003736:	43db      	mvns	r3, r3
 8003738:	693a      	ldr	r2, [r7, #16]
 800373a:	4013      	ands	r3, r2
 800373c:	613b      	str	r3, [r7, #16]
 800373e:	683b      	ldr	r3, [r7, #0]
 8003740:	685b      	ldr	r3, [r3, #4]
 8003742:	f403 3380 	and.w	r3, r3, #65536	; 0x10000
 8003746:	2b00      	cmp	r3, #0
 8003748:	d003      	beq.n	8003752 <HAL_GPIO_Init+0x286>
 800374a:	693a      	ldr	r2, [r7, #16]
 800374c:	68fb      	ldr	r3, [r7, #12]
 800374e:	4313      	orrs	r3, r2
 8003750:	613b      	str	r3, [r7, #16]
 8003752:	4a31      	ldr	r2, [pc, #196]	; (8003818 <HAL_GPIO_Init+0x34c>)
 8003754:	693b      	ldr	r3, [r7, #16]
 8003756:	6013      	str	r3, [r2, #0]
 8003758:	4b2f      	ldr	r3, [pc, #188]	; (8003818 <HAL_GPIO_Init+0x34c>)
 800375a:	685b      	ldr	r3, [r3, #4]
 800375c:	613b      	str	r3, [r7, #16]
 800375e:	68fb      	ldr	r3, [r7, #12]
 8003760:	43db      	mvns	r3, r3
 8003762:	693a      	ldr	r2, [r7, #16]
 8003764:	4013      	ands	r3, r2
 8003766:	613b      	str	r3, [r7, #16]
 8003768:	683b      	ldr	r3, [r7, #0]
 800376a:	685b      	ldr	r3, [r3, #4]
 800376c:	f403 3300 	and.w	r3, r3, #131072	; 0x20000
 8003770:	2b00      	cmp	r3, #0
 8003772:	d003      	beq.n	800377c <HAL_GPIO_Init+0x2b0>
 8003774:	693a      	ldr	r2, [r7, #16]
 8003776:	68fb      	ldr	r3, [r7, #12]
 8003778:	4313      	orrs	r3, r2
 800377a:	613b      	str	r3, [r7, #16]
 800377c:	4a26      	ldr	r2, [pc, #152]	; (8003818 <HAL_GPIO_Init+0x34c>)
 800377e:	693b      	ldr	r3, [r7, #16]
 8003780:	6053      	str	r3, [r2, #4]
 8003782:	4b25      	ldr	r3, [pc, #148]	; (8003818 <HAL_GPIO_Init+0x34c>)
 8003784:	689b      	ldr	r3, [r3, #8]
 8003786:	613b      	str	r3, [r7, #16]
 8003788:	68fb      	ldr	r3, [r7, #12]
 800378a:	43db      	mvns	r3, r3
 800378c:	693a      	ldr	r2, [r7, #16]
 800378e:	4013      	ands	r3, r2
 8003790:	613b      	str	r3, [r7, #16]
 8003792:	683b      	ldr	r3, [r7, #0]
 8003794:	685b      	ldr	r3, [r3, #4]
 8003796:	f403 1380 	and.w	r3, r3, #1048576	; 0x100000
 800379a:	2b00      	cmp	r3, #0
 800379c:	d003      	beq.n	80037a6 <HAL_GPIO_Init+0x2da>
 800379e:	693a      	ldr	r2, [r7, #16]
 80037a0:	68fb      	ldr	r3, [r7, #12]
 80037a2:	4313      	orrs	r3, r2
 80037a4:	613b      	str	r3, [r7, #16]
 80037a6:	4a1c      	ldr	r2, [pc, #112]	; (8003818 <HAL_GPIO_Init+0x34c>)
 80037a8:	693b      	ldr	r3, [r7, #16]
 80037aa:	6093      	str	r3, [r2, #8]
 80037ac:	4b1a      	ldr	r3, [pc, #104]	; (8003818 <HAL_GPIO_Init+0x34c>)
 80037ae:	68db      	ldr	r3, [r3, #12]
 80037b0:	613b      	str	r3, [r7, #16]
 80037b2:	68fb      	ldr	r3, [r7, #12]
 80037b4:	43db      	mvns	r3, r3
 80037b6:	693a      	ldr	r2, [r7, #16]
 80037b8:	4013      	ands	r3, r2
 80037ba:	613b      	str	r3, [r7, #16]
 80037bc:	683b      	ldr	r3, [r7, #0]
 80037be:	685b      	ldr	r3, [r3, #4]
 80037c0:	f403 1300 	and.w	r3, r3, #2097152	; 0x200000
 80037c4:	2b00      	cmp	r3, #0
 80037c6:	d003      	beq.n	80037d0 <HAL_GPIO_Init+0x304>
 80037c8:	693a      	ldr	r2, [r7, #16]
 80037ca:	68fb      	ldr	r3, [r7, #12]
 80037cc:	4313      	orrs	r3, r2
 80037ce:	613b      	str	r3, [r7, #16]
 80037d0:	4a11      	ldr	r2, [pc, #68]	; (8003818 <HAL_GPIO_Init+0x34c>)
 80037d2:	693b      	ldr	r3, [r7, #16]
 80037d4:	60d3      	str	r3, [r2, #12]
 80037d6:	697b      	ldr	r3, [r7, #20]
 80037d8:	3301      	adds	r3, #1
 80037da:	617b      	str	r3, [r7, #20]
 80037dc:	683b      	ldr	r3, [r7, #0]
 80037de:	681a      	ldr	r2, [r3, #0]
 80037e0:	697b      	ldr	r3, [r7, #20]
 80037e2:	fa22 f303 	lsr.w	r3, r2, r3
 80037e6:	2b00      	cmp	r3, #0
 80037e8:	f47f ae78 	bne.w	80034dc <HAL_GPIO_Init+0x10>
 80037ec:	bf00      	nop
 80037ee:	371c      	adds	r7, #28
 80037f0:	46bd      	mov	sp, r7
 80037f2:	f85d 7b04 	ldr.w	r7, [sp], #4
 80037f6:	4770      	bx	lr
 80037f8:	40021000 	.word	0x40021000
 80037fc:	40010000 	.word	0x40010000
 8003800:	48000400 	.word	0x48000400
 8003804:	48000800 	.word	0x48000800
 8003808:	48000c00 	.word	0x48000c00
 800380c:	48001000 	.word	0x48001000
 8003810:	48001400 	.word	0x48001400
 8003814:	48001800 	.word	0x48001800
 8003818:	40010400 	.word	0x40010400

0800381c <HAL_GPIO_WritePin>:
 800381c:	b480      	push	{r7}
 800381e:	b083      	sub	sp, #12
 8003820:	af00      	add	r7, sp, #0
 8003822:	6078      	str	r0, [r7, #4]
 8003824:	460b      	mov	r3, r1
 8003826:	807b      	strh	r3, [r7, #2]
 8003828:	4613      	mov	r3, r2
 800382a:	707b      	strb	r3, [r7, #1]
 800382c:	787b      	ldrb	r3, [r7, #1]
 800382e:	2b00      	cmp	r3, #0
 8003830:	d003      	beq.n	800383a <HAL_GPIO_WritePin+0x1e>
 8003832:	887a      	ldrh	r2, [r7, #2]
 8003834:	687b      	ldr	r3, [r7, #4]
 8003836:	619a      	str	r2, [r3, #24]
 8003838:	e002      	b.n	8003840 <HAL_GPIO_WritePin+0x24>
 800383a:	887a      	ldrh	r2, [r7, #2]
 800383c:	687b      	ldr	r3, [r7, #4]
 800383e:	629a      	str	r2, [r3, #40]	; 0x28
 8003840:	bf00      	nop
 8003842:	370c      	adds	r7, #12
 8003844:	46bd      	mov	sp, r7
 8003846:	f85d 7b04 	ldr.w	r7, [sp], #4
 800384a:	4770      	bx	lr

0800384c <HAL_GPIO_TogglePin>:
 800384c:	b480      	push	{r7}
 800384e:	b083      	sub	sp, #12
 8003850:	af00      	add	r7, sp, #0
 8003852:	6078      	str	r0, [r7, #4]
 8003854:	460b      	mov	r3, r1
 8003856:	807b      	strh	r3, [r7, #2]
 8003858:	687b      	ldr	r3, [r7, #4]
 800385a:	695a      	ldr	r2, [r3, #20]
 800385c:	887b      	ldrh	r3, [r7, #2]
 800385e:	4013      	ands	r3, r2
 8003860:	2b00      	cmp	r3, #0
 8003862:	d003      	beq.n	800386c <HAL_GPIO_TogglePin+0x20>
 8003864:	887a      	ldrh	r2, [r7, #2]
 8003866:	687b      	ldr	r3, [r7, #4]
 8003868:	629a      	str	r2, [r3, #40]	; 0x28
 800386a:	e002      	b.n	8003872 <HAL_GPIO_TogglePin+0x26>
 800386c:	887a      	ldrh	r2, [r7, #2]
 800386e:	687b      	ldr	r3, [r7, #4]
 8003870:	619a      	str	r2, [r3, #24]
 8003872:	bf00      	nop
 8003874:	370c      	adds	r7, #12
 8003876:	46bd      	mov	sp, r7
 8003878:	f85d 7b04 	ldr.w	r7, [sp], #4
 800387c:	4770      	bx	lr

0800387e <HAL_HCD_Init>:
 800387e:	b5f0      	push	{r4, r5, r6, r7, lr}
 8003880:	b08f      	sub	sp, #60	; 0x3c
 8003882:	af0a      	add	r7, sp, #40	; 0x28
 8003884:	6078      	str	r0, [r7, #4]
 8003886:	687b      	ldr	r3, [r7, #4]
 8003888:	2b00      	cmp	r3, #0
 800388a:	d101      	bne.n	8003890 <HAL_HCD_Init+0x12>
 800388c:	2301      	movs	r3, #1
 800388e:	e054      	b.n	800393a <HAL_HCD_Init+0xbc>
 8003890:	687b      	ldr	r3, [r7, #4]
 8003892:	681b      	ldr	r3, [r3, #0]
 8003894:	60fb      	str	r3, [r7, #12]
 8003896:	687b      	ldr	r3, [r7, #4]
 8003898:	f893 32b9 	ldrb.w	r3, [r3, #697]	; 0x2b9
 800389c:	b2db      	uxtb	r3, r3
 800389e:	2b00      	cmp	r3, #0
 80038a0:	d106      	bne.n	80038b0 <HAL_HCD_Init+0x32>
 80038a2:	687b      	ldr	r3, [r7, #4]
 80038a4:	2200      	movs	r2, #0
 80038a6:	f883 22b8 	strb.w	r2, [r3, #696]	; 0x2b8
 80038aa:	6878      	ldr	r0, [r7, #4]
 80038ac:	f006 fd98 	bl	800a3e0 <HAL_HCD_MspInit>
 80038b0:	687b      	ldr	r3, [r7, #4]
 80038b2:	2203      	movs	r2, #3
 80038b4:	f883 22b9 	strb.w	r2, [r3, #697]	; 0x2b9
 80038b8:	68fb      	ldr	r3, [r7, #12]
 80038ba:	6bdb      	ldr	r3, [r3, #60]	; 0x3c
 80038bc:	f403 7380 	and.w	r3, r3, #256	; 0x100
 80038c0:	2b00      	cmp	r3, #0
 80038c2:	d102      	bne.n	80038ca <HAL_HCD_Init+0x4c>
 80038c4:	687b      	ldr	r3, [r7, #4]
 80038c6:	2200      	movs	r2, #0
 80038c8:	611a      	str	r2, [r3, #16]
 80038ca:	687b      	ldr	r3, [r7, #4]
 80038cc:	681b      	ldr	r3, [r3, #0]
 80038ce:	4618      	mov	r0, r3
 80038d0:	f004 ff2c 	bl	800872c <USB_DisableGlobalInt>
 80038d4:	687b      	ldr	r3, [r7, #4]
 80038d6:	681b      	ldr	r3, [r3, #0]
 80038d8:	603b      	str	r3, [r7, #0]
 80038da:	687e      	ldr	r6, [r7, #4]
 80038dc:	466d      	mov	r5, sp
 80038de:	f106 0410 	add.w	r4, r6, #16
 80038e2:	cc0f      	ldmia	r4!, {r0, r1, r2, r3}
 80038e4:	c50f      	stmia	r5!, {r0, r1, r2, r3}
 80038e6:	cc0f      	ldmia	r4!, {r0, r1, r2, r3}
 80038e8:	c50f      	stmia	r5!, {r0, r1, r2, r3}
 80038ea:	e894 0003 	ldmia.w	r4, {r0, r1}
 80038ee:	e885 0003 	stmia.w	r5, {r0, r1}
 80038f2:	1d33      	adds	r3, r6, #4
 80038f4:	cb0e      	ldmia	r3, {r1, r2, r3}
 80038f6:	6838      	ldr	r0, [r7, #0]
 80038f8:	f004 feb5 	bl	8008666 <USB_CoreInit>
 80038fc:	687b      	ldr	r3, [r7, #4]
 80038fe:	681b      	ldr	r3, [r3, #0]
 8003900:	2101      	movs	r1, #1
 8003902:	4618      	mov	r0, r3
 8003904:	f004 ff23 	bl	800874e <USB_SetCurrentMode>
 8003908:	687b      	ldr	r3, [r7, #4]
 800390a:	681b      	ldr	r3, [r3, #0]
 800390c:	603b      	str	r3, [r7, #0]
 800390e:	687e      	ldr	r6, [r7, #4]
 8003910:	466d      	mov	r5, sp
 8003912:	f106 0410 	add.w	r4, r6, #16
 8003916:	cc0f      	ldmia	r4!, {r0, r1, r2, r3}
 8003918:	c50f      	stmia	r5!, {r0, r1, r2, r3}
 800391a:	cc0f      	ldmia	r4!, {r0, r1, r2, r3}
 800391c:	c50f      	stmia	r5!, {r0, r1, r2, r3}
 800391e:	e894 0003 	ldmia.w	r4, {r0, r1}
 8003922:	e885 0003 	stmia.w	r5, {r0, r1}
 8003926:	1d33      	adds	r3, r6, #4
 8003928:	cb0e      	ldmia	r3, {r1, r2, r3}
 800392a:	6838      	ldr	r0, [r7, #0]
 800392c:	f005 f832 	bl	8008994 <USB_HostInit>
 8003930:	687b      	ldr	r3, [r7, #4]
 8003932:	2201      	movs	r2, #1
 8003934:	f883 22b9 	strb.w	r2, [r3, #697]	; 0x2b9
 8003938:	2300      	movs	r3, #0
 800393a:	4618      	mov	r0, r3
 800393c:	3714      	adds	r7, #20
 800393e:	46bd      	mov	sp, r7
 8003940:	bdf0      	pop	{r4, r5, r6, r7, pc}

08003942 <HAL_HCD_HC_Init>:
 8003942:	b590      	push	{r4, r7, lr}
 8003944:	b089      	sub	sp, #36	; 0x24
 8003946:	af04      	add	r7, sp, #16
 8003948:	6078      	str	r0, [r7, #4]
 800394a:	4608      	mov	r0, r1
 800394c:	4611      	mov	r1, r2
 800394e:	461a      	mov	r2, r3
 8003950:	4603      	mov	r3, r0
 8003952:	70fb      	strb	r3, [r7, #3]
 8003954:	460b      	mov	r3, r1
 8003956:	70bb      	strb	r3, [r7, #2]
 8003958:	4613      	mov	r3, r2
 800395a:	707b      	strb	r3, [r7, #1]
 800395c:	687b      	ldr	r3, [r7, #4]
 800395e:	f893 32b8 	ldrb.w	r3, [r3, #696]	; 0x2b8
 8003962:	2b01      	cmp	r3, #1
 8003964:	d101      	bne.n	800396a <HAL_HCD_HC_Init+0x28>
 8003966:	2302      	movs	r3, #2
 8003968:	e07f      	b.n	8003a6a <HAL_HCD_HC_Init+0x128>
 800396a:	687b      	ldr	r3, [r7, #4]
 800396c:	2201      	movs	r2, #1
 800396e:	f883 22b8 	strb.w	r2, [r3, #696]	; 0x2b8
 8003972:	78fa      	ldrb	r2, [r7, #3]
 8003974:	6879      	ldr	r1, [r7, #4]
 8003976:	4613      	mov	r3, r2
 8003978:	009b      	lsls	r3, r3, #2
 800397a:	4413      	add	r3, r2
 800397c:	00db      	lsls	r3, r3, #3
 800397e:	440b      	add	r3, r1
 8003980:	333d      	adds	r3, #61	; 0x3d
 8003982:	2200      	movs	r2, #0
 8003984:	701a      	strb	r2, [r3, #0]
 8003986:	78fa      	ldrb	r2, [r7, #3]
 8003988:	6879      	ldr	r1, [r7, #4]
 800398a:	4613      	mov	r3, r2
 800398c:	009b      	lsls	r3, r3, #2
 800398e:	4413      	add	r3, r2
 8003990:	00db      	lsls	r3, r3, #3
 8003992:	440b      	add	r3, r1
 8003994:	3338      	adds	r3, #56	; 0x38
 8003996:	787a      	ldrb	r2, [r7, #1]
 8003998:	701a      	strb	r2, [r3, #0]
 800399a:	78fa      	ldrb	r2, [r7, #3]
 800399c:	6879      	ldr	r1, [r7, #4]
 800399e:	4613      	mov	r3, r2
 80039a0:	009b      	lsls	r3, r3, #2
 80039a2:	4413      	add	r3, r2
 80039a4:	00db      	lsls	r3, r3, #3
 80039a6:	440b      	add	r3, r1
 80039a8:	3340      	adds	r3, #64	; 0x40
 80039aa:	8d3a      	ldrh	r2, [r7, #40]	; 0x28
 80039ac:	801a      	strh	r2, [r3, #0]
 80039ae:	78fa      	ldrb	r2, [r7, #3]
 80039b0:	6879      	ldr	r1, [r7, #4]
 80039b2:	4613      	mov	r3, r2
 80039b4:	009b      	lsls	r3, r3, #2
 80039b6:	4413      	add	r3, r2
 80039b8:	00db      	lsls	r3, r3, #3
 80039ba:	440b      	add	r3, r1
 80039bc:	3339      	adds	r3, #57	; 0x39
 80039be:	78fa      	ldrb	r2, [r7, #3]
 80039c0:	701a      	strb	r2, [r3, #0]
 80039c2:	78fa      	ldrb	r2, [r7, #3]
 80039c4:	6879      	ldr	r1, [r7, #4]
 80039c6:	4613      	mov	r3, r2
 80039c8:	009b      	lsls	r3, r3, #2
 80039ca:	4413      	add	r3, r2
 80039cc:	00db      	lsls	r3, r3, #3
 80039ce:	440b      	add	r3, r1
 80039d0:	333f      	adds	r3, #63	; 0x3f
 80039d2:	f897 2024 	ldrb.w	r2, [r7, #36]	; 0x24
 80039d6:	701a      	strb	r2, [r3, #0]
 80039d8:	78fa      	ldrb	r2, [r7, #3]
 80039da:	78bb      	ldrb	r3, [r7, #2]
 80039dc:	f003 037f 	and.w	r3, r3, #127	; 0x7f
 80039e0:	b2d8      	uxtb	r0, r3
 80039e2:	6879      	ldr	r1, [r7, #4]
 80039e4:	4613      	mov	r3, r2
 80039e6:	009b      	lsls	r3, r3, #2
 80039e8:	4413      	add	r3, r2
 80039ea:	00db      	lsls	r3, r3, #3
 80039ec:	440b      	add	r3, r1
 80039ee:	333a      	adds	r3, #58	; 0x3a
 80039f0:	4602      	mov	r2, r0
 80039f2:	701a      	strb	r2, [r3, #0]
 80039f4:	f997 3002 	ldrsb.w	r3, [r7, #2]
 80039f8:	2b00      	cmp	r3, #0
 80039fa:	da0a      	bge.n	8003a12 <HAL_HCD_HC_Init+0xd0>
 80039fc:	78fa      	ldrb	r2, [r7, #3]
 80039fe:	6879      	ldr	r1, [r7, #4]
 8003a00:	4613      	mov	r3, r2
 8003a02:	009b      	lsls	r3, r3, #2
 8003a04:	4413      	add	r3, r2
 8003a06:	00db      	lsls	r3, r3, #3
 8003a08:	440b      	add	r3, r1
 8003a0a:	333b      	adds	r3, #59	; 0x3b
 8003a0c:	2201      	movs	r2, #1
 8003a0e:	701a      	strb	r2, [r3, #0]
 8003a10:	e009      	b.n	8003a26 <HAL_HCD_HC_Init+0xe4>
 8003a12:	78fa      	ldrb	r2, [r7, #3]
 8003a14:	6879      	ldr	r1, [r7, #4]
 8003a16:	4613      	mov	r3, r2
 8003a18:	009b      	lsls	r3, r3, #2
 8003a1a:	4413      	add	r3, r2
 8003a1c:	00db      	lsls	r3, r3, #3
 8003a1e:	440b      	add	r3, r1
 8003a20:	333b      	adds	r3, #59	; 0x3b
 8003a22:	2200      	movs	r2, #0
 8003a24:	701a      	strb	r2, [r3, #0]
 8003a26:	78fa      	ldrb	r2, [r7, #3]
 8003a28:	6879      	ldr	r1, [r7, #4]
 8003a2a:	4613      	mov	r3, r2
 8003a2c:	009b      	lsls	r3, r3, #2
 8003a2e:	4413      	add	r3, r2
 8003a30:	00db      	lsls	r3, r3, #3
 8003a32:	440b      	add	r3, r1
 8003a34:	333c      	adds	r3, #60	; 0x3c
 8003a36:	f897 2020 	ldrb.w	r2, [r7, #32]
 8003a3a:	701a      	strb	r2, [r3, #0]
 8003a3c:	687b      	ldr	r3, [r7, #4]
 8003a3e:	6818      	ldr	r0, [r3, #0]
 8003a40:	787c      	ldrb	r4, [r7, #1]
 8003a42:	78ba      	ldrb	r2, [r7, #2]
 8003a44:	78f9      	ldrb	r1, [r7, #3]
 8003a46:	8d3b      	ldrh	r3, [r7, #40]	; 0x28
 8003a48:	9302      	str	r3, [sp, #8]
 8003a4a:	f897 3024 	ldrb.w	r3, [r7, #36]	; 0x24
 8003a4e:	9301      	str	r3, [sp, #4]
 8003a50:	f897 3020 	ldrb.w	r3, [r7, #32]
 8003a54:	9300      	str	r3, [sp, #0]
 8003a56:	4623      	mov	r3, r4
 8003a58:	f005 f89e 	bl	8008b98 <USB_HC_Init>
 8003a5c:	4603      	mov	r3, r0
 8003a5e:	73fb      	strb	r3, [r7, #15]
 8003a60:	687b      	ldr	r3, [r7, #4]
 8003a62:	2200      	movs	r2, #0
 8003a64:	f883 22b8 	strb.w	r2, [r3, #696]	; 0x2b8
 8003a68:	7bfb      	ldrb	r3, [r7, #15]
 8003a6a:	4618      	mov	r0, r3
 8003a6c:	3714      	adds	r7, #20
 8003a6e:	46bd      	mov	sp, r7
 8003a70:	bd90      	pop	{r4, r7, pc}

08003a72 <HAL_HCD_HC_Halt>:
 8003a72:	b580      	push	{r7, lr}
 8003a74:	b084      	sub	sp, #16
 8003a76:	af00      	add	r7, sp, #0
 8003a78:	6078      	str	r0, [r7, #4]
 8003a7a:	460b      	mov	r3, r1
 8003a7c:	70fb      	strb	r3, [r7, #3]
 8003a7e:	2300      	movs	r3, #0
 8003a80:	73fb      	strb	r3, [r7, #15]
 8003a82:	687b      	ldr	r3, [r7, #4]
 8003a84:	f893 32b8 	ldrb.w	r3, [r3, #696]	; 0x2b8
 8003a88:	2b01      	cmp	r3, #1
 8003a8a:	d101      	bne.n	8003a90 <HAL_HCD_HC_Halt+0x1e>
 8003a8c:	2302      	movs	r3, #2
 8003a8e:	e00f      	b.n	8003ab0 <HAL_HCD_HC_Halt+0x3e>
 8003a90:	687b      	ldr	r3, [r7, #4]
 8003a92:	2201      	movs	r2, #1
 8003a94:	f883 22b8 	strb.w	r2, [r3, #696]	; 0x2b8
 8003a98:	687b      	ldr	r3, [r7, #4]
 8003a9a:	681b      	ldr	r3, [r3, #0]
 8003a9c:	78fa      	ldrb	r2, [r7, #3]
 8003a9e:	4611      	mov	r1, r2
 8003aa0:	4618      	mov	r0, r3
 8003aa2:	f005 fa7c 	bl	8008f9e <USB_HC_Halt>
 8003aa6:	687b      	ldr	r3, [r7, #4]
 8003aa8:	2200      	movs	r2, #0
 8003aaa:	f883 22b8 	strb.w	r2, [r3, #696]	; 0x2b8
 8003aae:	7bfb      	ldrb	r3, [r7, #15]
 8003ab0:	4618      	mov	r0, r3
 8003ab2:	3710      	adds	r7, #16
 8003ab4:	46bd      	mov	sp, r7
 8003ab6:	bd80      	pop	{r7, pc}

08003ab8 <HAL_HCD_HC_SubmitRequest>:
 8003ab8:	b580      	push	{r7, lr}
 8003aba:	b082      	sub	sp, #8
 8003abc:	af00      	add	r7, sp, #0
 8003abe:	6078      	str	r0, [r7, #4]
 8003ac0:	4608      	mov	r0, r1
 8003ac2:	4611      	mov	r1, r2
 8003ac4:	461a      	mov	r2, r3
 8003ac6:	4603      	mov	r3, r0
 8003ac8:	70fb      	strb	r3, [r7, #3]
 8003aca:	460b      	mov	r3, r1
 8003acc:	70bb      	strb	r3, [r7, #2]
 8003ace:	4613      	mov	r3, r2
 8003ad0:	707b      	strb	r3, [r7, #1]
 8003ad2:	78fa      	ldrb	r2, [r7, #3]
 8003ad4:	6879      	ldr	r1, [r7, #4]
 8003ad6:	4613      	mov	r3, r2
 8003ad8:	009b      	lsls	r3, r3, #2
 8003ada:	4413      	add	r3, r2
 8003adc:	00db      	lsls	r3, r3, #3
 8003ade:	440b      	add	r3, r1
 8003ae0:	333b      	adds	r3, #59	; 0x3b
 8003ae2:	78ba      	ldrb	r2, [r7, #2]
 8003ae4:	701a      	strb	r2, [r3, #0]
 8003ae6:	78fa      	ldrb	r2, [r7, #3]
 8003ae8:	6879      	ldr	r1, [r7, #4]
 8003aea:	4613      	mov	r3, r2
 8003aec:	009b      	lsls	r3, r3, #2
 8003aee:	4413      	add	r3, r2
 8003af0:	00db      	lsls	r3, r3, #3
 8003af2:	440b      	add	r3, r1
 8003af4:	333f      	adds	r3, #63	; 0x3f
 8003af6:	787a      	ldrb	r2, [r7, #1]
 8003af8:	701a      	strb	r2, [r3, #0]
 8003afa:	7c3b      	ldrb	r3, [r7, #16]
 8003afc:	2b00      	cmp	r3, #0
 8003afe:	d10a      	bne.n	8003b16 <HAL_HCD_HC_SubmitRequest+0x5e>
 8003b00:	78fa      	ldrb	r2, [r7, #3]
 8003b02:	6879      	ldr	r1, [r7, #4]
 8003b04:	4613      	mov	r3, r2
 8003b06:	009b      	lsls	r3, r3, #2
 8003b08:	4413      	add	r3, r2
 8003b0a:	00db      	lsls	r3, r3, #3
 8003b0c:	440b      	add	r3, r1
 8003b0e:	3342      	adds	r3, #66	; 0x42
 8003b10:	2203      	movs	r2, #3
 8003b12:	701a      	strb	r2, [r3, #0]
 8003b14:	e009      	b.n	8003b2a <HAL_HCD_HC_SubmitRequest+0x72>
 8003b16:	78fa      	ldrb	r2, [r7, #3]
 8003b18:	6879      	ldr	r1, [r7, #4]
 8003b1a:	4613      	mov	r3, r2
 8003b1c:	009b      	lsls	r3, r3, #2
 8003b1e:	4413      	add	r3, r2
 8003b20:	00db      	lsls	r3, r3, #3
 8003b22:	440b      	add	r3, r1
 8003b24:	3342      	adds	r3, #66	; 0x42
 8003b26:	2202      	movs	r2, #2
 8003b28:	701a      	strb	r2, [r3, #0]
 8003b2a:	787b      	ldrb	r3, [r7, #1]
 8003b2c:	2b03      	cmp	r3, #3
 8003b2e:	f200 80d6 	bhi.w	8003cde <HAL_HCD_HC_SubmitRequest+0x226>
 8003b32:	a201      	add	r2, pc, #4	; (adr r2, 8003b38 <HAL_HCD_HC_SubmitRequest+0x80>)
 8003b34:	f852 f023 	ldr.w	pc, [r2, r3, lsl #2]
 8003b38:	08003b49 	.word	0x08003b49
 8003b3c:	08003cc9 	.word	0x08003cc9
 8003b40:	08003bb5 	.word	0x08003bb5
 8003b44:	08003c3f 	.word	0x08003c3f
 8003b48:	7c3b      	ldrb	r3, [r7, #16]
 8003b4a:	2b01      	cmp	r3, #1
 8003b4c:	f040 80c9 	bne.w	8003ce2 <HAL_HCD_HC_SubmitRequest+0x22a>
 8003b50:	78bb      	ldrb	r3, [r7, #2]
 8003b52:	2b00      	cmp	r3, #0
 8003b54:	f040 80c5 	bne.w	8003ce2 <HAL_HCD_HC_SubmitRequest+0x22a>
 8003b58:	8b3b      	ldrh	r3, [r7, #24]
 8003b5a:	2b00      	cmp	r3, #0
 8003b5c:	d109      	bne.n	8003b72 <HAL_HCD_HC_SubmitRequest+0xba>
 8003b5e:	78fa      	ldrb	r2, [r7, #3]
 8003b60:	6879      	ldr	r1, [r7, #4]
 8003b62:	4613      	mov	r3, r2
 8003b64:	009b      	lsls	r3, r3, #2
 8003b66:	4413      	add	r3, r2
 8003b68:	00db      	lsls	r3, r3, #3
 8003b6a:	440b      	add	r3, r1
 8003b6c:	3351      	adds	r3, #81	; 0x51
 8003b6e:	2201      	movs	r2, #1
 8003b70:	701a      	strb	r2, [r3, #0]
 8003b72:	78fa      	ldrb	r2, [r7, #3]
 8003b74:	6879      	ldr	r1, [r7, #4]
 8003b76:	4613      	mov	r3, r2
 8003b78:	009b      	lsls	r3, r3, #2
 8003b7a:	4413      	add	r3, r2
 8003b7c:	00db      	lsls	r3, r3, #3
 8003b7e:	440b      	add	r3, r1
 8003b80:	3351      	adds	r3, #81	; 0x51
 8003b82:	781b      	ldrb	r3, [r3, #0]
 8003b84:	2b00      	cmp	r3, #0
 8003b86:	d10a      	bne.n	8003b9e <HAL_HCD_HC_SubmitRequest+0xe6>
 8003b88:	78fa      	ldrb	r2, [r7, #3]
 8003b8a:	6879      	ldr	r1, [r7, #4]
 8003b8c:	4613      	mov	r3, r2
 8003b8e:	009b      	lsls	r3, r3, #2
 8003b90:	4413      	add	r3, r2
 8003b92:	00db      	lsls	r3, r3, #3
 8003b94:	440b      	add	r3, r1
 8003b96:	3342      	adds	r3, #66	; 0x42
 8003b98:	2200      	movs	r2, #0
 8003b9a:	701a      	strb	r2, [r3, #0]
 8003b9c:	e0a1      	b.n	8003ce2 <HAL_HCD_HC_SubmitRequest+0x22a>
 8003b9e:	78fa      	ldrb	r2, [r7, #3]
 8003ba0:	6879      	ldr	r1, [r7, #4]
 8003ba2:	4613      	mov	r3, r2
 8003ba4:	009b      	lsls	r3, r3, #2
 8003ba6:	4413      	add	r3, r2
 8003ba8:	00db      	lsls	r3, r3, #3
 8003baa:	440b      	add	r3, r1
 8003bac:	3342      	adds	r3, #66	; 0x42
 8003bae:	2202      	movs	r2, #2
 8003bb0:	701a      	strb	r2, [r3, #0]
 8003bb2:	e096      	b.n	8003ce2 <HAL_HCD_HC_SubmitRequest+0x22a>
 8003bb4:	78bb      	ldrb	r3, [r7, #2]
 8003bb6:	2b00      	cmp	r3, #0
 8003bb8:	d120      	bne.n	8003bfc <HAL_HCD_HC_SubmitRequest+0x144>
 8003bba:	78fa      	ldrb	r2, [r7, #3]
 8003bbc:	6879      	ldr	r1, [r7, #4]
 8003bbe:	4613      	mov	r3, r2
 8003bc0:	009b      	lsls	r3, r3, #2
 8003bc2:	4413      	add	r3, r2
 8003bc4:	00db      	lsls	r3, r3, #3
 8003bc6:	440b      	add	r3, r1
 8003bc8:	3351      	adds	r3, #81	; 0x51
 8003bca:	781b      	ldrb	r3, [r3, #0]
 8003bcc:	2b00      	cmp	r3, #0
 8003bce:	d10a      	bne.n	8003be6 <HAL_HCD_HC_SubmitRequest+0x12e>
 8003bd0:	78fa      	ldrb	r2, [r7, #3]
 8003bd2:	6879      	ldr	r1, [r7, #4]
 8003bd4:	4613      	mov	r3, r2
 8003bd6:	009b      	lsls	r3, r3, #2
 8003bd8:	4413      	add	r3, r2
 8003bda:	00db      	lsls	r3, r3, #3
 8003bdc:	440b      	add	r3, r1
 8003bde:	3342      	adds	r3, #66	; 0x42
 8003be0:	2200      	movs	r2, #0
 8003be2:	701a      	strb	r2, [r3, #0]
 8003be4:	e07e      	b.n	8003ce4 <HAL_HCD_HC_SubmitRequest+0x22c>
 8003be6:	78fa      	ldrb	r2, [r7, #3]
 8003be8:	6879      	ldr	r1, [r7, #4]
 8003bea:	4613      	mov	r3, r2
 8003bec:	009b      	lsls	r3, r3, #2
 8003bee:	4413      	add	r3, r2
 8003bf0:	00db      	lsls	r3, r3, #3
 8003bf2:	440b      	add	r3, r1
 8003bf4:	3342      	adds	r3, #66	; 0x42
 8003bf6:	2202      	movs	r2, #2
 8003bf8:	701a      	strb	r2, [r3, #0]
 8003bfa:	e073      	b.n	8003ce4 <HAL_HCD_HC_SubmitRequest+0x22c>
 8003bfc:	78fa      	ldrb	r2, [r7, #3]
 8003bfe:	6879      	ldr	r1, [r7, #4]
 8003c00:	4613      	mov	r3, r2
 8003c02:	009b      	lsls	r3, r3, #2
 8003c04:	4413      	add	r3, r2
 8003c06:	00db      	lsls	r3, r3, #3
 8003c08:	440b      	add	r3, r1
 8003c0a:	3350      	adds	r3, #80	; 0x50
 8003c0c:	781b      	ldrb	r3, [r3, #0]
 8003c0e:	2b00      	cmp	r3, #0
 8003c10:	d10a      	bne.n	8003c28 <HAL_HCD_HC_SubmitRequest+0x170>
 8003c12:	78fa      	ldrb	r2, [r7, #3]
 8003c14:	6879      	ldr	r1, [r7, #4]
 8003c16:	4613      	mov	r3, r2
 8003c18:	009b      	lsls	r3, r3, #2
 8003c1a:	4413      	add	r3, r2
 8003c1c:	00db      	lsls	r3, r3, #3
 8003c1e:	440b      	add	r3, r1
 8003c20:	3342      	adds	r3, #66	; 0x42
 8003c22:	2200      	movs	r2, #0
 8003c24:	701a      	strb	r2, [r3, #0]
 8003c26:	e05d      	b.n	8003ce4 <HAL_HCD_HC_SubmitRequest+0x22c>
 8003c28:	78fa      	ldrb	r2, [r7, #3]
 8003c2a:	6879      	ldr	r1, [r7, #4]
 8003c2c:	4613      	mov	r3, r2
 8003c2e:	009b      	lsls	r3, r3, #2
 8003c30:	4413      	add	r3, r2
 8003c32:	00db      	lsls	r3, r3, #3
 8003c34:	440b      	add	r3, r1
 8003c36:	3342      	adds	r3, #66	; 0x42
 8003c38:	2202      	movs	r2, #2
 8003c3a:	701a      	strb	r2, [r3, #0]
 8003c3c:	e052      	b.n	8003ce4 <HAL_HCD_HC_SubmitRequest+0x22c>
 8003c3e:	78bb      	ldrb	r3, [r7, #2]
 8003c40:	2b00      	cmp	r3, #0
 8003c42:	d120      	bne.n	8003c86 <HAL_HCD_HC_SubmitRequest+0x1ce>
 8003c44:	78fa      	ldrb	r2, [r7, #3]
 8003c46:	6879      	ldr	r1, [r7, #4]
 8003c48:	4613      	mov	r3, r2
 8003c4a:	009b      	lsls	r3, r3, #2
 8003c4c:	4413      	add	r3, r2
 8003c4e:	00db      	lsls	r3, r3, #3
 8003c50:	440b      	add	r3, r1
 8003c52:	3351      	adds	r3, #81	; 0x51
 8003c54:	781b      	ldrb	r3, [r3, #0]
 8003c56:	2b00      	cmp	r3, #0
 8003c58:	d10a      	bne.n	8003c70 <HAL_HCD_HC_SubmitRequest+0x1b8>
 8003c5a:	78fa      	ldrb	r2, [r7, #3]
 8003c5c:	6879      	ldr	r1, [r7, #4]
 8003c5e:	4613      	mov	r3, r2
 8003c60:	009b      	lsls	r3, r3, #2
 8003c62:	4413      	add	r3, r2
 8003c64:	00db      	lsls	r3, r3, #3
 8003c66:	440b      	add	r3, r1
 8003c68:	3342      	adds	r3, #66	; 0x42
 8003c6a:	2200      	movs	r2, #0
 8003c6c:	701a      	strb	r2, [r3, #0]
 8003c6e:	e039      	b.n	8003ce4 <HAL_HCD_HC_SubmitRequest+0x22c>
 8003c70:	78fa      	ldrb	r2, [r7, #3]
 8003c72:	6879      	ldr	r1, [r7, #4]
 8003c74:	4613      	mov	r3, r2
 8003c76:	009b      	lsls	r3, r3, #2
 8003c78:	4413      	add	r3, r2
 8003c7a:	00db      	lsls	r3, r3, #3
 8003c7c:	440b      	add	r3, r1
 8003c7e:	3342      	adds	r3, #66	; 0x42
 8003c80:	2202      	movs	r2, #2
 8003c82:	701a      	strb	r2, [r3, #0]
 8003c84:	e02e      	b.n	8003ce4 <HAL_HCD_HC_SubmitRequest+0x22c>
 8003c86:	78fa      	ldrb	r2, [r7, #3]
 8003c88:	6879      	ldr	r1, [r7, #4]
 8003c8a:	4613      	mov	r3, r2
 8003c8c:	009b      	lsls	r3, r3, #2
 8003c8e:	4413      	add	r3, r2
 8003c90:	00db      	lsls	r3, r3, #3
 8003c92:	440b      	add	r3, r1
 8003c94:	3350      	adds	r3, #80	; 0x50
 8003c96:	781b      	ldrb	r3, [r3, #0]
 8003c98:	2b00      	cmp	r3, #0
 8003c9a:	d10a      	bne.n	8003cb2 <HAL_HCD_HC_SubmitRequest+0x1fa>
 8003c9c:	78fa      	ldrb	r2, [r7, #3]
 8003c9e:	6879      	ldr	r1, [r7, #4]
 8003ca0:	4613      	mov	r3, r2
 8003ca2:	009b      	lsls	r3, r3, #2
 8003ca4:	4413      	add	r3, r2
 8003ca6:	00db      	lsls	r3, r3, #3
 8003ca8:	440b      	add	r3, r1
 8003caa:	3342      	adds	r3, #66	; 0x42
 8003cac:	2200      	movs	r2, #0
 8003cae:	701a      	strb	r2, [r3, #0]
 8003cb0:	e018      	b.n	8003ce4 <HAL_HCD_HC_SubmitRequest+0x22c>
 8003cb2:	78fa      	ldrb	r2, [r7, #3]
 8003cb4:	6879      	ldr	r1, [r7, #4]
 8003cb6:	4613      	mov	r3, r2
 8003cb8:	009b      	lsls	r3, r3, #2
 8003cba:	4413      	add	r3, r2
 8003cbc:	00db      	lsls	r3, r3, #3
 8003cbe:	440b      	add	r3, r1
 8003cc0:	3342      	adds	r3, #66	; 0x42
 8003cc2:	2202      	movs	r2, #2
 8003cc4:	701a      	strb	r2, [r3, #0]
 8003cc6:	e00d      	b.n	8003ce4 <HAL_HCD_HC_SubmitRequest+0x22c>
 8003cc8:	78fa      	ldrb	r2, [r7, #3]
 8003cca:	6879      	ldr	r1, [r7, #4]
 8003ccc:	4613      	mov	r3, r2
 8003cce:	009b      	lsls	r3, r3, #2
 8003cd0:	4413      	add	r3, r2
 8003cd2:	00db      	lsls	r3, r3, #3
 8003cd4:	440b      	add	r3, r1
 8003cd6:	3342      	adds	r3, #66	; 0x42
 8003cd8:	2200      	movs	r2, #0
 8003cda:	701a      	strb	r2, [r3, #0]
 8003cdc:	e002      	b.n	8003ce4 <HAL_HCD_HC_SubmitRequest+0x22c>
 8003cde:	bf00      	nop
 8003ce0:	e000      	b.n	8003ce4 <HAL_HCD_HC_SubmitRequest+0x22c>
 8003ce2:	bf00      	nop
 8003ce4:	78fa      	ldrb	r2, [r7, #3]
 8003ce6:	6879      	ldr	r1, [r7, #4]
 8003ce8:	4613      	mov	r3, r2
 8003cea:	009b      	lsls	r3, r3, #2
 8003cec:	4413      	add	r3, r2
 8003cee:	00db      	lsls	r3, r3, #3
 8003cf0:	440b      	add	r3, r1
 8003cf2:	3344      	adds	r3, #68	; 0x44
 8003cf4:	697a      	ldr	r2, [r7, #20]
 8003cf6:	601a      	str	r2, [r3, #0]
 8003cf8:	78fa      	ldrb	r2, [r7, #3]
 8003cfa:	8b39      	ldrh	r1, [r7, #24]
 8003cfc:	6878      	ldr	r0, [r7, #4]
 8003cfe:	4613      	mov	r3, r2
 8003d00:	009b      	lsls	r3, r3, #2
 8003d02:	4413      	add	r3, r2
 8003d04:	00db      	lsls	r3, r3, #3
 8003d06:	4403      	add	r3, r0
 8003d08:	3348      	adds	r3, #72	; 0x48
 8003d0a:	6019      	str	r1, [r3, #0]
 8003d0c:	78fa      	ldrb	r2, [r7, #3]
 8003d0e:	6879      	ldr	r1, [r7, #4]
 8003d10:	4613      	mov	r3, r2
 8003d12:	009b      	lsls	r3, r3, #2
 8003d14:	4413      	add	r3, r2
 8003d16:	00db      	lsls	r3, r3, #3
 8003d18:	440b      	add	r3, r1
 8003d1a:	335c      	adds	r3, #92	; 0x5c
 8003d1c:	2200      	movs	r2, #0
 8003d1e:	701a      	strb	r2, [r3, #0]
 8003d20:	78fa      	ldrb	r2, [r7, #3]
 8003d22:	6879      	ldr	r1, [r7, #4]
 8003d24:	4613      	mov	r3, r2
 8003d26:	009b      	lsls	r3, r3, #2
 8003d28:	4413      	add	r3, r2
 8003d2a:	00db      	lsls	r3, r3, #3
 8003d2c:	440b      	add	r3, r1
 8003d2e:	334c      	adds	r3, #76	; 0x4c
 8003d30:	2200      	movs	r2, #0
 8003d32:	601a      	str	r2, [r3, #0]
 8003d34:	78fa      	ldrb	r2, [r7, #3]
 8003d36:	6879      	ldr	r1, [r7, #4]
 8003d38:	4613      	mov	r3, r2
 8003d3a:	009b      	lsls	r3, r3, #2
 8003d3c:	4413      	add	r3, r2
 8003d3e:	00db      	lsls	r3, r3, #3
 8003d40:	440b      	add	r3, r1
 8003d42:	3339      	adds	r3, #57	; 0x39
 8003d44:	78fa      	ldrb	r2, [r7, #3]
 8003d46:	701a      	strb	r2, [r3, #0]
 8003d48:	78fa      	ldrb	r2, [r7, #3]
 8003d4a:	6879      	ldr	r1, [r7, #4]
 8003d4c:	4613      	mov	r3, r2
 8003d4e:	009b      	lsls	r3, r3, #2
 8003d50:	4413      	add	r3, r2
 8003d52:	00db      	lsls	r3, r3, #3
 8003d54:	440b      	add	r3, r1
 8003d56:	335d      	adds	r3, #93	; 0x5d
 8003d58:	2200      	movs	r2, #0
 8003d5a:	701a      	strb	r2, [r3, #0]
 8003d5c:	687b      	ldr	r3, [r7, #4]
 8003d5e:	6818      	ldr	r0, [r3, #0]
 8003d60:	78fa      	ldrb	r2, [r7, #3]
 8003d62:	4613      	mov	r3, r2
 8003d64:	009b      	lsls	r3, r3, #2
 8003d66:	4413      	add	r3, r2
 8003d68:	00db      	lsls	r3, r3, #3
 8003d6a:	3338      	adds	r3, #56	; 0x38
 8003d6c:	687a      	ldr	r2, [r7, #4]
 8003d6e:	4413      	add	r3, r2
 8003d70:	4619      	mov	r1, r3
 8003d72:	f005 f803 	bl	8008d7c <USB_HC_StartXfer>
 8003d76:	4603      	mov	r3, r0
 8003d78:	4618      	mov	r0, r3
 8003d7a:	3708      	adds	r7, #8
 8003d7c:	46bd      	mov	sp, r7
 8003d7e:	bd80      	pop	{r7, pc}

08003d80 <HAL_HCD_IRQHandler>:
 8003d80:	b580      	push	{r7, lr}
 8003d82:	b086      	sub	sp, #24
 8003d84:	af00      	add	r7, sp, #0
 8003d86:	6078      	str	r0, [r7, #4]
 8003d88:	687b      	ldr	r3, [r7, #4]
 8003d8a:	681b      	ldr	r3, [r3, #0]
 8003d8c:	613b      	str	r3, [r7, #16]
 8003d8e:	693b      	ldr	r3, [r7, #16]
 8003d90:	60fb      	str	r3, [r7, #12]
 8003d92:	687b      	ldr	r3, [r7, #4]
 8003d94:	681b      	ldr	r3, [r3, #0]
 8003d96:	4618      	mov	r0, r3
 8003d98:	f004 fdb9 	bl	800890e <USB_GetMode>
 8003d9c:	4603      	mov	r3, r0
 8003d9e:	2b01      	cmp	r3, #1
 8003da0:	f040 80f1 	bne.w	8003f86 <HAL_HCD_IRQHandler+0x206>
 8003da4:	687b      	ldr	r3, [r7, #4]
 8003da6:	681b      	ldr	r3, [r3, #0]
 8003da8:	4618      	mov	r0, r3
 8003daa:	f004 fd9d 	bl	80088e8 <USB_ReadInterrupts>
 8003dae:	4603      	mov	r3, r0
 8003db0:	2b00      	cmp	r3, #0
 8003db2:	f000 80e7 	beq.w	8003f84 <HAL_HCD_IRQHandler+0x204>
 8003db6:	687b      	ldr	r3, [r7, #4]
 8003db8:	681b      	ldr	r3, [r3, #0]
 8003dba:	4618      	mov	r0, r3
 8003dbc:	f004 fd94 	bl	80088e8 <USB_ReadInterrupts>
 8003dc0:	4603      	mov	r3, r0
 8003dc2:	f403 1300 	and.w	r3, r3, #2097152	; 0x200000
 8003dc6:	f5b3 1f00 	cmp.w	r3, #2097152	; 0x200000
 8003dca:	d104      	bne.n	8003dd6 <HAL_HCD_IRQHandler+0x56>
 8003dcc:	687b      	ldr	r3, [r7, #4]
 8003dce:	681b      	ldr	r3, [r3, #0]
 8003dd0:	f44f 1200 	mov.w	r2, #2097152	; 0x200000
 8003dd4:	615a      	str	r2, [r3, #20]
 8003dd6:	687b      	ldr	r3, [r7, #4]
 8003dd8:	681b      	ldr	r3, [r3, #0]
 8003dda:	4618      	mov	r0, r3
 8003ddc:	f004 fd84 	bl	80088e8 <USB_ReadInterrupts>
 8003de0:	4603      	mov	r3, r0
 8003de2:	f403 1380 	and.w	r3, r3, #1048576	; 0x100000
 8003de6:	f5b3 1f80 	cmp.w	r3, #1048576	; 0x100000
 8003dea:	d104      	bne.n	8003df6 <HAL_HCD_IRQHandler+0x76>
 8003dec:	687b      	ldr	r3, [r7, #4]
 8003dee:	681b      	ldr	r3, [r3, #0]
 8003df0:	f44f 1280 	mov.w	r2, #1048576	; 0x100000
 8003df4:	615a      	str	r2, [r3, #20]
 8003df6:	687b      	ldr	r3, [r7, #4]
 8003df8:	681b      	ldr	r3, [r3, #0]
 8003dfa:	4618      	mov	r0, r3
 8003dfc:	f004 fd74 	bl	80088e8 <USB_ReadInterrupts>
 8003e00:	4603      	mov	r3, r0
 8003e02:	f003 6380 	and.w	r3, r3, #67108864	; 0x4000000
 8003e06:	f1b3 6f80 	cmp.w	r3, #67108864	; 0x4000000
 8003e0a:	d104      	bne.n	8003e16 <HAL_HCD_IRQHandler+0x96>
 8003e0c:	687b      	ldr	r3, [r7, #4]
 8003e0e:	681b      	ldr	r3, [r3, #0]
 8003e10:	f04f 6280 	mov.w	r2, #67108864	; 0x4000000
 8003e14:	615a      	str	r2, [r3, #20]
 8003e16:	687b      	ldr	r3, [r7, #4]
 8003e18:	681b      	ldr	r3, [r3, #0]
 8003e1a:	4618      	mov	r0, r3
 8003e1c:	f004 fd64 	bl	80088e8 <USB_ReadInterrupts>
 8003e20:	4603      	mov	r3, r0
 8003e22:	f003 0302 	and.w	r3, r3, #2
 8003e26:	2b02      	cmp	r3, #2
 8003e28:	d103      	bne.n	8003e32 <HAL_HCD_IRQHandler+0xb2>
 8003e2a:	687b      	ldr	r3, [r7, #4]
 8003e2c:	681b      	ldr	r3, [r3, #0]
 8003e2e:	2202      	movs	r2, #2
 8003e30:	615a      	str	r2, [r3, #20]
 8003e32:	687b      	ldr	r3, [r7, #4]
 8003e34:	681b      	ldr	r3, [r3, #0]
 8003e36:	4618      	mov	r0, r3
 8003e38:	f004 fd56 	bl	80088e8 <USB_ReadInterrupts>
 8003e3c:	4603      	mov	r3, r0
 8003e3e:	f003 5300 	and.w	r3, r3, #536870912	; 0x20000000
 8003e42:	f1b3 5f00 	cmp.w	r3, #536870912	; 0x20000000
 8003e46:	d117      	bne.n	8003e78 <HAL_HCD_IRQHandler+0xf8>
 8003e48:	68fb      	ldr	r3, [r7, #12]
 8003e4a:	f503 6388 	add.w	r3, r3, #1088	; 0x440
 8003e4e:	681b      	ldr	r3, [r3, #0]
 8003e50:	68fa      	ldr	r2, [r7, #12]
 8003e52:	f502 6288 	add.w	r2, r2, #1088	; 0x440
 8003e56:	f023 032e 	bic.w	r3, r3, #46	; 0x2e
 8003e5a:	6013      	str	r3, [r2, #0]
 8003e5c:	6878      	ldr	r0, [r7, #4]
 8003e5e:	f006 fb41 	bl	800a4e4 <HAL_HCD_Disconnect_Callback>
 8003e62:	687b      	ldr	r3, [r7, #4]
 8003e64:	681b      	ldr	r3, [r3, #0]
 8003e66:	2101      	movs	r1, #1
 8003e68:	4618      	mov	r0, r3
 8003e6a:	f004 fe11 	bl	8008a90 <USB_InitFSLSPClkSel>
 8003e6e:	687b      	ldr	r3, [r7, #4]
 8003e70:	681b      	ldr	r3, [r3, #0]
 8003e72:	f04f 5200 	mov.w	r2, #536870912	; 0x20000000
 8003e76:	615a      	str	r2, [r3, #20]
 8003e78:	687b      	ldr	r3, [r7, #4]
 8003e7a:	681b      	ldr	r3, [r3, #0]
 8003e7c:	4618      	mov	r0, r3
 8003e7e:	f004 fd33 	bl	80088e8 <USB_ReadInterrupts>
 8003e82:	4603      	mov	r3, r0
 8003e84:	f003 7380 	and.w	r3, r3, #16777216	; 0x1000000
 8003e88:	f1b3 7f80 	cmp.w	r3, #16777216	; 0x1000000
 8003e8c:	d102      	bne.n	8003e94 <HAL_HCD_IRQHandler+0x114>
 8003e8e:	6878      	ldr	r0, [r7, #4]
 8003e90:	f001 f868 	bl	8004f64 <HCD_Port_IRQHandler>
 8003e94:	687b      	ldr	r3, [r7, #4]
 8003e96:	681b      	ldr	r3, [r3, #0]
 8003e98:	4618      	mov	r0, r3
 8003e9a:	f004 fd25 	bl	80088e8 <USB_ReadInterrupts>
 8003e9e:	4603      	mov	r3, r0
 8003ea0:	f003 0308 	and.w	r3, r3, #8
 8003ea4:	2b08      	cmp	r3, #8
 8003ea6:	d106      	bne.n	8003eb6 <HAL_HCD_IRQHandler+0x136>
 8003ea8:	6878      	ldr	r0, [r7, #4]
 8003eaa:	f006 faff 	bl	800a4ac <HAL_HCD_SOF_Callback>
 8003eae:	687b      	ldr	r3, [r7, #4]
 8003eb0:	681b      	ldr	r3, [r3, #0]
 8003eb2:	2208      	movs	r2, #8
 8003eb4:	615a      	str	r2, [r3, #20]
 8003eb6:	687b      	ldr	r3, [r7, #4]
 8003eb8:	681b      	ldr	r3, [r3, #0]
 8003eba:	4618      	mov	r0, r3
 8003ebc:	f004 fd14 	bl	80088e8 <USB_ReadInterrupts>
 8003ec0:	4603      	mov	r3, r0
 8003ec2:	f003 7300 	and.w	r3, r3, #33554432	; 0x2000000
 8003ec6:	f1b3 7f00 	cmp.w	r3, #33554432	; 0x2000000
 8003eca:	d138      	bne.n	8003f3e <HAL_HCD_IRQHandler+0x1be>
 8003ecc:	687b      	ldr	r3, [r7, #4]
 8003ece:	681b      	ldr	r3, [r3, #0]
 8003ed0:	4618      	mov	r0, r3
 8003ed2:	f005 f853 	bl	8008f7c <USB_HC_ReadInterrupt>
 8003ed6:	60b8      	str	r0, [r7, #8]
 8003ed8:	2300      	movs	r3, #0
 8003eda:	617b      	str	r3, [r7, #20]
 8003edc:	e025      	b.n	8003f2a <HAL_HCD_IRQHandler+0x1aa>
 8003ede:	697b      	ldr	r3, [r7, #20]
 8003ee0:	f003 030f 	and.w	r3, r3, #15
 8003ee4:	68ba      	ldr	r2, [r7, #8]
 8003ee6:	fa22 f303 	lsr.w	r3, r2, r3
 8003eea:	f003 0301 	and.w	r3, r3, #1
 8003eee:	2b00      	cmp	r3, #0
 8003ef0:	d018      	beq.n	8003f24 <HAL_HCD_IRQHandler+0x1a4>
 8003ef2:	697b      	ldr	r3, [r7, #20]
 8003ef4:	015a      	lsls	r2, r3, #5
 8003ef6:	68fb      	ldr	r3, [r7, #12]
 8003ef8:	4413      	add	r3, r2
 8003efa:	f503 63a0 	add.w	r3, r3, #1280	; 0x500
 8003efe:	681b      	ldr	r3, [r3, #0]
 8003f00:	f403 4300 	and.w	r3, r3, #32768	; 0x8000
 8003f04:	f5b3 4f00 	cmp.w	r3, #32768	; 0x8000
 8003f08:	d106      	bne.n	8003f18 <HAL_HCD_IRQHandler+0x198>
 8003f0a:	697b      	ldr	r3, [r7, #20]
 8003f0c:	b2db      	uxtb	r3, r3
 8003f0e:	4619      	mov	r1, r3
 8003f10:	6878      	ldr	r0, [r7, #4]
 8003f12:	f000 f8b3 	bl	800407c <HCD_HC_IN_IRQHandler>
 8003f16:	e005      	b.n	8003f24 <HAL_HCD_IRQHandler+0x1a4>
 8003f18:	697b      	ldr	r3, [r7, #20]
 8003f1a:	b2db      	uxtb	r3, r3
 8003f1c:	4619      	mov	r1, r3
 8003f1e:	6878      	ldr	r0, [r7, #4]
 8003f20:	f000 fc1f 	bl	8004762 <HCD_HC_OUT_IRQHandler>
 8003f24:	697b      	ldr	r3, [r7, #20]
 8003f26:	3301      	adds	r3, #1
 8003f28:	617b      	str	r3, [r7, #20]
 8003f2a:	687b      	ldr	r3, [r7, #4]
 8003f2c:	689b      	ldr	r3, [r3, #8]
 8003f2e:	697a      	ldr	r2, [r7, #20]
 8003f30:	429a      	cmp	r2, r3
 8003f32:	d3d4      	bcc.n	8003ede <HAL_HCD_IRQHandler+0x15e>
 8003f34:	687b      	ldr	r3, [r7, #4]
 8003f36:	681b      	ldr	r3, [r3, #0]
 8003f38:	f04f 7200 	mov.w	r2, #33554432	; 0x2000000
 8003f3c:	615a      	str	r2, [r3, #20]
 8003f3e:	687b      	ldr	r3, [r7, #4]
 8003f40:	681b      	ldr	r3, [r3, #0]
 8003f42:	4618      	mov	r0, r3
 8003f44:	f004 fcd0 	bl	80088e8 <USB_ReadInterrupts>
 8003f48:	4603      	mov	r3, r0
 8003f4a:	f003 0310 	and.w	r3, r3, #16
 8003f4e:	2b10      	cmp	r3, #16
 8003f50:	d101      	bne.n	8003f56 <HAL_HCD_IRQHandler+0x1d6>
 8003f52:	2301      	movs	r3, #1
 8003f54:	e000      	b.n	8003f58 <HAL_HCD_IRQHandler+0x1d8>
 8003f56:	2300      	movs	r3, #0
 8003f58:	2b00      	cmp	r3, #0
 8003f5a:	d014      	beq.n	8003f86 <HAL_HCD_IRQHandler+0x206>
 8003f5c:	687b      	ldr	r3, [r7, #4]
 8003f5e:	681b      	ldr	r3, [r3, #0]
 8003f60:	699a      	ldr	r2, [r3, #24]
 8003f62:	687b      	ldr	r3, [r7, #4]
 8003f64:	681b      	ldr	r3, [r3, #0]
 8003f66:	f022 0210 	bic.w	r2, r2, #16
 8003f6a:	619a      	str	r2, [r3, #24]
 8003f6c:	6878      	ldr	r0, [r7, #4]
 8003f6e:	f000 ff4d 	bl	8004e0c <HCD_RXQLVL_IRQHandler>
 8003f72:	687b      	ldr	r3, [r7, #4]
 8003f74:	681b      	ldr	r3, [r3, #0]
 8003f76:	699a      	ldr	r2, [r3, #24]
 8003f78:	687b      	ldr	r3, [r7, #4]
 8003f7a:	681b      	ldr	r3, [r3, #0]
 8003f7c:	f042 0210 	orr.w	r2, r2, #16
 8003f80:	619a      	str	r2, [r3, #24]
 8003f82:	e000      	b.n	8003f86 <HAL_HCD_IRQHandler+0x206>
 8003f84:	bf00      	nop
 8003f86:	3718      	adds	r7, #24
 8003f88:	46bd      	mov	sp, r7
 8003f8a:	bd80      	pop	{r7, pc}

08003f8c <HAL_HCD_Start>:
 8003f8c:	b580      	push	{r7, lr}
 8003f8e:	b082      	sub	sp, #8
 8003f90:	af00      	add	r7, sp, #0
 8003f92:	6078      	str	r0, [r7, #4]
 8003f94:	687b      	ldr	r3, [r7, #4]
 8003f96:	f893 32b8 	ldrb.w	r3, [r3, #696]	; 0x2b8
 8003f9a:	2b01      	cmp	r3, #1
 8003f9c:	d101      	bne.n	8003fa2 <HAL_HCD_Start+0x16>
 8003f9e:	2302      	movs	r3, #2
 8003fa0:	e013      	b.n	8003fca <HAL_HCD_Start+0x3e>
 8003fa2:	687b      	ldr	r3, [r7, #4]
 8003fa4:	2201      	movs	r2, #1
 8003fa6:	f883 22b8 	strb.w	r2, [r3, #696]	; 0x2b8
 8003faa:	687b      	ldr	r3, [r7, #4]
 8003fac:	681b      	ldr	r3, [r3, #0]
 8003fae:	4618      	mov	r0, r3
 8003fb0:	f004 fbab 	bl	800870a <USB_EnableGlobalInt>
 8003fb4:	687b      	ldr	r3, [r7, #4]
 8003fb6:	681b      	ldr	r3, [r3, #0]
 8003fb8:	2101      	movs	r1, #1
 8003fba:	4618      	mov	r0, r3
 8003fbc:	f004 fda2 	bl	8008b04 <USB_DriveVbus>
 8003fc0:	687b      	ldr	r3, [r7, #4]
 8003fc2:	2200      	movs	r2, #0
 8003fc4:	f883 22b8 	strb.w	r2, [r3, #696]	; 0x2b8
 8003fc8:	2300      	movs	r3, #0
 8003fca:	4618      	mov	r0, r3
 8003fcc:	3708      	adds	r7, #8
 8003fce:	46bd      	mov	sp, r7
 8003fd0:	bd80      	pop	{r7, pc}

08003fd2 <HAL_HCD_Stop>:
 8003fd2:	b580      	push	{r7, lr}
 8003fd4:	b082      	sub	sp, #8
 8003fd6:	af00      	add	r7, sp, #0
 8003fd8:	6078      	str	r0, [r7, #4]
 8003fda:	687b      	ldr	r3, [r7, #4]
 8003fdc:	f893 32b8 	ldrb.w	r3, [r3, #696]	; 0x2b8
 8003fe0:	2b01      	cmp	r3, #1
 8003fe2:	d101      	bne.n	8003fe8 <HAL_HCD_Stop+0x16>
 8003fe4:	2302      	movs	r3, #2
 8003fe6:	e00d      	b.n	8004004 <HAL_HCD_Stop+0x32>
 8003fe8:	687b      	ldr	r3, [r7, #4]
 8003fea:	2201      	movs	r2, #1
 8003fec:	f883 22b8 	strb.w	r2, [r3, #696]	; 0x2b8
 8003ff0:	687b      	ldr	r3, [r7, #4]
 8003ff2:	681b      	ldr	r3, [r3, #0]
 8003ff4:	4618      	mov	r0, r3
 8003ff6:	f005 f8d1 	bl	800919c <USB_StopHost>
 8003ffa:	687b      	ldr	r3, [r7, #4]
 8003ffc:	2200      	movs	r2, #0
 8003ffe:	f883 22b8 	strb.w	r2, [r3, #696]	; 0x2b8
 8004002:	2300      	movs	r3, #0
 8004004:	4618      	mov	r0, r3
 8004006:	3708      	adds	r7, #8
 8004008:	46bd      	mov	sp, r7
 800400a:	bd80      	pop	{r7, pc}

0800400c <HAL_HCD_HC_GetURBState>:
 800400c:	b480      	push	{r7}
 800400e:	b083      	sub	sp, #12
 8004010:	af00      	add	r7, sp, #0
 8004012:	6078      	str	r0, [r7, #4]
 8004014:	460b      	mov	r3, r1
 8004016:	70fb      	strb	r3, [r7, #3]
 8004018:	78fa      	ldrb	r2, [r7, #3]
 800401a:	6879      	ldr	r1, [r7, #4]
 800401c:	4613      	mov	r3, r2
 800401e:	009b      	lsls	r3, r3, #2
 8004020:	4413      	add	r3, r2
 8004022:	00db      	lsls	r3, r3, #3
 8004024:	440b      	add	r3, r1
 8004026:	335c      	adds	r3, #92	; 0x5c
 8004028:	781b      	ldrb	r3, [r3, #0]
 800402a:	4618      	mov	r0, r3
 800402c:	370c      	adds	r7, #12
 800402e:	46bd      	mov	sp, r7
 8004030:	f85d 7b04 	ldr.w	r7, [sp], #4
 8004034:	4770      	bx	lr

08004036 <HAL_HCD_HC_GetXferCount>:
 8004036:	b480      	push	{r7}
 8004038:	b083      	sub	sp, #12
 800403a:	af00      	add	r7, sp, #0
 800403c:	6078      	str	r0, [r7, #4]
 800403e:	460b      	mov	r3, r1
 8004040:	70fb      	strb	r3, [r7, #3]
 8004042:	78fa      	ldrb	r2, [r7, #3]
 8004044:	6879      	ldr	r1, [r7, #4]
 8004046:	4613      	mov	r3, r2
 8004048:	009b      	lsls	r3, r3, #2
 800404a:	4413      	add	r3, r2
 800404c:	00db      	lsls	r3, r3, #3
 800404e:	440b      	add	r3, r1
 8004050:	334c      	adds	r3, #76	; 0x4c
 8004052:	681b      	ldr	r3, [r3, #0]
 8004054:	4618      	mov	r0, r3
 8004056:	370c      	adds	r7, #12
 8004058:	46bd      	mov	sp, r7
 800405a:	f85d 7b04 	ldr.w	r7, [sp], #4
 800405e:	4770      	bx	lr

08004060 <HAL_HCD_GetCurrentFrame>:
 8004060:	b580      	push	{r7, lr}
 8004062:	b082      	sub	sp, #8
 8004064:	af00      	add	r7, sp, #0
 8004066:	6078      	str	r0, [r7, #4]
 8004068:	687b      	ldr	r3, [r7, #4]
 800406a:	681b      	ldr	r3, [r3, #0]
 800406c:	4618      	mov	r0, r3
 800406e:	f004 fd82 	bl	8008b76 <USB_GetCurrentFrame>
 8004072:	4603      	mov	r3, r0
 8004074:	4618      	mov	r0, r3
 8004076:	3708      	adds	r7, #8
 8004078:	46bd      	mov	sp, r7
 800407a:	bd80      	pop	{r7, pc}

0800407c <HCD_HC_IN_IRQHandler>:
 800407c:	b580      	push	{r7, lr}
 800407e:	b086      	sub	sp, #24
 8004080:	af00      	add	r7, sp, #0
 8004082:	6078      	str	r0, [r7, #4]
 8004084:	460b      	mov	r3, r1
 8004086:	70fb      	strb	r3, [r7, #3]
 8004088:	687b      	ldr	r3, [r7, #4]
 800408a:	681b      	ldr	r3, [r3, #0]
 800408c:	617b      	str	r3, [r7, #20]
 800408e:	697b      	ldr	r3, [r7, #20]
 8004090:	613b      	str	r3, [r7, #16]
 8004092:	78fb      	ldrb	r3, [r7, #3]
 8004094:	60fb      	str	r3, [r7, #12]
 8004096:	68fb      	ldr	r3, [r7, #12]
 8004098:	015a      	lsls	r2, r3, #5
 800409a:	693b      	ldr	r3, [r7, #16]
 800409c:	4413      	add	r3, r2
 800409e:	f503 63a0 	add.w	r3, r3, #1280	; 0x500
 80040a2:	689b      	ldr	r3, [r3, #8]
 80040a4:	f003 0304 	and.w	r3, r3, #4
 80040a8:	2b04      	cmp	r3, #4
 80040aa:	d119      	bne.n	80040e0 <HCD_HC_IN_IRQHandler+0x64>
 80040ac:	68fb      	ldr	r3, [r7, #12]
 80040ae:	015a      	lsls	r2, r3, #5
 80040b0:	693b      	ldr	r3, [r7, #16]
 80040b2:	4413      	add	r3, r2
 80040b4:	f503 63a0 	add.w	r3, r3, #1280	; 0x500
 80040b8:	461a      	mov	r2, r3
 80040ba:	2304      	movs	r3, #4
 80040bc:	6093      	str	r3, [r2, #8]
 80040be:	68fb      	ldr	r3, [r7, #12]
 80040c0:	015a      	lsls	r2, r3, #5
 80040c2:	693b      	ldr	r3, [r7, #16]
 80040c4:	4413      	add	r3, r2
 80040c6:	f503 63a0 	add.w	r3, r3, #1280	; 0x500
 80040ca:	68db      	ldr	r3, [r3, #12]
 80040cc:	68fa      	ldr	r2, [r7, #12]
 80040ce:	0151      	lsls	r1, r2, #5
 80040d0:	693a      	ldr	r2, [r7, #16]
 80040d2:	440a      	add	r2, r1
 80040d4:	f502 62a0 	add.w	r2, r2, #1280	; 0x500
 80040d8:	f043 0302 	orr.w	r3, r3, #2
 80040dc:	60d3      	str	r3, [r2, #12]
 80040de:	e095      	b.n	800420c <HCD_HC_IN_IRQHandler+0x190>
 80040e0:	68fb      	ldr	r3, [r7, #12]
 80040e2:	015a      	lsls	r2, r3, #5
 80040e4:	693b      	ldr	r3, [r7, #16]
 80040e6:	4413      	add	r3, r2
 80040e8:	f503 63a0 	add.w	r3, r3, #1280	; 0x500
 80040ec:	689b      	ldr	r3, [r3, #8]
 80040ee:	f003 0320 	and.w	r3, r3, #32
 80040f2:	2b20      	cmp	r3, #32
 80040f4:	d109      	bne.n	800410a <HCD_HC_IN_IRQHandler+0x8e>
 80040f6:	68fb      	ldr	r3, [r7, #12]
 80040f8:	015a      	lsls	r2, r3, #5
 80040fa:	693b      	ldr	r3, [r7, #16]
 80040fc:	4413      	add	r3, r2
 80040fe:	f503 63a0 	add.w	r3, r3, #1280	; 0x500
 8004102:	461a      	mov	r2, r3
 8004104:	2320      	movs	r3, #32
 8004106:	6093      	str	r3, [r2, #8]
 8004108:	e080      	b.n	800420c <HCD_HC_IN_IRQHandler+0x190>
 800410a:	68fb      	ldr	r3, [r7, #12]
 800410c:	015a      	lsls	r2, r3, #5
 800410e:	693b      	ldr	r3, [r7, #16]
 8004110:	4413      	add	r3, r2
 8004112:	f503 63a0 	add.w	r3, r3, #1280	; 0x500
 8004116:	689b      	ldr	r3, [r3, #8]
 8004118:	f003 0308 	and.w	r3, r3, #8
 800411c:	2b08      	cmp	r3, #8
 800411e:	d134      	bne.n	800418a <HCD_HC_IN_IRQHandler+0x10e>
 8004120:	68fb      	ldr	r3, [r7, #12]
 8004122:	015a      	lsls	r2, r3, #5
 8004124:	693b      	ldr	r3, [r7, #16]
 8004126:	4413      	add	r3, r2
 8004128:	f503 63a0 	add.w	r3, r3, #1280	; 0x500
 800412c:	68db      	ldr	r3, [r3, #12]
 800412e:	68fa      	ldr	r2, [r7, #12]
 8004130:	0151      	lsls	r1, r2, #5
 8004132:	693a      	ldr	r2, [r7, #16]
 8004134:	440a      	add	r2, r1
 8004136:	f502 62a0 	add.w	r2, r2, #1280	; 0x500
 800413a:	f043 0302 	orr.w	r3, r3, #2
 800413e:	60d3      	str	r3, [r2, #12]
 8004140:	6879      	ldr	r1, [r7, #4]
 8004142:	68fa      	ldr	r2, [r7, #12]
 8004144:	4613      	mov	r3, r2
 8004146:	009b      	lsls	r3, r3, #2
 8004148:	4413      	add	r3, r2
 800414a:	00db      	lsls	r3, r3, #3
 800414c:	440b      	add	r3, r1
 800414e:	335d      	adds	r3, #93	; 0x5d
 8004150:	2205      	movs	r2, #5
 8004152:	701a      	strb	r2, [r3, #0]
 8004154:	68fb      	ldr	r3, [r7, #12]
 8004156:	015a      	lsls	r2, r3, #5
 8004158:	693b      	ldr	r3, [r7, #16]
 800415a:	4413      	add	r3, r2
 800415c:	f503 63a0 	add.w	r3, r3, #1280	; 0x500
 8004160:	461a      	mov	r2, r3
 8004162:	2310      	movs	r3, #16
 8004164:	6093      	str	r3, [r2, #8]
 8004166:	68fb      	ldr	r3, [r7, #12]
 8004168:	015a      	lsls	r2, r3, #5
 800416a:	693b      	ldr	r3, [r7, #16]
 800416c:	4413      	add	r3, r2
 800416e:	f503 63a0 	add.w	r3, r3, #1280	; 0x500
 8004172:	461a      	mov	r2, r3
 8004174:	2308      	movs	r3, #8
 8004176:	6093      	str	r3, [r2, #8]
 8004178:	687b      	ldr	r3, [r7, #4]
 800417a:	681b      	ldr	r3, [r3, #0]
 800417c:	68fa      	ldr	r2, [r7, #12]
 800417e:	b2d2      	uxtb	r2, r2
 8004180:	4611      	mov	r1, r2
 8004182:	4618      	mov	r0, r3
 8004184:	f004 ff0b 	bl	8008f9e <USB_HC_Halt>
 8004188:	e040      	b.n	800420c <HCD_HC_IN_IRQHandler+0x190>
 800418a:	68fb      	ldr	r3, [r7, #12]
 800418c:	015a      	lsls	r2, r3, #5
 800418e:	693b      	ldr	r3, [r7, #16]
 8004190:	4413      	add	r3, r2
 8004192:	f503 63a0 	add.w	r3, r3, #1280	; 0x500
 8004196:	689b      	ldr	r3, [r3, #8]
 8004198:	f403 6380 	and.w	r3, r3, #1024	; 0x400
 800419c:	f5b3 6f80 	cmp.w	r3, #1024	; 0x400
 80041a0:	d134      	bne.n	800420c <HCD_HC_IN_IRQHandler+0x190>
 80041a2:	68fb      	ldr	r3, [r7, #12]
 80041a4:	015a      	lsls	r2, r3, #5
 80041a6:	693b      	ldr	r3, [r7, #16]
 80041a8:	4413      	add	r3, r2
 80041aa:	f503 63a0 	add.w	r3, r3, #1280	; 0x500
 80041ae:	68db      	ldr	r3, [r3, #12]
 80041b0:	68fa      	ldr	r2, [r7, #12]
 80041b2:	0151      	lsls	r1, r2, #5
 80041b4:	693a      	ldr	r2, [r7, #16]
 80041b6:	440a      	add	r2, r1
 80041b8:	f502 62a0 	add.w	r2, r2, #1280	; 0x500
 80041bc:	f043 0302 	orr.w	r3, r3, #2
 80041c0:	60d3      	str	r3, [r2, #12]
 80041c2:	687b      	ldr	r3, [r7, #4]
 80041c4:	681b      	ldr	r3, [r3, #0]
 80041c6:	68fa      	ldr	r2, [r7, #12]
 80041c8:	b2d2      	uxtb	r2, r2
 80041ca:	4611      	mov	r1, r2
 80041cc:	4618      	mov	r0, r3
 80041ce:	f004 fee6 	bl	8008f9e <USB_HC_Halt>
 80041d2:	68fb      	ldr	r3, [r7, #12]
 80041d4:	015a      	lsls	r2, r3, #5
 80041d6:	693b      	ldr	r3, [r7, #16]
 80041d8:	4413      	add	r3, r2
 80041da:	f503 63a0 	add.w	r3, r3, #1280	; 0x500
 80041de:	461a      	mov	r2, r3
 80041e0:	2310      	movs	r3, #16
 80041e2:	6093      	str	r3, [r2, #8]
 80041e4:	6879      	ldr	r1, [r7, #4]
 80041e6:	68fa      	ldr	r2, [r7, #12]
 80041e8:	4613      	mov	r3, r2
 80041ea:	009b      	lsls	r3, r3, #2
 80041ec:	4413      	add	r3, r2
 80041ee:	00db      	lsls	r3, r3, #3
 80041f0:	440b      	add	r3, r1
 80041f2:	335d      	adds	r3, #93	; 0x5d
 80041f4:	2208      	movs	r2, #8
 80041f6:	701a      	strb	r2, [r3, #0]
 80041f8:	68fb      	ldr	r3, [r7, #12]
 80041fa:	015a      	lsls	r2, r3, #5
 80041fc:	693b      	ldr	r3, [r7, #16]
 80041fe:	4413      	add	r3, r2
 8004200:	f503 63a0 	add.w	r3, r3, #1280	; 0x500
 8004204:	461a      	mov	r2, r3
 8004206:	f44f 6380 	mov.w	r3, #1024	; 0x400
 800420a:	6093      	str	r3, [r2, #8]
 800420c:	68fb      	ldr	r3, [r7, #12]
 800420e:	015a      	lsls	r2, r3, #5
 8004210:	693b      	ldr	r3, [r7, #16]
 8004212:	4413      	add	r3, r2
 8004214:	f503 63a0 	add.w	r3, r3, #1280	; 0x500
 8004218:	689b      	ldr	r3, [r3, #8]
 800421a:	f403 7300 	and.w	r3, r3, #512	; 0x200
 800421e:	f5b3 7f00 	cmp.w	r3, #512	; 0x200
 8004222:	d122      	bne.n	800426a <HCD_HC_IN_IRQHandler+0x1ee>
 8004224:	68fb      	ldr	r3, [r7, #12]
 8004226:	015a      	lsls	r2, r3, #5
 8004228:	693b      	ldr	r3, [r7, #16]
 800422a:	4413      	add	r3, r2
 800422c:	f503 63a0 	add.w	r3, r3, #1280	; 0x500
 8004230:	68db      	ldr	r3, [r3, #12]
 8004232:	68fa      	ldr	r2, [r7, #12]
 8004234:	0151      	lsls	r1, r2, #5
 8004236:	693a      	ldr	r2, [r7, #16]
 8004238:	440a      	add	r2, r1
 800423a:	f502 62a0 	add.w	r2, r2, #1280	; 0x500
 800423e:	f043 0302 	orr.w	r3, r3, #2
 8004242:	60d3      	str	r3, [r2, #12]
 8004244:	687b      	ldr	r3, [r7, #4]
 8004246:	681b      	ldr	r3, [r3, #0]
 8004248:	68fa      	ldr	r2, [r7, #12]
 800424a:	b2d2      	uxtb	r2, r2
 800424c:	4611      	mov	r1, r2
 800424e:	4618      	mov	r0, r3
 8004250:	f004 fea5 	bl	8008f9e <USB_HC_Halt>
 8004254:	68fb      	ldr	r3, [r7, #12]
 8004256:	015a      	lsls	r2, r3, #5
 8004258:	693b      	ldr	r3, [r7, #16]
 800425a:	4413      	add	r3, r2
 800425c:	f503 63a0 	add.w	r3, r3, #1280	; 0x500
 8004260:	461a      	mov	r2, r3
 8004262:	f44f 7300 	mov.w	r3, #512	; 0x200
 8004266:	6093      	str	r3, [r2, #8]
 8004268:	e277      	b.n	800475a <HCD_HC_IN_IRQHandler+0x6de>
 800426a:	68fb      	ldr	r3, [r7, #12]
 800426c:	015a      	lsls	r2, r3, #5
 800426e:	693b      	ldr	r3, [r7, #16]
 8004270:	4413      	add	r3, r2
 8004272:	f503 63a0 	add.w	r3, r3, #1280	; 0x500
 8004276:	689b      	ldr	r3, [r3, #8]
 8004278:	f003 0301 	and.w	r3, r3, #1
 800427c:	2b01      	cmp	r3, #1
 800427e:	f040 80a1 	bne.w	80043c4 <HCD_HC_IN_IRQHandler+0x348>
 8004282:	6879      	ldr	r1, [r7, #4]
 8004284:	68fa      	ldr	r2, [r7, #12]
 8004286:	4613      	mov	r3, r2
 8004288:	009b      	lsls	r3, r3, #2
 800428a:	4413      	add	r3, r2
 800428c:	00db      	lsls	r3, r3, #3
 800428e:	440b      	add	r3, r1
 8004290:	335d      	adds	r3, #93	; 0x5d
 8004292:	2201      	movs	r2, #1
 8004294:	701a      	strb	r2, [r3, #0]
 8004296:	6879      	ldr	r1, [r7, #4]
 8004298:	68fa      	ldr	r2, [r7, #12]
 800429a:	4613      	mov	r3, r2
 800429c:	009b      	lsls	r3, r3, #2
 800429e:	4413      	add	r3, r2
 80042a0:	00db      	lsls	r3, r3, #3
 80042a2:	440b      	add	r3, r1
 80042a4:	3358      	adds	r3, #88	; 0x58
 80042a6:	2200      	movs	r2, #0
 80042a8:	601a      	str	r2, [r3, #0]
 80042aa:	68fb      	ldr	r3, [r7, #12]
 80042ac:	015a      	lsls	r2, r3, #5
 80042ae:	693b      	ldr	r3, [r7, #16]
 80042b0:	4413      	add	r3, r2
 80042b2:	f503 63a0 	add.w	r3, r3, #1280	; 0x500
 80042b6:	461a      	mov	r2, r3
 80042b8:	2301      	movs	r3, #1
 80042ba:	6093      	str	r3, [r2, #8]
 80042bc:	6879      	ldr	r1, [r7, #4]
 80042be:	68fa      	ldr	r2, [r7, #12]
 80042c0:	4613      	mov	r3, r2
 80042c2:	009b      	lsls	r3, r3, #2
 80042c4:	4413      	add	r3, r2
 80042c6:	00db      	lsls	r3, r3, #3
 80042c8:	440b      	add	r3, r1
 80042ca:	333f      	adds	r3, #63	; 0x3f
 80042cc:	781b      	ldrb	r3, [r3, #0]
 80042ce:	2b00      	cmp	r3, #0
 80042d0:	d00a      	beq.n	80042e8 <HCD_HC_IN_IRQHandler+0x26c>
 80042d2:	6879      	ldr	r1, [r7, #4]
 80042d4:	68fa      	ldr	r2, [r7, #12]
 80042d6:	4613      	mov	r3, r2
 80042d8:	009b      	lsls	r3, r3, #2
 80042da:	4413      	add	r3, r2
 80042dc:	00db      	lsls	r3, r3, #3
 80042de:	440b      	add	r3, r1
 80042e0:	333f      	adds	r3, #63	; 0x3f
 80042e2:	781b      	ldrb	r3, [r3, #0]
 80042e4:	2b02      	cmp	r3, #2
 80042e6:	d121      	bne.n	800432c <HCD_HC_IN_IRQHandler+0x2b0>
 80042e8:	68fb      	ldr	r3, [r7, #12]
 80042ea:	015a      	lsls	r2, r3, #5
 80042ec:	693b      	ldr	r3, [r7, #16]
 80042ee:	4413      	add	r3, r2
 80042f0:	f503 63a0 	add.w	r3, r3, #1280	; 0x500
 80042f4:	68db      	ldr	r3, [r3, #12]
 80042f6:	68fa      	ldr	r2, [r7, #12]
 80042f8:	0151      	lsls	r1, r2, #5
 80042fa:	693a      	ldr	r2, [r7, #16]
 80042fc:	440a      	add	r2, r1
 80042fe:	f502 62a0 	add.w	r2, r2, #1280	; 0x500
 8004302:	f043 0302 	orr.w	r3, r3, #2
 8004306:	60d3      	str	r3, [r2, #12]
 8004308:	687b      	ldr	r3, [r7, #4]
 800430a:	681b      	ldr	r3, [r3, #0]
 800430c:	68fa      	ldr	r2, [r7, #12]
 800430e:	b2d2      	uxtb	r2, r2
 8004310:	4611      	mov	r1, r2
 8004312:	4618      	mov	r0, r3
 8004314:	f004 fe43 	bl	8008f9e <USB_HC_Halt>
 8004318:	68fb      	ldr	r3, [r7, #12]
 800431a:	015a      	lsls	r2, r3, #5
 800431c:	693b      	ldr	r3, [r7, #16]
 800431e:	4413      	add	r3, r2
 8004320:	f503 63a0 	add.w	r3, r3, #1280	; 0x500
 8004324:	461a      	mov	r2, r3
 8004326:	2310      	movs	r3, #16
 8004328:	6093      	str	r3, [r2, #8]
 800432a:	e034      	b.n	8004396 <HCD_HC_IN_IRQHandler+0x31a>
 800432c:	6879      	ldr	r1, [r7, #4]
 800432e:	68fa      	ldr	r2, [r7, #12]
 8004330:	4613      	mov	r3, r2
 8004332:	009b      	lsls	r3, r3, #2
 8004334:	4413      	add	r3, r2
 8004336:	00db      	lsls	r3, r3, #3
 8004338:	440b      	add	r3, r1
 800433a:	333f      	adds	r3, #63	; 0x3f
 800433c:	781b      	ldrb	r3, [r3, #0]
 800433e:	2b03      	cmp	r3, #3
 8004340:	d129      	bne.n	8004396 <HCD_HC_IN_IRQHandler+0x31a>
 8004342:	68fb      	ldr	r3, [r7, #12]
 8004344:	015a      	lsls	r2, r3, #5
 8004346:	693b      	ldr	r3, [r7, #16]
 8004348:	4413      	add	r3, r2
 800434a:	f503 63a0 	add.w	r3, r3, #1280	; 0x500
 800434e:	681b      	ldr	r3, [r3, #0]
 8004350:	68fa      	ldr	r2, [r7, #12]
 8004352:	0151      	lsls	r1, r2, #5
 8004354:	693a      	ldr	r2, [r7, #16]
 8004356:	440a      	add	r2, r1
 8004358:	f502 62a0 	add.w	r2, r2, #1280	; 0x500
 800435c:	f043 5300 	orr.w	r3, r3, #536870912	; 0x20000000
 8004360:	6013      	str	r3, [r2, #0]
 8004362:	6879      	ldr	r1, [r7, #4]
 8004364:	68fa      	ldr	r2, [r7, #12]
 8004366:	4613      	mov	r3, r2
 8004368:	009b      	lsls	r3, r3, #2
 800436a:	4413      	add	r3, r2
 800436c:	00db      	lsls	r3, r3, #3
 800436e:	440b      	add	r3, r1
 8004370:	335c      	adds	r3, #92	; 0x5c
 8004372:	2201      	movs	r2, #1
 8004374:	701a      	strb	r2, [r3, #0]
 8004376:	68fb      	ldr	r3, [r7, #12]
 8004378:	b2d8      	uxtb	r0, r3
 800437a:	6879      	ldr	r1, [r7, #4]
 800437c:	68fa      	ldr	r2, [r7, #12]
 800437e:	4613      	mov	r3, r2
 8004380:	009b      	lsls	r3, r3, #2
 8004382:	4413      	add	r3, r2
 8004384:	00db      	lsls	r3, r3, #3
 8004386:	440b      	add	r3, r1
 8004388:	335c      	adds	r3, #92	; 0x5c
 800438a:	781b      	ldrb	r3, [r3, #0]
 800438c:	461a      	mov	r2, r3
 800438e:	4601      	mov	r1, r0
 8004390:	6878      	ldr	r0, [r7, #4]
 8004392:	f006 f8b5 	bl	800a500 <HAL_HCD_HC_NotifyURBChange_Callback>
 8004396:	6879      	ldr	r1, [r7, #4]
 8004398:	68fa      	ldr	r2, [r7, #12]
 800439a:	4613      	mov	r3, r2
 800439c:	009b      	lsls	r3, r3, #2
 800439e:	4413      	add	r3, r2
 80043a0:	00db      	lsls	r3, r3, #3
 80043a2:	440b      	add	r3, r1
 80043a4:	3350      	adds	r3, #80	; 0x50
 80043a6:	781b      	ldrb	r3, [r3, #0]
 80043a8:	f083 0301 	eor.w	r3, r3, #1
 80043ac:	b2d8      	uxtb	r0, r3
 80043ae:	6879      	ldr	r1, [r7, #4]
 80043b0:	68fa      	ldr	r2, [r7, #12]
 80043b2:	4613      	mov	r3, r2
 80043b4:	009b      	lsls	r3, r3, #2
 80043b6:	4413      	add	r3, r2
 80043b8:	00db      	lsls	r3, r3, #3
 80043ba:	440b      	add	r3, r1
 80043bc:	3350      	adds	r3, #80	; 0x50
 80043be:	4602      	mov	r2, r0
 80043c0:	701a      	strb	r2, [r3, #0]
 80043c2:	e1ca      	b.n	800475a <HCD_HC_IN_IRQHandler+0x6de>
 80043c4:	68fb      	ldr	r3, [r7, #12]
 80043c6:	015a      	lsls	r2, r3, #5
 80043c8:	693b      	ldr	r3, [r7, #16]
 80043ca:	4413      	add	r3, r2
 80043cc:	f503 63a0 	add.w	r3, r3, #1280	; 0x500
 80043d0:	689b      	ldr	r3, [r3, #8]
 80043d2:	f003 0302 	and.w	r3, r3, #2
 80043d6:	2b02      	cmp	r3, #2
 80043d8:	f040 80f1 	bne.w	80045be <HCD_HC_IN_IRQHandler+0x542>
 80043dc:	68fb      	ldr	r3, [r7, #12]
 80043de:	015a      	lsls	r2, r3, #5
 80043e0:	693b      	ldr	r3, [r7, #16]
 80043e2:	4413      	add	r3, r2
 80043e4:	f503 63a0 	add.w	r3, r3, #1280	; 0x500
 80043e8:	68db      	ldr	r3, [r3, #12]
 80043ea:	68fa      	ldr	r2, [r7, #12]
 80043ec:	0151      	lsls	r1, r2, #5
 80043ee:	693a      	ldr	r2, [r7, #16]
 80043f0:	440a      	add	r2, r1
 80043f2:	f502 62a0 	add.w	r2, r2, #1280	; 0x500
 80043f6:	f023 0302 	bic.w	r3, r3, #2
 80043fa:	60d3      	str	r3, [r2, #12]
 80043fc:	6879      	ldr	r1, [r7, #4]
 80043fe:	68fa      	ldr	r2, [r7, #12]
 8004400:	4613      	mov	r3, r2
 8004402:	009b      	lsls	r3, r3, #2
 8004404:	4413      	add	r3, r2
 8004406:	00db      	lsls	r3, r3, #3
 8004408:	440b      	add	r3, r1
 800440a:	335d      	adds	r3, #93	; 0x5d
 800440c:	781b      	ldrb	r3, [r3, #0]
 800440e:	2b01      	cmp	r3, #1
 8004410:	d10a      	bne.n	8004428 <HCD_HC_IN_IRQHandler+0x3ac>
 8004412:	6879      	ldr	r1, [r7, #4]
 8004414:	68fa      	ldr	r2, [r7, #12]
 8004416:	4613      	mov	r3, r2
 8004418:	009b      	lsls	r3, r3, #2
 800441a:	4413      	add	r3, r2
 800441c:	00db      	lsls	r3, r3, #3
 800441e:	440b      	add	r3, r1
 8004420:	335c      	adds	r3, #92	; 0x5c
 8004422:	2201      	movs	r2, #1
 8004424:	701a      	strb	r2, [r3, #0]
 8004426:	e0b0      	b.n	800458a <HCD_HC_IN_IRQHandler+0x50e>
 8004428:	6879      	ldr	r1, [r7, #4]
 800442a:	68fa      	ldr	r2, [r7, #12]
 800442c:	4613      	mov	r3, r2
 800442e:	009b      	lsls	r3, r3, #2
 8004430:	4413      	add	r3, r2
 8004432:	00db      	lsls	r3, r3, #3
 8004434:	440b      	add	r3, r1
 8004436:	335d      	adds	r3, #93	; 0x5d
 8004438:	781b      	ldrb	r3, [r3, #0]
 800443a:	2b05      	cmp	r3, #5
 800443c:	d10a      	bne.n	8004454 <HCD_HC_IN_IRQHandler+0x3d8>
 800443e:	6879      	ldr	r1, [r7, #4]
 8004440:	68fa      	ldr	r2, [r7, #12]
 8004442:	4613      	mov	r3, r2
 8004444:	009b      	lsls	r3, r3, #2
 8004446:	4413      	add	r3, r2
 8004448:	00db      	lsls	r3, r3, #3
 800444a:	440b      	add	r3, r1
 800444c:	335c      	adds	r3, #92	; 0x5c
 800444e:	2205      	movs	r2, #5
 8004450:	701a      	strb	r2, [r3, #0]
 8004452:	e09a      	b.n	800458a <HCD_HC_IN_IRQHandler+0x50e>
 8004454:	6879      	ldr	r1, [r7, #4]
 8004456:	68fa      	ldr	r2, [r7, #12]
 8004458:	4613      	mov	r3, r2
 800445a:	009b      	lsls	r3, r3, #2
 800445c:	4413      	add	r3, r2
 800445e:	00db      	lsls	r3, r3, #3
 8004460:	440b      	add	r3, r1
 8004462:	335d      	adds	r3, #93	; 0x5d
 8004464:	781b      	ldrb	r3, [r3, #0]
 8004466:	2b06      	cmp	r3, #6
 8004468:	d00a      	beq.n	8004480 <HCD_HC_IN_IRQHandler+0x404>
 800446a:	6879      	ldr	r1, [r7, #4]
 800446c:	68fa      	ldr	r2, [r7, #12]
 800446e:	4613      	mov	r3, r2
 8004470:	009b      	lsls	r3, r3, #2
 8004472:	4413      	add	r3, r2
 8004474:	00db      	lsls	r3, r3, #3
 8004476:	440b      	add	r3, r1
 8004478:	335d      	adds	r3, #93	; 0x5d
 800447a:	781b      	ldrb	r3, [r3, #0]
 800447c:	2b08      	cmp	r3, #8
 800447e:	d156      	bne.n	800452e <HCD_HC_IN_IRQHandler+0x4b2>
 8004480:	6879      	ldr	r1, [r7, #4]
 8004482:	68fa      	ldr	r2, [r7, #12]
 8004484:	4613      	mov	r3, r2
 8004486:	009b      	lsls	r3, r3, #2
 8004488:	4413      	add	r3, r2
 800448a:	00db      	lsls	r3, r3, #3
 800448c:	440b      	add	r3, r1
 800448e:	3358      	adds	r3, #88	; 0x58
 8004490:	681b      	ldr	r3, [r3, #0]
 8004492:	1c59      	adds	r1, r3, #1
 8004494:	6878      	ldr	r0, [r7, #4]
 8004496:	68fa      	ldr	r2, [r7, #12]
 8004498:	4613      	mov	r3, r2
 800449a:	009b      	lsls	r3, r3, #2
 800449c:	4413      	add	r3, r2
 800449e:	00db      	lsls	r3, r3, #3
 80044a0:	4403      	add	r3, r0
 80044a2:	3358      	adds	r3, #88	; 0x58
 80044a4:	6019      	str	r1, [r3, #0]
 80044a6:	6879      	ldr	r1, [r7, #4]
 80044a8:	68fa      	ldr	r2, [r7, #12]
 80044aa:	4613      	mov	r3, r2
 80044ac:	009b      	lsls	r3, r3, #2
 80044ae:	4413      	add	r3, r2
 80044b0:	00db      	lsls	r3, r3, #3
 80044b2:	440b      	add	r3, r1
 80044b4:	3358      	adds	r3, #88	; 0x58
 80044b6:	681b      	ldr	r3, [r3, #0]
 80044b8:	2b03      	cmp	r3, #3
 80044ba:	d914      	bls.n	80044e6 <HCD_HC_IN_IRQHandler+0x46a>
 80044bc:	6879      	ldr	r1, [r7, #4]
 80044be:	68fa      	ldr	r2, [r7, #12]
 80044c0:	4613      	mov	r3, r2
 80044c2:	009b      	lsls	r3, r3, #2
 80044c4:	4413      	add	r3, r2
 80044c6:	00db      	lsls	r3, r3, #3
 80044c8:	440b      	add	r3, r1
 80044ca:	3358      	adds	r3, #88	; 0x58
 80044cc:	2200      	movs	r2, #0
 80044ce:	601a      	str	r2, [r3, #0]
 80044d0:	6879      	ldr	r1, [r7, #4]
 80044d2:	68fa      	ldr	r2, [r7, #12]
 80044d4:	4613      	mov	r3, r2
 80044d6:	009b      	lsls	r3, r3, #2
 80044d8:	4413      	add	r3, r2
 80044da:	00db      	lsls	r3, r3, #3
 80044dc:	440b      	add	r3, r1
 80044de:	335c      	adds	r3, #92	; 0x5c
 80044e0:	2204      	movs	r2, #4
 80044e2:	701a      	strb	r2, [r3, #0]
 80044e4:	e009      	b.n	80044fa <HCD_HC_IN_IRQHandler+0x47e>
 80044e6:	6879      	ldr	r1, [r7, #4]
 80044e8:	68fa      	ldr	r2, [r7, #12]
 80044ea:	4613      	mov	r3, r2
 80044ec:	009b      	lsls	r3, r3, #2
 80044ee:	4413      	add	r3, r2
 80044f0:	00db      	lsls	r3, r3, #3
 80044f2:	440b      	add	r3, r1
 80044f4:	335c      	adds	r3, #92	; 0x5c
 80044f6:	2202      	movs	r2, #2
 80044f8:	701a      	strb	r2, [r3, #0]
 80044fa:	68fb      	ldr	r3, [r7, #12]
 80044fc:	015a      	lsls	r2, r3, #5
 80044fe:	693b      	ldr	r3, [r7, #16]
 8004500:	4413      	add	r3, r2
 8004502:	f503 63a0 	add.w	r3, r3, #1280	; 0x500
 8004506:	681b      	ldr	r3, [r3, #0]
 8004508:	60bb      	str	r3, [r7, #8]
 800450a:	68bb      	ldr	r3, [r7, #8]
 800450c:	f023 4380 	bic.w	r3, r3, #1073741824	; 0x40000000
 8004510:	60bb      	str	r3, [r7, #8]
 8004512:	68bb      	ldr	r3, [r7, #8]
 8004514:	f043 4300 	orr.w	r3, r3, #2147483648	; 0x80000000
 8004518:	60bb      	str	r3, [r7, #8]
 800451a:	68fb      	ldr	r3, [r7, #12]
 800451c:	015a      	lsls	r2, r3, #5
 800451e:	693b      	ldr	r3, [r7, #16]
 8004520:	4413      	add	r3, r2
 8004522:	f503 63a0 	add.w	r3, r3, #1280	; 0x500
 8004526:	461a      	mov	r2, r3
 8004528:	68bb      	ldr	r3, [r7, #8]
 800452a:	6013      	str	r3, [r2, #0]
 800452c:	e02d      	b.n	800458a <HCD_HC_IN_IRQHandler+0x50e>
 800452e:	6879      	ldr	r1, [r7, #4]
 8004530:	68fa      	ldr	r2, [r7, #12]
 8004532:	4613      	mov	r3, r2
 8004534:	009b      	lsls	r3, r3, #2
 8004536:	4413      	add	r3, r2
 8004538:	00db      	lsls	r3, r3, #3
 800453a:	440b      	add	r3, r1
 800453c:	335d      	adds	r3, #93	; 0x5d
 800453e:	781b      	ldrb	r3, [r3, #0]
 8004540:	2b03      	cmp	r3, #3
 8004542:	d122      	bne.n	800458a <HCD_HC_IN_IRQHandler+0x50e>
 8004544:	6879      	ldr	r1, [r7, #4]
 8004546:	68fa      	ldr	r2, [r7, #12]
 8004548:	4613      	mov	r3, r2
 800454a:	009b      	lsls	r3, r3, #2
 800454c:	4413      	add	r3, r2
 800454e:	00db      	lsls	r3, r3, #3
 8004550:	440b      	add	r3, r1
 8004552:	335c      	adds	r3, #92	; 0x5c
 8004554:	2202      	movs	r2, #2
 8004556:	701a      	strb	r2, [r3, #0]
 8004558:	68fb      	ldr	r3, [r7, #12]
 800455a:	015a      	lsls	r2, r3, #5
 800455c:	693b      	ldr	r3, [r7, #16]
 800455e:	4413      	add	r3, r2
 8004560:	f503 63a0 	add.w	r3, r3, #1280	; 0x500
 8004564:	681b      	ldr	r3, [r3, #0]
 8004566:	60bb      	str	r3, [r7, #8]
 8004568:	68bb      	ldr	r3, [r7, #8]
 800456a:	f023 4380 	bic.w	r3, r3, #1073741824	; 0x40000000
 800456e:	60bb      	str	r3, [r7, #8]
 8004570:	68bb      	ldr	r3, [r7, #8]
 8004572:	f043 4300 	orr.w	r3, r3, #2147483648	; 0x80000000
 8004576:	60bb      	str	r3, [r7, #8]
 8004578:	68fb      	ldr	r3, [r7, #12]
 800457a:	015a      	lsls	r2, r3, #5
 800457c:	693b      	ldr	r3, [r7, #16]
 800457e:	4413      	add	r3, r2
 8004580:	f503 63a0 	add.w	r3, r3, #1280	; 0x500
 8004584:	461a      	mov	r2, r3
 8004586:	68bb      	ldr	r3, [r7, #8]
 8004588:	6013      	str	r3, [r2, #0]
 800458a:	68fb      	ldr	r3, [r7, #12]
 800458c:	015a      	lsls	r2, r3, #5
 800458e:	693b      	ldr	r3, [r7, #16]
 8004590:	4413      	add	r3, r2
 8004592:	f503 63a0 	add.w	r3, r3, #1280	; 0x500
 8004596:	461a      	mov	r2, r3
 8004598:	2302      	movs	r3, #2
 800459a:	6093      	str	r3, [r2, #8]
 800459c:	68fb      	ldr	r3, [r7, #12]
 800459e:	b2d8      	uxtb	r0, r3
 80045a0:	6879      	ldr	r1, [r7, #4]
 80045a2:	68fa      	ldr	r2, [r7, #12]
 80045a4:	4613      	mov	r3, r2
 80045a6:	009b      	lsls	r3, r3, #2
 80045a8:	4413      	add	r3, r2
 80045aa:	00db      	lsls	r3, r3, #3
 80045ac:	440b      	add	r3, r1
 80045ae:	335c      	adds	r3, #92	; 0x5c
 80045b0:	781b      	ldrb	r3, [r3, #0]
 80045b2:	461a      	mov	r2, r3
 80045b4:	4601      	mov	r1, r0
 80045b6:	6878      	ldr	r0, [r7, #4]
 80045b8:	f005 ffa2 	bl	800a500 <HAL_HCD_HC_NotifyURBChange_Callback>
 80045bc:	e0cd      	b.n	800475a <HCD_HC_IN_IRQHandler+0x6de>
 80045be:	68fb      	ldr	r3, [r7, #12]
 80045c0:	015a      	lsls	r2, r3, #5
 80045c2:	693b      	ldr	r3, [r7, #16]
 80045c4:	4413      	add	r3, r2
 80045c6:	f503 63a0 	add.w	r3, r3, #1280	; 0x500
 80045ca:	689b      	ldr	r3, [r3, #8]
 80045cc:	f003 0380 	and.w	r3, r3, #128	; 0x80
 80045d0:	2b80      	cmp	r3, #128	; 0x80
 80045d2:	d13e      	bne.n	8004652 <HCD_HC_IN_IRQHandler+0x5d6>
 80045d4:	68fb      	ldr	r3, [r7, #12]
 80045d6:	015a      	lsls	r2, r3, #5
 80045d8:	693b      	ldr	r3, [r7, #16]
 80045da:	4413      	add	r3, r2
 80045dc:	f503 63a0 	add.w	r3, r3, #1280	; 0x500
 80045e0:	68db      	ldr	r3, [r3, #12]
 80045e2:	68fa      	ldr	r2, [r7, #12]
 80045e4:	0151      	lsls	r1, r2, #5
 80045e6:	693a      	ldr	r2, [r7, #16]
 80045e8:	440a      	add	r2, r1
 80045ea:	f502 62a0 	add.w	r2, r2, #1280	; 0x500
 80045ee:	f043 0302 	orr.w	r3, r3, #2
 80045f2:	60d3      	str	r3, [r2, #12]
 80045f4:	6879      	ldr	r1, [r7, #4]
 80045f6:	68fa      	ldr	r2, [r7, #12]
 80045f8:	4613      	mov	r3, r2
 80045fa:	009b      	lsls	r3, r3, #2
 80045fc:	4413      	add	r3, r2
 80045fe:	00db      	lsls	r3, r3, #3
 8004600:	440b      	add	r3, r1
 8004602:	3358      	adds	r3, #88	; 0x58
 8004604:	681b      	ldr	r3, [r3, #0]
 8004606:	1c59      	adds	r1, r3, #1
 8004608:	6878      	ldr	r0, [r7, #4]
 800460a:	68fa      	ldr	r2, [r7, #12]
 800460c:	4613      	mov	r3, r2
 800460e:	009b      	lsls	r3, r3, #2
 8004610:	4413      	add	r3, r2
 8004612:	00db      	lsls	r3, r3, #3
 8004614:	4403      	add	r3, r0
 8004616:	3358      	adds	r3, #88	; 0x58
 8004618:	6019      	str	r1, [r3, #0]
 800461a:	6879      	ldr	r1, [r7, #4]
 800461c:	68fa      	ldr	r2, [r7, #12]
 800461e:	4613      	mov	r3, r2
 8004620:	009b      	lsls	r3, r3, #2
 8004622:	4413      	add	r3, r2
 8004624:	00db      	lsls	r3, r3, #3
 8004626:	440b      	add	r3, r1
 8004628:	335d      	adds	r3, #93	; 0x5d
 800462a:	2206      	movs	r2, #6
 800462c:	701a      	strb	r2, [r3, #0]
 800462e:	687b      	ldr	r3, [r7, #4]
 8004630:	681b      	ldr	r3, [r3, #0]
 8004632:	68fa      	ldr	r2, [r7, #12]
 8004634:	b2d2      	uxtb	r2, r2
 8004636:	4611      	mov	r1, r2
 8004638:	4618      	mov	r0, r3
 800463a:	f004 fcb0 	bl	8008f9e <USB_HC_Halt>
 800463e:	68fb      	ldr	r3, [r7, #12]
 8004640:	015a      	lsls	r2, r3, #5
 8004642:	693b      	ldr	r3, [r7, #16]
 8004644:	4413      	add	r3, r2
 8004646:	f503 63a0 	add.w	r3, r3, #1280	; 0x500
 800464a:	461a      	mov	r2, r3
 800464c:	2380      	movs	r3, #128	; 0x80
 800464e:	6093      	str	r3, [r2, #8]
 8004650:	e083      	b.n	800475a <HCD_HC_IN_IRQHandler+0x6de>
 8004652:	68fb      	ldr	r3, [r7, #12]
 8004654:	015a      	lsls	r2, r3, #5
 8004656:	693b      	ldr	r3, [r7, #16]
 8004658:	4413      	add	r3, r2
 800465a:	f503 63a0 	add.w	r3, r3, #1280	; 0x500
 800465e:	689b      	ldr	r3, [r3, #8]
 8004660:	f003 0310 	and.w	r3, r3, #16
 8004664:	2b10      	cmp	r3, #16
 8004666:	d178      	bne.n	800475a <HCD_HC_IN_IRQHandler+0x6de>
 8004668:	6879      	ldr	r1, [r7, #4]
 800466a:	68fa      	ldr	r2, [r7, #12]
 800466c:	4613      	mov	r3, r2
 800466e:	009b      	lsls	r3, r3, #2
 8004670:	4413      	add	r3, r2
 8004672:	00db      	lsls	r3, r3, #3
 8004674:	440b      	add	r3, r1
 8004676:	333f      	adds	r3, #63	; 0x3f
 8004678:	781b      	ldrb	r3, [r3, #0]
 800467a:	2b03      	cmp	r3, #3
 800467c:	d122      	bne.n	80046c4 <HCD_HC_IN_IRQHandler+0x648>
 800467e:	6879      	ldr	r1, [r7, #4]
 8004680:	68fa      	ldr	r2, [r7, #12]
 8004682:	4613      	mov	r3, r2
 8004684:	009b      	lsls	r3, r3, #2
 8004686:	4413      	add	r3, r2
 8004688:	00db      	lsls	r3, r3, #3
 800468a:	440b      	add	r3, r1
 800468c:	3358      	adds	r3, #88	; 0x58
 800468e:	2200      	movs	r2, #0
 8004690:	601a      	str	r2, [r3, #0]
 8004692:	68fb      	ldr	r3, [r7, #12]
 8004694:	015a      	lsls	r2, r3, #5
 8004696:	693b      	ldr	r3, [r7, #16]
 8004698:	4413      	add	r3, r2
 800469a:	f503 63a0 	add.w	r3, r3, #1280	; 0x500
 800469e:	68db      	ldr	r3, [r3, #12]
 80046a0:	68fa      	ldr	r2, [r7, #12]
 80046a2:	0151      	lsls	r1, r2, #5
 80046a4:	693a      	ldr	r2, [r7, #16]
 80046a6:	440a      	add	r2, r1
 80046a8:	f502 62a0 	add.w	r2, r2, #1280	; 0x500
 80046ac:	f043 0302 	orr.w	r3, r3, #2
 80046b0:	60d3      	str	r3, [r2, #12]
 80046b2:	687b      	ldr	r3, [r7, #4]
 80046b4:	681b      	ldr	r3, [r3, #0]
 80046b6:	68fa      	ldr	r2, [r7, #12]
 80046b8:	b2d2      	uxtb	r2, r2
 80046ba:	4611      	mov	r1, r2
 80046bc:	4618      	mov	r0, r3
 80046be:	f004 fc6e 	bl	8008f9e <USB_HC_Halt>
 80046c2:	e041      	b.n	8004748 <HCD_HC_IN_IRQHandler+0x6cc>
 80046c4:	6879      	ldr	r1, [r7, #4]
 80046c6:	68fa      	ldr	r2, [r7, #12]
 80046c8:	4613      	mov	r3, r2
 80046ca:	009b      	lsls	r3, r3, #2
 80046cc:	4413      	add	r3, r2
 80046ce:	00db      	lsls	r3, r3, #3
 80046d0:	440b      	add	r3, r1
 80046d2:	333f      	adds	r3, #63	; 0x3f
 80046d4:	781b      	ldrb	r3, [r3, #0]
 80046d6:	2b00      	cmp	r3, #0
 80046d8:	d00a      	beq.n	80046f0 <HCD_HC_IN_IRQHandler+0x674>
 80046da:	6879      	ldr	r1, [r7, #4]
 80046dc:	68fa      	ldr	r2, [r7, #12]
 80046de:	4613      	mov	r3, r2
 80046e0:	009b      	lsls	r3, r3, #2
 80046e2:	4413      	add	r3, r2
 80046e4:	00db      	lsls	r3, r3, #3
 80046e6:	440b      	add	r3, r1
 80046e8:	333f      	adds	r3, #63	; 0x3f
 80046ea:	781b      	ldrb	r3, [r3, #0]
 80046ec:	2b02      	cmp	r3, #2
 80046ee:	d12b      	bne.n	8004748 <HCD_HC_IN_IRQHandler+0x6cc>
 80046f0:	6879      	ldr	r1, [r7, #4]
 80046f2:	68fa      	ldr	r2, [r7, #12]
 80046f4:	4613      	mov	r3, r2
 80046f6:	009b      	lsls	r3, r3, #2
 80046f8:	4413      	add	r3, r2
 80046fa:	00db      	lsls	r3, r3, #3
 80046fc:	440b      	add	r3, r1
 80046fe:	3358      	adds	r3, #88	; 0x58
 8004700:	2200      	movs	r2, #0
 8004702:	601a      	str	r2, [r3, #0]
 8004704:	6879      	ldr	r1, [r7, #4]
 8004706:	68fa      	ldr	r2, [r7, #12]
 8004708:	4613      	mov	r3, r2
 800470a:	009b      	lsls	r3, r3, #2
 800470c:	4413      	add	r3, r2
 800470e:	00db      	lsls	r3, r3, #3
 8004710:	440b      	add	r3, r1
 8004712:	335d      	adds	r3, #93	; 0x5d
 8004714:	2203      	movs	r2, #3
 8004716:	701a      	strb	r2, [r3, #0]
 8004718:	68fb      	ldr	r3, [r7, #12]
 800471a:	015a      	lsls	r2, r3, #5
 800471c:	693b      	ldr	r3, [r7, #16]
 800471e:	4413      	add	r3, r2
 8004720:	f503 63a0 	add.w	r3, r3, #1280	; 0x500
 8004724:	68db      	ldr	r3, [r3, #12]
 8004726:	68fa      	ldr	r2, [r7, #12]
 8004728:	0151      	lsls	r1, r2, #5
 800472a:	693a      	ldr	r2, [r7, #16]
 800472c:	440a      	add	r2, r1
 800472e:	f502 62a0 	add.w	r2, r2, #1280	; 0x500
 8004732:	f043 0302 	orr.w	r3, r3, #2
 8004736:	60d3      	str	r3, [r2, #12]
 8004738:	687b      	ldr	r3, [r7, #4]
 800473a:	681b      	ldr	r3, [r3, #0]
 800473c:	68fa      	ldr	r2, [r7, #12]
 800473e:	b2d2      	uxtb	r2, r2
 8004740:	4611      	mov	r1, r2
 8004742:	4618      	mov	r0, r3
 8004744:	f004 fc2b 	bl	8008f9e <USB_HC_Halt>
 8004748:	68fb      	ldr	r3, [r7, #12]
 800474a:	015a      	lsls	r2, r3, #5
 800474c:	693b      	ldr	r3, [r7, #16]
 800474e:	4413      	add	r3, r2
 8004750:	f503 63a0 	add.w	r3, r3, #1280	; 0x500
 8004754:	461a      	mov	r2, r3
 8004756:	2310      	movs	r3, #16
 8004758:	6093      	str	r3, [r2, #8]
 800475a:	bf00      	nop
 800475c:	3718      	adds	r7, #24
 800475e:	46bd      	mov	sp, r7
 8004760:	bd80      	pop	{r7, pc}

08004762 <HCD_HC_OUT_IRQHandler>:
 8004762:	b580      	push	{r7, lr}
 8004764:	b086      	sub	sp, #24
 8004766:	af00      	add	r7, sp, #0
 8004768:	6078      	str	r0, [r7, #4]
 800476a:	460b      	mov	r3, r1
 800476c:	70fb      	strb	r3, [r7, #3]
 800476e:	687b      	ldr	r3, [r7, #4]
 8004770:	681b      	ldr	r3, [r3, #0]
 8004772:	617b      	str	r3, [r7, #20]
 8004774:	697b      	ldr	r3, [r7, #20]
 8004776:	613b      	str	r3, [r7, #16]
 8004778:	78fb      	ldrb	r3, [r7, #3]
 800477a:	60fb      	str	r3, [r7, #12]
 800477c:	68fb      	ldr	r3, [r7, #12]
 800477e:	015a      	lsls	r2, r3, #5
 8004780:	693b      	ldr	r3, [r7, #16]
 8004782:	4413      	add	r3, r2
 8004784:	f503 63a0 	add.w	r3, r3, #1280	; 0x500
 8004788:	689b      	ldr	r3, [r3, #8]
 800478a:	f003 0304 	and.w	r3, r3, #4
 800478e:	2b04      	cmp	r3, #4
 8004790:	d119      	bne.n	80047c6 <HCD_HC_OUT_IRQHandler+0x64>
 8004792:	68fb      	ldr	r3, [r7, #12]
 8004794:	015a      	lsls	r2, r3, #5
 8004796:	693b      	ldr	r3, [r7, #16]
 8004798:	4413      	add	r3, r2
 800479a:	f503 63a0 	add.w	r3, r3, #1280	; 0x500
 800479e:	461a      	mov	r2, r3
 80047a0:	2304      	movs	r3, #4
 80047a2:	6093      	str	r3, [r2, #8]
 80047a4:	68fb      	ldr	r3, [r7, #12]
 80047a6:	015a      	lsls	r2, r3, #5
 80047a8:	693b      	ldr	r3, [r7, #16]
 80047aa:	4413      	add	r3, r2
 80047ac:	f503 63a0 	add.w	r3, r3, #1280	; 0x500
 80047b0:	68db      	ldr	r3, [r3, #12]
 80047b2:	68fa      	ldr	r2, [r7, #12]
 80047b4:	0151      	lsls	r1, r2, #5
 80047b6:	693a      	ldr	r2, [r7, #16]
 80047b8:	440a      	add	r2, r1
 80047ba:	f502 62a0 	add.w	r2, r2, #1280	; 0x500
 80047be:	f043 0302 	orr.w	r3, r3, #2
 80047c2:	60d3      	str	r3, [r2, #12]
 80047c4:	e31e      	b.n	8004e04 <HCD_HC_OUT_IRQHandler+0x6a2>
 80047c6:	68fb      	ldr	r3, [r7, #12]
 80047c8:	015a      	lsls	r2, r3, #5
 80047ca:	693b      	ldr	r3, [r7, #16]
 80047cc:	4413      	add	r3, r2
 80047ce:	f503 63a0 	add.w	r3, r3, #1280	; 0x500
 80047d2:	689b      	ldr	r3, [r3, #8]
 80047d4:	f003 0320 	and.w	r3, r3, #32
 80047d8:	2b20      	cmp	r3, #32
 80047da:	d141      	bne.n	8004860 <HCD_HC_OUT_IRQHandler+0xfe>
 80047dc:	68fb      	ldr	r3, [r7, #12]
 80047de:	015a      	lsls	r2, r3, #5
 80047e0:	693b      	ldr	r3, [r7, #16]
 80047e2:	4413      	add	r3, r2
 80047e4:	f503 63a0 	add.w	r3, r3, #1280	; 0x500
 80047e8:	461a      	mov	r2, r3
 80047ea:	2320      	movs	r3, #32
 80047ec:	6093      	str	r3, [r2, #8]
 80047ee:	6879      	ldr	r1, [r7, #4]
 80047f0:	68fa      	ldr	r2, [r7, #12]
 80047f2:	4613      	mov	r3, r2
 80047f4:	009b      	lsls	r3, r3, #2
 80047f6:	4413      	add	r3, r2
 80047f8:	00db      	lsls	r3, r3, #3
 80047fa:	440b      	add	r3, r1
 80047fc:	333d      	adds	r3, #61	; 0x3d
 80047fe:	781b      	ldrb	r3, [r3, #0]
 8004800:	2b01      	cmp	r3, #1
 8004802:	f040 82ff 	bne.w	8004e04 <HCD_HC_OUT_IRQHandler+0x6a2>
 8004806:	6879      	ldr	r1, [r7, #4]
 8004808:	68fa      	ldr	r2, [r7, #12]
 800480a:	4613      	mov	r3, r2
 800480c:	009b      	lsls	r3, r3, #2
 800480e:	4413      	add	r3, r2
 8004810:	00db      	lsls	r3, r3, #3
 8004812:	440b      	add	r3, r1
 8004814:	333d      	adds	r3, #61	; 0x3d
 8004816:	2200      	movs	r2, #0
 8004818:	701a      	strb	r2, [r3, #0]
 800481a:	6879      	ldr	r1, [r7, #4]
 800481c:	68fa      	ldr	r2, [r7, #12]
 800481e:	4613      	mov	r3, r2
 8004820:	009b      	lsls	r3, r3, #2
 8004822:	4413      	add	r3, r2
 8004824:	00db      	lsls	r3, r3, #3
 8004826:	440b      	add	r3, r1
 8004828:	335c      	adds	r3, #92	; 0x5c
 800482a:	2202      	movs	r2, #2
 800482c:	701a      	strb	r2, [r3, #0]
 800482e:	68fb      	ldr	r3, [r7, #12]
 8004830:	015a      	lsls	r2, r3, #5
 8004832:	693b      	ldr	r3, [r7, #16]
 8004834:	4413      	add	r3, r2
 8004836:	f503 63a0 	add.w	r3, r3, #1280	; 0x500
 800483a:	68db      	ldr	r3, [r3, #12]
 800483c:	68fa      	ldr	r2, [r7, #12]
 800483e:	0151      	lsls	r1, r2, #5
 8004840:	693a      	ldr	r2, [r7, #16]
 8004842:	440a      	add	r2, r1
 8004844:	f502 62a0 	add.w	r2, r2, #1280	; 0x500
 8004848:	f043 0302 	orr.w	r3, r3, #2
 800484c:	60d3      	str	r3, [r2, #12]
 800484e:	687b      	ldr	r3, [r7, #4]
 8004850:	681b      	ldr	r3, [r3, #0]
 8004852:	68fa      	ldr	r2, [r7, #12]
 8004854:	b2d2      	uxtb	r2, r2
 8004856:	4611      	mov	r1, r2
 8004858:	4618      	mov	r0, r3
 800485a:	f004 fba0 	bl	8008f9e <USB_HC_Halt>
 800485e:	e2d1      	b.n	8004e04 <HCD_HC_OUT_IRQHandler+0x6a2>
 8004860:	68fb      	ldr	r3, [r7, #12]
 8004862:	015a      	lsls	r2, r3, #5
 8004864:	693b      	ldr	r3, [r7, #16]
 8004866:	4413      	add	r3, r2
 8004868:	f503 63a0 	add.w	r3, r3, #1280	; 0x500
 800486c:	689b      	ldr	r3, [r3, #8]
 800486e:	f003 0340 	and.w	r3, r3, #64	; 0x40
 8004872:	2b40      	cmp	r3, #64	; 0x40
 8004874:	d13f      	bne.n	80048f6 <HCD_HC_OUT_IRQHandler+0x194>
 8004876:	6879      	ldr	r1, [r7, #4]
 8004878:	68fa      	ldr	r2, [r7, #12]
 800487a:	4613      	mov	r3, r2
 800487c:	009b      	lsls	r3, r3, #2
 800487e:	4413      	add	r3, r2
 8004880:	00db      	lsls	r3, r3, #3
 8004882:	440b      	add	r3, r1
 8004884:	335d      	adds	r3, #93	; 0x5d
 8004886:	2204      	movs	r2, #4
 8004888:	701a      	strb	r2, [r3, #0]
 800488a:	6879      	ldr	r1, [r7, #4]
 800488c:	68fa      	ldr	r2, [r7, #12]
 800488e:	4613      	mov	r3, r2
 8004890:	009b      	lsls	r3, r3, #2
 8004892:	4413      	add	r3, r2
 8004894:	00db      	lsls	r3, r3, #3
 8004896:	440b      	add	r3, r1
 8004898:	333d      	adds	r3, #61	; 0x3d
 800489a:	2201      	movs	r2, #1
 800489c:	701a      	strb	r2, [r3, #0]
 800489e:	6879      	ldr	r1, [r7, #4]
 80048a0:	68fa      	ldr	r2, [r7, #12]
 80048a2:	4613      	mov	r3, r2
 80048a4:	009b      	lsls	r3, r3, #2
 80048a6:	4413      	add	r3, r2
 80048a8:	00db      	lsls	r3, r3, #3
 80048aa:	440b      	add	r3, r1
 80048ac:	3358      	adds	r3, #88	; 0x58
 80048ae:	2200      	movs	r2, #0
 80048b0:	601a      	str	r2, [r3, #0]
 80048b2:	68fb      	ldr	r3, [r7, #12]
 80048b4:	015a      	lsls	r2, r3, #5
 80048b6:	693b      	ldr	r3, [r7, #16]
 80048b8:	4413      	add	r3, r2
 80048ba:	f503 63a0 	add.w	r3, r3, #1280	; 0x500
 80048be:	68db      	ldr	r3, [r3, #12]
 80048c0:	68fa      	ldr	r2, [r7, #12]
 80048c2:	0151      	lsls	r1, r2, #5
 80048c4:	693a      	ldr	r2, [r7, #16]
 80048c6:	440a      	add	r2, r1
 80048c8:	f502 62a0 	add.w	r2, r2, #1280	; 0x500
 80048cc:	f043 0302 	orr.w	r3, r3, #2
 80048d0:	60d3      	str	r3, [r2, #12]
 80048d2:	687b      	ldr	r3, [r7, #4]
 80048d4:	681b      	ldr	r3, [r3, #0]
 80048d6:	68fa      	ldr	r2, [r7, #12]
 80048d8:	b2d2      	uxtb	r2, r2
 80048da:	4611      	mov	r1, r2
 80048dc:	4618      	mov	r0, r3
 80048de:	f004 fb5e 	bl	8008f9e <USB_HC_Halt>
 80048e2:	68fb      	ldr	r3, [r7, #12]
 80048e4:	015a      	lsls	r2, r3, #5
 80048e6:	693b      	ldr	r3, [r7, #16]
 80048e8:	4413      	add	r3, r2
 80048ea:	f503 63a0 	add.w	r3, r3, #1280	; 0x500
 80048ee:	461a      	mov	r2, r3
 80048f0:	2340      	movs	r3, #64	; 0x40
 80048f2:	6093      	str	r3, [r2, #8]
 80048f4:	e286      	b.n	8004e04 <HCD_HC_OUT_IRQHandler+0x6a2>
 80048f6:	68fb      	ldr	r3, [r7, #12]
 80048f8:	015a      	lsls	r2, r3, #5
 80048fa:	693b      	ldr	r3, [r7, #16]
 80048fc:	4413      	add	r3, r2
 80048fe:	f503 63a0 	add.w	r3, r3, #1280	; 0x500
 8004902:	689b      	ldr	r3, [r3, #8]
 8004904:	f403 7300 	and.w	r3, r3, #512	; 0x200
 8004908:	f5b3 7f00 	cmp.w	r3, #512	; 0x200
 800490c:	d122      	bne.n	8004954 <HCD_HC_OUT_IRQHandler+0x1f2>
 800490e:	68fb      	ldr	r3, [r7, #12]
 8004910:	015a      	lsls	r2, r3, #5
 8004912:	693b      	ldr	r3, [r7, #16]
 8004914:	4413      	add	r3, r2
 8004916:	f503 63a0 	add.w	r3, r3, #1280	; 0x500
 800491a:	68db      	ldr	r3, [r3, #12]
 800491c:	68fa      	ldr	r2, [r7, #12]
 800491e:	0151      	lsls	r1, r2, #5
 8004920:	693a      	ldr	r2, [r7, #16]
 8004922:	440a      	add	r2, r1
 8004924:	f502 62a0 	add.w	r2, r2, #1280	; 0x500
 8004928:	f043 0302 	orr.w	r3, r3, #2
 800492c:	60d3      	str	r3, [r2, #12]
 800492e:	687b      	ldr	r3, [r7, #4]
 8004930:	681b      	ldr	r3, [r3, #0]
 8004932:	68fa      	ldr	r2, [r7, #12]
 8004934:	b2d2      	uxtb	r2, r2
 8004936:	4611      	mov	r1, r2
 8004938:	4618      	mov	r0, r3
 800493a:	f004 fb30 	bl	8008f9e <USB_HC_Halt>
 800493e:	68fb      	ldr	r3, [r7, #12]
 8004940:	015a      	lsls	r2, r3, #5
 8004942:	693b      	ldr	r3, [r7, #16]
 8004944:	4413      	add	r3, r2
 8004946:	f503 63a0 	add.w	r3, r3, #1280	; 0x500
 800494a:	461a      	mov	r2, r3
 800494c:	f44f 7300 	mov.w	r3, #512	; 0x200
 8004950:	6093      	str	r3, [r2, #8]
 8004952:	e257      	b.n	8004e04 <HCD_HC_OUT_IRQHandler+0x6a2>
 8004954:	68fb      	ldr	r3, [r7, #12]
 8004956:	015a      	lsls	r2, r3, #5
 8004958:	693b      	ldr	r3, [r7, #16]
 800495a:	4413      	add	r3, r2
 800495c:	f503 63a0 	add.w	r3, r3, #1280	; 0x500
 8004960:	689b      	ldr	r3, [r3, #8]
 8004962:	f003 0301 	and.w	r3, r3, #1
 8004966:	2b01      	cmp	r3, #1
 8004968:	d135      	bne.n	80049d6 <HCD_HC_OUT_IRQHandler+0x274>
 800496a:	6879      	ldr	r1, [r7, #4]
 800496c:	68fa      	ldr	r2, [r7, #12]
 800496e:	4613      	mov	r3, r2
 8004970:	009b      	lsls	r3, r3, #2
 8004972:	4413      	add	r3, r2
 8004974:	00db      	lsls	r3, r3, #3
 8004976:	440b      	add	r3, r1
 8004978:	3358      	adds	r3, #88	; 0x58
 800497a:	2200      	movs	r2, #0
 800497c:	601a      	str	r2, [r3, #0]
 800497e:	68fb      	ldr	r3, [r7, #12]
 8004980:	015a      	lsls	r2, r3, #5
 8004982:	693b      	ldr	r3, [r7, #16]
 8004984:	4413      	add	r3, r2
 8004986:	f503 63a0 	add.w	r3, r3, #1280	; 0x500
 800498a:	68db      	ldr	r3, [r3, #12]
 800498c:	68fa      	ldr	r2, [r7, #12]
 800498e:	0151      	lsls	r1, r2, #5
 8004990:	693a      	ldr	r2, [r7, #16]
 8004992:	440a      	add	r2, r1
 8004994:	f502 62a0 	add.w	r2, r2, #1280	; 0x500
 8004998:	f043 0302 	orr.w	r3, r3, #2
 800499c:	60d3      	str	r3, [r2, #12]
 800499e:	687b      	ldr	r3, [r7, #4]
 80049a0:	681b      	ldr	r3, [r3, #0]
 80049a2:	68fa      	ldr	r2, [r7, #12]
 80049a4:	b2d2      	uxtb	r2, r2
 80049a6:	4611      	mov	r1, r2
 80049a8:	4618      	mov	r0, r3
 80049aa:	f004 faf8 	bl	8008f9e <USB_HC_Halt>
 80049ae:	68fb      	ldr	r3, [r7, #12]
 80049b0:	015a      	lsls	r2, r3, #5
 80049b2:	693b      	ldr	r3, [r7, #16]
 80049b4:	4413      	add	r3, r2
 80049b6:	f503 63a0 	add.w	r3, r3, #1280	; 0x500
 80049ba:	461a      	mov	r2, r3
 80049bc:	2301      	movs	r3, #1
 80049be:	6093      	str	r3, [r2, #8]
 80049c0:	6879      	ldr	r1, [r7, #4]
 80049c2:	68fa      	ldr	r2, [r7, #12]
 80049c4:	4613      	mov	r3, r2
 80049c6:	009b      	lsls	r3, r3, #2
 80049c8:	4413      	add	r3, r2
 80049ca:	00db      	lsls	r3, r3, #3
 80049cc:	440b      	add	r3, r1
 80049ce:	335d      	adds	r3, #93	; 0x5d
 80049d0:	2201      	movs	r2, #1
 80049d2:	701a      	strb	r2, [r3, #0]
 80049d4:	e216      	b.n	8004e04 <HCD_HC_OUT_IRQHandler+0x6a2>
 80049d6:	68fb      	ldr	r3, [r7, #12]
 80049d8:	015a      	lsls	r2, r3, #5
 80049da:	693b      	ldr	r3, [r7, #16]
 80049dc:	4413      	add	r3, r2
 80049de:	f503 63a0 	add.w	r3, r3, #1280	; 0x500
 80049e2:	689b      	ldr	r3, [r3, #8]
 80049e4:	f003 0308 	and.w	r3, r3, #8
 80049e8:	2b08      	cmp	r3, #8
 80049ea:	d12b      	bne.n	8004a44 <HCD_HC_OUT_IRQHandler+0x2e2>
 80049ec:	68fb      	ldr	r3, [r7, #12]
 80049ee:	015a      	lsls	r2, r3, #5
 80049f0:	693b      	ldr	r3, [r7, #16]
 80049f2:	4413      	add	r3, r2
 80049f4:	f503 63a0 	add.w	r3, r3, #1280	; 0x500
 80049f8:	461a      	mov	r2, r3
 80049fa:	2308      	movs	r3, #8
 80049fc:	6093      	str	r3, [r2, #8]
 80049fe:	68fb      	ldr	r3, [r7, #12]
 8004a00:	015a      	lsls	r2, r3, #5
 8004a02:	693b      	ldr	r3, [r7, #16]
 8004a04:	4413      	add	r3, r2
 8004a06:	f503 63a0 	add.w	r3, r3, #1280	; 0x500
 8004a0a:	68db      	ldr	r3, [r3, #12]
 8004a0c:	68fa      	ldr	r2, [r7, #12]
 8004a0e:	0151      	lsls	r1, r2, #5
 8004a10:	693a      	ldr	r2, [r7, #16]
 8004a12:	440a      	add	r2, r1
 8004a14:	f502 62a0 	add.w	r2, r2, #1280	; 0x500
 8004a18:	f043 0302 	orr.w	r3, r3, #2
 8004a1c:	60d3      	str	r3, [r2, #12]
 8004a1e:	687b      	ldr	r3, [r7, #4]
 8004a20:	681b      	ldr	r3, [r3, #0]
 8004a22:	68fa      	ldr	r2, [r7, #12]
 8004a24:	b2d2      	uxtb	r2, r2
 8004a26:	4611      	mov	r1, r2
 8004a28:	4618      	mov	r0, r3
 8004a2a:	f004 fab8 	bl	8008f9e <USB_HC_Halt>
 8004a2e:	6879      	ldr	r1, [r7, #4]
 8004a30:	68fa      	ldr	r2, [r7, #12]
 8004a32:	4613      	mov	r3, r2
 8004a34:	009b      	lsls	r3, r3, #2
 8004a36:	4413      	add	r3, r2
 8004a38:	00db      	lsls	r3, r3, #3
 8004a3a:	440b      	add	r3, r1
 8004a3c:	335d      	adds	r3, #93	; 0x5d
 8004a3e:	2205      	movs	r2, #5
 8004a40:	701a      	strb	r2, [r3, #0]
 8004a42:	e1df      	b.n	8004e04 <HCD_HC_OUT_IRQHandler+0x6a2>
 8004a44:	68fb      	ldr	r3, [r7, #12]
 8004a46:	015a      	lsls	r2, r3, #5
 8004a48:	693b      	ldr	r3, [r7, #16]
 8004a4a:	4413      	add	r3, r2
 8004a4c:	f503 63a0 	add.w	r3, r3, #1280	; 0x500
 8004a50:	689b      	ldr	r3, [r3, #8]
 8004a52:	f003 0310 	and.w	r3, r3, #16
 8004a56:	2b10      	cmp	r3, #16
 8004a58:	d135      	bne.n	8004ac6 <HCD_HC_OUT_IRQHandler+0x364>
 8004a5a:	6879      	ldr	r1, [r7, #4]
 8004a5c:	68fa      	ldr	r2, [r7, #12]
 8004a5e:	4613      	mov	r3, r2
 8004a60:	009b      	lsls	r3, r3, #2
 8004a62:	4413      	add	r3, r2
 8004a64:	00db      	lsls	r3, r3, #3
 8004a66:	440b      	add	r3, r1
 8004a68:	3358      	adds	r3, #88	; 0x58
 8004a6a:	2200      	movs	r2, #0
 8004a6c:	601a      	str	r2, [r3, #0]
 8004a6e:	6879      	ldr	r1, [r7, #4]
 8004a70:	68fa      	ldr	r2, [r7, #12]
 8004a72:	4613      	mov	r3, r2
 8004a74:	009b      	lsls	r3, r3, #2
 8004a76:	4413      	add	r3, r2
 8004a78:	00db      	lsls	r3, r3, #3
 8004a7a:	440b      	add	r3, r1
 8004a7c:	335d      	adds	r3, #93	; 0x5d
 8004a7e:	2203      	movs	r2, #3
 8004a80:	701a      	strb	r2, [r3, #0]
 8004a82:	68fb      	ldr	r3, [r7, #12]
 8004a84:	015a      	lsls	r2, r3, #5
 8004a86:	693b      	ldr	r3, [r7, #16]
 8004a88:	4413      	add	r3, r2
 8004a8a:	f503 63a0 	add.w	r3, r3, #1280	; 0x500
 8004a8e:	68db      	ldr	r3, [r3, #12]
 8004a90:	68fa      	ldr	r2, [r7, #12]
 8004a92:	0151      	lsls	r1, r2, #5
 8004a94:	693a      	ldr	r2, [r7, #16]
 8004a96:	440a      	add	r2, r1
 8004a98:	f502 62a0 	add.w	r2, r2, #1280	; 0x500
 8004a9c:	f043 0302 	orr.w	r3, r3, #2
 8004aa0:	60d3      	str	r3, [r2, #12]
 8004aa2:	687b      	ldr	r3, [r7, #4]
 8004aa4:	681b      	ldr	r3, [r3, #0]
 8004aa6:	68fa      	ldr	r2, [r7, #12]
 8004aa8:	b2d2      	uxtb	r2, r2
 8004aaa:	4611      	mov	r1, r2
 8004aac:	4618      	mov	r0, r3
 8004aae:	f004 fa76 	bl	8008f9e <USB_HC_Halt>
 8004ab2:	68fb      	ldr	r3, [r7, #12]
 8004ab4:	015a      	lsls	r2, r3, #5
 8004ab6:	693b      	ldr	r3, [r7, #16]
 8004ab8:	4413      	add	r3, r2
 8004aba:	f503 63a0 	add.w	r3, r3, #1280	; 0x500
 8004abe:	461a      	mov	r2, r3
 8004ac0:	2310      	movs	r3, #16
 8004ac2:	6093      	str	r3, [r2, #8]
 8004ac4:	e19e      	b.n	8004e04 <HCD_HC_OUT_IRQHandler+0x6a2>
 8004ac6:	68fb      	ldr	r3, [r7, #12]
 8004ac8:	015a      	lsls	r2, r3, #5
 8004aca:	693b      	ldr	r3, [r7, #16]
 8004acc:	4413      	add	r3, r2
 8004ace:	f503 63a0 	add.w	r3, r3, #1280	; 0x500
 8004ad2:	689b      	ldr	r3, [r3, #8]
 8004ad4:	f003 0380 	and.w	r3, r3, #128	; 0x80
 8004ad8:	2b80      	cmp	r3, #128	; 0x80
 8004ada:	d12b      	bne.n	8004b34 <HCD_HC_OUT_IRQHandler+0x3d2>
 8004adc:	68fb      	ldr	r3, [r7, #12]
 8004ade:	015a      	lsls	r2, r3, #5
 8004ae0:	693b      	ldr	r3, [r7, #16]
 8004ae2:	4413      	add	r3, r2
 8004ae4:	f503 63a0 	add.w	r3, r3, #1280	; 0x500
 8004ae8:	68db      	ldr	r3, [r3, #12]
 8004aea:	68fa      	ldr	r2, [r7, #12]
 8004aec:	0151      	lsls	r1, r2, #5
 8004aee:	693a      	ldr	r2, [r7, #16]
 8004af0:	440a      	add	r2, r1
 8004af2:	f502 62a0 	add.w	r2, r2, #1280	; 0x500
 8004af6:	f043 0302 	orr.w	r3, r3, #2
 8004afa:	60d3      	str	r3, [r2, #12]
 8004afc:	687b      	ldr	r3, [r7, #4]
 8004afe:	681b      	ldr	r3, [r3, #0]
 8004b00:	68fa      	ldr	r2, [r7, #12]
 8004b02:	b2d2      	uxtb	r2, r2
 8004b04:	4611      	mov	r1, r2
 8004b06:	4618      	mov	r0, r3
 8004b08:	f004 fa49 	bl	8008f9e <USB_HC_Halt>
 8004b0c:	6879      	ldr	r1, [r7, #4]
 8004b0e:	68fa      	ldr	r2, [r7, #12]
 8004b10:	4613      	mov	r3, r2
 8004b12:	009b      	lsls	r3, r3, #2
 8004b14:	4413      	add	r3, r2
 8004b16:	00db      	lsls	r3, r3, #3
 8004b18:	440b      	add	r3, r1
 8004b1a:	335d      	adds	r3, #93	; 0x5d
 8004b1c:	2206      	movs	r2, #6
 8004b1e:	701a      	strb	r2, [r3, #0]
 8004b20:	68fb      	ldr	r3, [r7, #12]
 8004b22:	015a      	lsls	r2, r3, #5
 8004b24:	693b      	ldr	r3, [r7, #16]
 8004b26:	4413      	add	r3, r2
 8004b28:	f503 63a0 	add.w	r3, r3, #1280	; 0x500
 8004b2c:	461a      	mov	r2, r3
 8004b2e:	2380      	movs	r3, #128	; 0x80
 8004b30:	6093      	str	r3, [r2, #8]
 8004b32:	e167      	b.n	8004e04 <HCD_HC_OUT_IRQHandler+0x6a2>
 8004b34:	68fb      	ldr	r3, [r7, #12]
 8004b36:	015a      	lsls	r2, r3, #5
 8004b38:	693b      	ldr	r3, [r7, #16]
 8004b3a:	4413      	add	r3, r2
 8004b3c:	f503 63a0 	add.w	r3, r3, #1280	; 0x500
 8004b40:	689b      	ldr	r3, [r3, #8]
 8004b42:	f403 6380 	and.w	r3, r3, #1024	; 0x400
 8004b46:	f5b3 6f80 	cmp.w	r3, #1024	; 0x400
 8004b4a:	d135      	bne.n	8004bb8 <HCD_HC_OUT_IRQHandler+0x456>
 8004b4c:	68fb      	ldr	r3, [r7, #12]
 8004b4e:	015a      	lsls	r2, r3, #5
 8004b50:	693b      	ldr	r3, [r7, #16]
 8004b52:	4413      	add	r3, r2
 8004b54:	f503 63a0 	add.w	r3, r3, #1280	; 0x500
 8004b58:	68db      	ldr	r3, [r3, #12]
 8004b5a:	68fa      	ldr	r2, [r7, #12]
 8004b5c:	0151      	lsls	r1, r2, #5
 8004b5e:	693a      	ldr	r2, [r7, #16]
 8004b60:	440a      	add	r2, r1
 8004b62:	f502 62a0 	add.w	r2, r2, #1280	; 0x500
 8004b66:	f043 0302 	orr.w	r3, r3, #2
 8004b6a:	60d3      	str	r3, [r2, #12]
 8004b6c:	687b      	ldr	r3, [r7, #4]
 8004b6e:	681b      	ldr	r3, [r3, #0]
 8004b70:	68fa      	ldr	r2, [r7, #12]
 8004b72:	b2d2      	uxtb	r2, r2
 8004b74:	4611      	mov	r1, r2
 8004b76:	4618      	mov	r0, r3
 8004b78:	f004 fa11 	bl	8008f9e <USB_HC_Halt>
 8004b7c:	68fb      	ldr	r3, [r7, #12]
 8004b7e:	015a      	lsls	r2, r3, #5
 8004b80:	693b      	ldr	r3, [r7, #16]
 8004b82:	4413      	add	r3, r2
 8004b84:	f503 63a0 	add.w	r3, r3, #1280	; 0x500
 8004b88:	461a      	mov	r2, r3
 8004b8a:	2310      	movs	r3, #16
 8004b8c:	6093      	str	r3, [r2, #8]
 8004b8e:	68fb      	ldr	r3, [r7, #12]
 8004b90:	015a      	lsls	r2, r3, #5
 8004b92:	693b      	ldr	r3, [r7, #16]
 8004b94:	4413      	add	r3, r2
 8004b96:	f503 63a0 	add.w	r3, r3, #1280	; 0x500
 8004b9a:	461a      	mov	r2, r3
 8004b9c:	f44f 6380 	mov.w	r3, #1024	; 0x400
 8004ba0:	6093      	str	r3, [r2, #8]
 8004ba2:	6879      	ldr	r1, [r7, #4]
 8004ba4:	68fa      	ldr	r2, [r7, #12]
 8004ba6:	4613      	mov	r3, r2
 8004ba8:	009b      	lsls	r3, r3, #2
 8004baa:	4413      	add	r3, r2
 8004bac:	00db      	lsls	r3, r3, #3
 8004bae:	440b      	add	r3, r1
 8004bb0:	335d      	adds	r3, #93	; 0x5d
 8004bb2:	2208      	movs	r2, #8
 8004bb4:	701a      	strb	r2, [r3, #0]
 8004bb6:	e125      	b.n	8004e04 <HCD_HC_OUT_IRQHandler+0x6a2>
 8004bb8:	68fb      	ldr	r3, [r7, #12]
 8004bba:	015a      	lsls	r2, r3, #5
 8004bbc:	693b      	ldr	r3, [r7, #16]
 8004bbe:	4413      	add	r3, r2
 8004bc0:	f503 63a0 	add.w	r3, r3, #1280	; 0x500
 8004bc4:	689b      	ldr	r3, [r3, #8]
 8004bc6:	f003 0302 	and.w	r3, r3, #2
 8004bca:	2b02      	cmp	r3, #2
 8004bcc:	f040 811a 	bne.w	8004e04 <HCD_HC_OUT_IRQHandler+0x6a2>
 8004bd0:	68fb      	ldr	r3, [r7, #12]
 8004bd2:	015a      	lsls	r2, r3, #5
 8004bd4:	693b      	ldr	r3, [r7, #16]
 8004bd6:	4413      	add	r3, r2
 8004bd8:	f503 63a0 	add.w	r3, r3, #1280	; 0x500
 8004bdc:	68db      	ldr	r3, [r3, #12]
 8004bde:	68fa      	ldr	r2, [r7, #12]
 8004be0:	0151      	lsls	r1, r2, #5
 8004be2:	693a      	ldr	r2, [r7, #16]
 8004be4:	440a      	add	r2, r1
 8004be6:	f502 62a0 	add.w	r2, r2, #1280	; 0x500
 8004bea:	f023 0302 	bic.w	r3, r3, #2
 8004bee:	60d3      	str	r3, [r2, #12]
 8004bf0:	6879      	ldr	r1, [r7, #4]
 8004bf2:	68fa      	ldr	r2, [r7, #12]
 8004bf4:	4613      	mov	r3, r2
 8004bf6:	009b      	lsls	r3, r3, #2
 8004bf8:	4413      	add	r3, r2
 8004bfa:	00db      	lsls	r3, r3, #3
 8004bfc:	440b      	add	r3, r1
 8004bfe:	335d      	adds	r3, #93	; 0x5d
 8004c00:	781b      	ldrb	r3, [r3, #0]
 8004c02:	2b01      	cmp	r3, #1
 8004c04:	d137      	bne.n	8004c76 <HCD_HC_OUT_IRQHandler+0x514>
 8004c06:	6879      	ldr	r1, [r7, #4]
 8004c08:	68fa      	ldr	r2, [r7, #12]
 8004c0a:	4613      	mov	r3, r2
 8004c0c:	009b      	lsls	r3, r3, #2
 8004c0e:	4413      	add	r3, r2
 8004c10:	00db      	lsls	r3, r3, #3
 8004c12:	440b      	add	r3, r1
 8004c14:	335c      	adds	r3, #92	; 0x5c
 8004c16:	2201      	movs	r2, #1
 8004c18:	701a      	strb	r2, [r3, #0]
 8004c1a:	6879      	ldr	r1, [r7, #4]
 8004c1c:	68fa      	ldr	r2, [r7, #12]
 8004c1e:	4613      	mov	r3, r2
 8004c20:	009b      	lsls	r3, r3, #2
 8004c22:	4413      	add	r3, r2
 8004c24:	00db      	lsls	r3, r3, #3
 8004c26:	440b      	add	r3, r1
 8004c28:	333f      	adds	r3, #63	; 0x3f
 8004c2a:	781b      	ldrb	r3, [r3, #0]
 8004c2c:	2b02      	cmp	r3, #2
 8004c2e:	d00b      	beq.n	8004c48 <HCD_HC_OUT_IRQHandler+0x4e6>
 8004c30:	6879      	ldr	r1, [r7, #4]
 8004c32:	68fa      	ldr	r2, [r7, #12]
 8004c34:	4613      	mov	r3, r2
 8004c36:	009b      	lsls	r3, r3, #2
 8004c38:	4413      	add	r3, r2
 8004c3a:	00db      	lsls	r3, r3, #3
 8004c3c:	440b      	add	r3, r1
 8004c3e:	333f      	adds	r3, #63	; 0x3f
 8004c40:	781b      	ldrb	r3, [r3, #0]
 8004c42:	2b03      	cmp	r3, #3
 8004c44:	f040 80c5 	bne.w	8004dd2 <HCD_HC_OUT_IRQHandler+0x670>
 8004c48:	6879      	ldr	r1, [r7, #4]
 8004c4a:	68fa      	ldr	r2, [r7, #12]
 8004c4c:	4613      	mov	r3, r2
 8004c4e:	009b      	lsls	r3, r3, #2
 8004c50:	4413      	add	r3, r2
 8004c52:	00db      	lsls	r3, r3, #3
 8004c54:	440b      	add	r3, r1
 8004c56:	3351      	adds	r3, #81	; 0x51
 8004c58:	781b      	ldrb	r3, [r3, #0]
 8004c5a:	f083 0301 	eor.w	r3, r3, #1
 8004c5e:	b2d8      	uxtb	r0, r3
 8004c60:	6879      	ldr	r1, [r7, #4]
 8004c62:	68fa      	ldr	r2, [r7, #12]
 8004c64:	4613      	mov	r3, r2
 8004c66:	009b      	lsls	r3, r3, #2
 8004c68:	4413      	add	r3, r2
 8004c6a:	00db      	lsls	r3, r3, #3
 8004c6c:	440b      	add	r3, r1
 8004c6e:	3351      	adds	r3, #81	; 0x51
 8004c70:	4602      	mov	r2, r0
 8004c72:	701a      	strb	r2, [r3, #0]
 8004c74:	e0ad      	b.n	8004dd2 <HCD_HC_OUT_IRQHandler+0x670>
 8004c76:	6879      	ldr	r1, [r7, #4]
 8004c78:	68fa      	ldr	r2, [r7, #12]
 8004c7a:	4613      	mov	r3, r2
 8004c7c:	009b      	lsls	r3, r3, #2
 8004c7e:	4413      	add	r3, r2
 8004c80:	00db      	lsls	r3, r3, #3
 8004c82:	440b      	add	r3, r1
 8004c84:	335d      	adds	r3, #93	; 0x5d
 8004c86:	781b      	ldrb	r3, [r3, #0]
 8004c88:	2b03      	cmp	r3, #3
 8004c8a:	d10a      	bne.n	8004ca2 <HCD_HC_OUT_IRQHandler+0x540>
 8004c8c:	6879      	ldr	r1, [r7, #4]
 8004c8e:	68fa      	ldr	r2, [r7, #12]
 8004c90:	4613      	mov	r3, r2
 8004c92:	009b      	lsls	r3, r3, #2
 8004c94:	4413      	add	r3, r2
 8004c96:	00db      	lsls	r3, r3, #3
 8004c98:	440b      	add	r3, r1
 8004c9a:	335c      	adds	r3, #92	; 0x5c
 8004c9c:	2202      	movs	r2, #2
 8004c9e:	701a      	strb	r2, [r3, #0]
 8004ca0:	e097      	b.n	8004dd2 <HCD_HC_OUT_IRQHandler+0x670>
 8004ca2:	6879      	ldr	r1, [r7, #4]
 8004ca4:	68fa      	ldr	r2, [r7, #12]
 8004ca6:	4613      	mov	r3, r2
 8004ca8:	009b      	lsls	r3, r3, #2
 8004caa:	4413      	add	r3, r2
 8004cac:	00db      	lsls	r3, r3, #3
 8004cae:	440b      	add	r3, r1
 8004cb0:	335d      	adds	r3, #93	; 0x5d
 8004cb2:	781b      	ldrb	r3, [r3, #0]
 8004cb4:	2b04      	cmp	r3, #4
 8004cb6:	d10a      	bne.n	8004cce <HCD_HC_OUT_IRQHandler+0x56c>
 8004cb8:	6879      	ldr	r1, [r7, #4]
 8004cba:	68fa      	ldr	r2, [r7, #12]
 8004cbc:	4613      	mov	r3, r2
 8004cbe:	009b      	lsls	r3, r3, #2
 8004cc0:	4413      	add	r3, r2
 8004cc2:	00db      	lsls	r3, r3, #3
 8004cc4:	440b      	add	r3, r1
 8004cc6:	335c      	adds	r3, #92	; 0x5c
 8004cc8:	2202      	movs	r2, #2
 8004cca:	701a      	strb	r2, [r3, #0]
 8004ccc:	e081      	b.n	8004dd2 <HCD_HC_OUT_IRQHandler+0x670>
 8004cce:	6879      	ldr	r1, [r7, #4]
 8004cd0:	68fa      	ldr	r2, [r7, #12]
 8004cd2:	4613      	mov	r3, r2
 8004cd4:	009b      	lsls	r3, r3, #2
 8004cd6:	4413      	add	r3, r2
 8004cd8:	00db      	lsls	r3, r3, #3
 8004cda:	440b      	add	r3, r1
 8004cdc:	335d      	adds	r3, #93	; 0x5d
 8004cde:	781b      	ldrb	r3, [r3, #0]
 8004ce0:	2b05      	cmp	r3, #5
 8004ce2:	d10a      	bne.n	8004cfa <HCD_HC_OUT_IRQHandler+0x598>
 8004ce4:	6879      	ldr	r1, [r7, #4]
 8004ce6:	68fa      	ldr	r2, [r7, #12]
 8004ce8:	4613      	mov	r3, r2
 8004cea:	009b      	lsls	r3, r3, #2
 8004cec:	4413      	add	r3, r2
 8004cee:	00db      	lsls	r3, r3, #3
 8004cf0:	440b      	add	r3, r1
 8004cf2:	335c      	adds	r3, #92	; 0x5c
 8004cf4:	2205      	movs	r2, #5
 8004cf6:	701a      	strb	r2, [r3, #0]
 8004cf8:	e06b      	b.n	8004dd2 <HCD_HC_OUT_IRQHandler+0x670>
 8004cfa:	6879      	ldr	r1, [r7, #4]
 8004cfc:	68fa      	ldr	r2, [r7, #12]
 8004cfe:	4613      	mov	r3, r2
 8004d00:	009b      	lsls	r3, r3, #2
 8004d02:	4413      	add	r3, r2
 8004d04:	00db      	lsls	r3, r3, #3
 8004d06:	440b      	add	r3, r1
 8004d08:	335d      	adds	r3, #93	; 0x5d
 8004d0a:	781b      	ldrb	r3, [r3, #0]
 8004d0c:	2b06      	cmp	r3, #6
 8004d0e:	d00a      	beq.n	8004d26 <HCD_HC_OUT_IRQHandler+0x5c4>
 8004d10:	6879      	ldr	r1, [r7, #4]
 8004d12:	68fa      	ldr	r2, [r7, #12]
 8004d14:	4613      	mov	r3, r2
 8004d16:	009b      	lsls	r3, r3, #2
 8004d18:	4413      	add	r3, r2
 8004d1a:	00db      	lsls	r3, r3, #3
 8004d1c:	440b      	add	r3, r1
 8004d1e:	335d      	adds	r3, #93	; 0x5d
 8004d20:	781b      	ldrb	r3, [r3, #0]
 8004d22:	2b08      	cmp	r3, #8
 8004d24:	d155      	bne.n	8004dd2 <HCD_HC_OUT_IRQHandler+0x670>
 8004d26:	6879      	ldr	r1, [r7, #4]
 8004d28:	68fa      	ldr	r2, [r7, #12]
 8004d2a:	4613      	mov	r3, r2
 8004d2c:	009b      	lsls	r3, r3, #2
 8004d2e:	4413      	add	r3, r2
 8004d30:	00db      	lsls	r3, r3, #3
 8004d32:	440b      	add	r3, r1
 8004d34:	3358      	adds	r3, #88	; 0x58
 8004d36:	681b      	ldr	r3, [r3, #0]
 8004d38:	1c59      	adds	r1, r3, #1
 8004d3a:	6878      	ldr	r0, [r7, #4]
 8004d3c:	68fa      	ldr	r2, [r7, #12]
 8004d3e:	4613      	mov	r3, r2
 8004d40:	009b      	lsls	r3, r3, #2
 8004d42:	4413      	add	r3, r2
 8004d44:	00db      	lsls	r3, r3, #3
 8004d46:	4403      	add	r3, r0
 8004d48:	3358      	adds	r3, #88	; 0x58
 8004d4a:	6019      	str	r1, [r3, #0]
 8004d4c:	6879      	ldr	r1, [r7, #4]
 8004d4e:	68fa      	ldr	r2, [r7, #12]
 8004d50:	4613      	mov	r3, r2
 8004d52:	009b      	lsls	r3, r3, #2
 8004d54:	4413      	add	r3, r2
 8004d56:	00db      	lsls	r3, r3, #3
 8004d58:	440b      	add	r3, r1
 8004d5a:	3358      	adds	r3, #88	; 0x58
 8004d5c:	681b      	ldr	r3, [r3, #0]
 8004d5e:	2b03      	cmp	r3, #3
 8004d60:	d914      	bls.n	8004d8c <HCD_HC_OUT_IRQHandler+0x62a>
 8004d62:	6879      	ldr	r1, [r7, #4]
 8004d64:	68fa      	ldr	r2, [r7, #12]
 8004d66:	4613      	mov	r3, r2
 8004d68:	009b      	lsls	r3, r3, #2
 8004d6a:	4413      	add	r3, r2
 8004d6c:	00db      	lsls	r3, r3, #3
 8004d6e:	440b      	add	r3, r1
 8004d70:	3358      	adds	r3, #88	; 0x58
 8004d72:	2200      	movs	r2, #0
 8004d74:	601a      	str	r2, [r3, #0]
 8004d76:	6879      	ldr	r1, [r7, #4]
 8004d78:	68fa      	ldr	r2, [r7, #12]
 8004d7a:	4613      	mov	r3, r2
 8004d7c:	009b      	lsls	r3, r3, #2
 8004d7e:	4413      	add	r3, r2
 8004d80:	00db      	lsls	r3, r3, #3
 8004d82:	440b      	add	r3, r1
 8004d84:	335c      	adds	r3, #92	; 0x5c
 8004d86:	2204      	movs	r2, #4
 8004d88:	701a      	strb	r2, [r3, #0]
 8004d8a:	e009      	b.n	8004da0 <HCD_HC_OUT_IRQHandler+0x63e>
 8004d8c:	6879      	ldr	r1, [r7, #4]
 8004d8e:	68fa      	ldr	r2, [r7, #12]
 8004d90:	4613      	mov	r3, r2
 8004d92:	009b      	lsls	r3, r3, #2
 8004d94:	4413      	add	r3, r2
 8004d96:	00db      	lsls	r3, r3, #3
 8004d98:	440b      	add	r3, r1
 8004d9a:	335c      	adds	r3, #92	; 0x5c
 8004d9c:	2202      	movs	r2, #2
 8004d9e:	701a      	strb	r2, [r3, #0]
 8004da0:	68fb      	ldr	r3, [r7, #12]
 8004da2:	015a      	lsls	r2, r3, #5
 8004da4:	693b      	ldr	r3, [r7, #16]
 8004da6:	4413      	add	r3, r2
 8004da8:	f503 63a0 	add.w	r3, r3, #1280	; 0x500
 8004dac:	681b      	ldr	r3, [r3, #0]
 8004dae:	60bb      	str	r3, [r7, #8]
 8004db0:	68bb      	ldr	r3, [r7, #8]
 8004db2:	f023 4380 	bic.w	r3, r3, #1073741824	; 0x40000000
 8004db6:	60bb      	str	r3, [r7, #8]
 8004db8:	68bb      	ldr	r3, [r7, #8]
 8004dba:	f043 4300 	orr.w	r3, r3, #2147483648	; 0x80000000
 8004dbe:	60bb      	str	r3, [r7, #8]
 8004dc0:	68fb      	ldr	r3, [r7, #12]
 8004dc2:	015a      	lsls	r2, r3, #5
 8004dc4:	693b      	ldr	r3, [r7, #16]
 8004dc6:	4413      	add	r3, r2
 8004dc8:	f503 63a0 	add.w	r3, r3, #1280	; 0x500
 8004dcc:	461a      	mov	r2, r3
 8004dce:	68bb      	ldr	r3, [r7, #8]
 8004dd0:	6013      	str	r3, [r2, #0]
 8004dd2:	68fb      	ldr	r3, [r7, #12]
 8004dd4:	015a      	lsls	r2, r3, #5
 8004dd6:	693b      	ldr	r3, [r7, #16]
 8004dd8:	4413      	add	r3, r2
 8004dda:	f503 63a0 	add.w	r3, r3, #1280	; 0x500
 8004dde:	461a      	mov	r2, r3
 8004de0:	2302      	movs	r3, #2
 8004de2:	6093      	str	r3, [r2, #8]
 8004de4:	68fb      	ldr	r3, [r7, #12]
 8004de6:	b2d8      	uxtb	r0, r3
 8004de8:	6879      	ldr	r1, [r7, #4]
 8004dea:	68fa      	ldr	r2, [r7, #12]
 8004dec:	4613      	mov	r3, r2
 8004dee:	009b      	lsls	r3, r3, #2
 8004df0:	4413      	add	r3, r2
 8004df2:	00db      	lsls	r3, r3, #3
 8004df4:	440b      	add	r3, r1
 8004df6:	335c      	adds	r3, #92	; 0x5c
 8004df8:	781b      	ldrb	r3, [r3, #0]
 8004dfa:	461a      	mov	r2, r3
 8004dfc:	4601      	mov	r1, r0
 8004dfe:	6878      	ldr	r0, [r7, #4]
 8004e00:	f005 fb7e 	bl	800a500 <HAL_HCD_HC_NotifyURBChange_Callback>
 8004e04:	bf00      	nop
 8004e06:	3718      	adds	r7, #24
 8004e08:	46bd      	mov	sp, r7
 8004e0a:	bd80      	pop	{r7, pc}

08004e0c <HCD_RXQLVL_IRQHandler>:
 8004e0c:	b580      	push	{r7, lr}
 8004e0e:	b08a      	sub	sp, #40	; 0x28
 8004e10:	af00      	add	r7, sp, #0
 8004e12:	6078      	str	r0, [r7, #4]
 8004e14:	687b      	ldr	r3, [r7, #4]
 8004e16:	681b      	ldr	r3, [r3, #0]
 8004e18:	627b      	str	r3, [r7, #36]	; 0x24
 8004e1a:	6a7b      	ldr	r3, [r7, #36]	; 0x24
 8004e1c:	623b      	str	r3, [r7, #32]
 8004e1e:	687b      	ldr	r3, [r7, #4]
 8004e20:	681b      	ldr	r3, [r3, #0]
 8004e22:	6a1b      	ldr	r3, [r3, #32]
 8004e24:	61fb      	str	r3, [r7, #28]
 8004e26:	69fb      	ldr	r3, [r7, #28]
 8004e28:	f003 030f 	and.w	r3, r3, #15
 8004e2c:	61bb      	str	r3, [r7, #24]
 8004e2e:	69fb      	ldr	r3, [r7, #28]
 8004e30:	0c5b      	lsrs	r3, r3, #17
 8004e32:	f003 030f 	and.w	r3, r3, #15
 8004e36:	617b      	str	r3, [r7, #20]
 8004e38:	69fb      	ldr	r3, [r7, #28]
 8004e3a:	091b      	lsrs	r3, r3, #4
 8004e3c:	f3c3 030a 	ubfx	r3, r3, #0, #11
 8004e40:	613b      	str	r3, [r7, #16]
 8004e42:	697b      	ldr	r3, [r7, #20]
 8004e44:	2b02      	cmp	r3, #2
 8004e46:	d003      	beq.n	8004e50 <HCD_RXQLVL_IRQHandler+0x44>
 8004e48:	2b05      	cmp	r3, #5
 8004e4a:	f000 8082 	beq.w	8004f52 <HCD_RXQLVL_IRQHandler+0x146>
 8004e4e:	e083      	b.n	8004f58 <HCD_RXQLVL_IRQHandler+0x14c>
 8004e50:	693b      	ldr	r3, [r7, #16]
 8004e52:	2b00      	cmp	r3, #0
 8004e54:	d07f      	beq.n	8004f56 <HCD_RXQLVL_IRQHandler+0x14a>
 8004e56:	6879      	ldr	r1, [r7, #4]
 8004e58:	69ba      	ldr	r2, [r7, #24]
 8004e5a:	4613      	mov	r3, r2
 8004e5c:	009b      	lsls	r3, r3, #2
 8004e5e:	4413      	add	r3, r2
 8004e60:	00db      	lsls	r3, r3, #3
 8004e62:	440b      	add	r3, r1
 8004e64:	3344      	adds	r3, #68	; 0x44
 8004e66:	681b      	ldr	r3, [r3, #0]
 8004e68:	2b00      	cmp	r3, #0
 8004e6a:	d074      	beq.n	8004f56 <HCD_RXQLVL_IRQHandler+0x14a>
 8004e6c:	687b      	ldr	r3, [r7, #4]
 8004e6e:	6818      	ldr	r0, [r3, #0]
 8004e70:	6879      	ldr	r1, [r7, #4]
 8004e72:	69ba      	ldr	r2, [r7, #24]
 8004e74:	4613      	mov	r3, r2
 8004e76:	009b      	lsls	r3, r3, #2
 8004e78:	4413      	add	r3, r2
 8004e7a:	00db      	lsls	r3, r3, #3
 8004e7c:	440b      	add	r3, r1
 8004e7e:	3344      	adds	r3, #68	; 0x44
 8004e80:	681b      	ldr	r3, [r3, #0]
 8004e82:	693a      	ldr	r2, [r7, #16]
 8004e84:	b292      	uxth	r2, r2
 8004e86:	4619      	mov	r1, r3
 8004e88:	f003 fd05 	bl	8008896 <USB_ReadPacket>
 8004e8c:	6879      	ldr	r1, [r7, #4]
 8004e8e:	69ba      	ldr	r2, [r7, #24]
 8004e90:	4613      	mov	r3, r2
 8004e92:	009b      	lsls	r3, r3, #2
 8004e94:	4413      	add	r3, r2
 8004e96:	00db      	lsls	r3, r3, #3
 8004e98:	440b      	add	r3, r1
 8004e9a:	3344      	adds	r3, #68	; 0x44
 8004e9c:	681a      	ldr	r2, [r3, #0]
 8004e9e:	693b      	ldr	r3, [r7, #16]
 8004ea0:	18d1      	adds	r1, r2, r3
 8004ea2:	6878      	ldr	r0, [r7, #4]
 8004ea4:	69ba      	ldr	r2, [r7, #24]
 8004ea6:	4613      	mov	r3, r2
 8004ea8:	009b      	lsls	r3, r3, #2
 8004eaa:	4413      	add	r3, r2
 8004eac:	00db      	lsls	r3, r3, #3
 8004eae:	4403      	add	r3, r0
 8004eb0:	3344      	adds	r3, #68	; 0x44
 8004eb2:	6019      	str	r1, [r3, #0]
 8004eb4:	6879      	ldr	r1, [r7, #4]
 8004eb6:	69ba      	ldr	r2, [r7, #24]
 8004eb8:	4613      	mov	r3, r2
 8004eba:	009b      	lsls	r3, r3, #2
 8004ebc:	4413      	add	r3, r2
 8004ebe:	00db      	lsls	r3, r3, #3
 8004ec0:	440b      	add	r3, r1
 8004ec2:	334c      	adds	r3, #76	; 0x4c
 8004ec4:	681a      	ldr	r2, [r3, #0]
 8004ec6:	693b      	ldr	r3, [r7, #16]
 8004ec8:	18d1      	adds	r1, r2, r3
 8004eca:	6878      	ldr	r0, [r7, #4]
 8004ecc:	69ba      	ldr	r2, [r7, #24]
 8004ece:	4613      	mov	r3, r2
 8004ed0:	009b      	lsls	r3, r3, #2
 8004ed2:	4413      	add	r3, r2
 8004ed4:	00db      	lsls	r3, r3, #3
 8004ed6:	4403      	add	r3, r0
 8004ed8:	334c      	adds	r3, #76	; 0x4c
 8004eda:	6019      	str	r1, [r3, #0]
 8004edc:	69bb      	ldr	r3, [r7, #24]
 8004ede:	015a      	lsls	r2, r3, #5
 8004ee0:	6a3b      	ldr	r3, [r7, #32]
 8004ee2:	4413      	add	r3, r2
 8004ee4:	f503 63a0 	add.w	r3, r3, #1280	; 0x500
 8004ee8:	691a      	ldr	r2, [r3, #16]
 8004eea:	4b1d      	ldr	r3, [pc, #116]	; (8004f60 <HCD_RXQLVL_IRQHandler+0x154>)
 8004eec:	4013      	ands	r3, r2
 8004eee:	2b00      	cmp	r3, #0
 8004ef0:	d031      	beq.n	8004f56 <HCD_RXQLVL_IRQHandler+0x14a>
 8004ef2:	69bb      	ldr	r3, [r7, #24]
 8004ef4:	015a      	lsls	r2, r3, #5
 8004ef6:	6a3b      	ldr	r3, [r7, #32]
 8004ef8:	4413      	add	r3, r2
 8004efa:	f503 63a0 	add.w	r3, r3, #1280	; 0x500
 8004efe:	681b      	ldr	r3, [r3, #0]
 8004f00:	60fb      	str	r3, [r7, #12]
 8004f02:	68fb      	ldr	r3, [r7, #12]
 8004f04:	f023 4380 	bic.w	r3, r3, #1073741824	; 0x40000000
 8004f08:	60fb      	str	r3, [r7, #12]
 8004f0a:	68fb      	ldr	r3, [r7, #12]
 8004f0c:	f043 4300 	orr.w	r3, r3, #2147483648	; 0x80000000
 8004f10:	60fb      	str	r3, [r7, #12]
 8004f12:	69bb      	ldr	r3, [r7, #24]
 8004f14:	015a      	lsls	r2, r3, #5
 8004f16:	6a3b      	ldr	r3, [r7, #32]
 8004f18:	4413      	add	r3, r2
 8004f1a:	f503 63a0 	add.w	r3, r3, #1280	; 0x500
 8004f1e:	461a      	mov	r2, r3
 8004f20:	68fb      	ldr	r3, [r7, #12]
 8004f22:	6013      	str	r3, [r2, #0]
 8004f24:	6879      	ldr	r1, [r7, #4]
 8004f26:	69ba      	ldr	r2, [r7, #24]
 8004f28:	4613      	mov	r3, r2
 8004f2a:	009b      	lsls	r3, r3, #2
 8004f2c:	4413      	add	r3, r2
 8004f2e:	00db      	lsls	r3, r3, #3
 8004f30:	440b      	add	r3, r1
 8004f32:	3350      	adds	r3, #80	; 0x50
 8004f34:	781b      	ldrb	r3, [r3, #0]
 8004f36:	f083 0301 	eor.w	r3, r3, #1
 8004f3a:	b2d8      	uxtb	r0, r3
 8004f3c:	6879      	ldr	r1, [r7, #4]
 8004f3e:	69ba      	ldr	r2, [r7, #24]
 8004f40:	4613      	mov	r3, r2
 8004f42:	009b      	lsls	r3, r3, #2
 8004f44:	4413      	add	r3, r2
 8004f46:	00db      	lsls	r3, r3, #3
 8004f48:	440b      	add	r3, r1
 8004f4a:	3350      	adds	r3, #80	; 0x50
 8004f4c:	4602      	mov	r2, r0
 8004f4e:	701a      	strb	r2, [r3, #0]
 8004f50:	e001      	b.n	8004f56 <HCD_RXQLVL_IRQHandler+0x14a>
 8004f52:	bf00      	nop
 8004f54:	e000      	b.n	8004f58 <HCD_RXQLVL_IRQHandler+0x14c>
 8004f56:	bf00      	nop
 8004f58:	bf00      	nop
 8004f5a:	3728      	adds	r7, #40	; 0x28
 8004f5c:	46bd      	mov	sp, r7
 8004f5e:	bd80      	pop	{r7, pc}
 8004f60:	1ff80000 	.word	0x1ff80000

08004f64 <HCD_Port_IRQHandler>:
 8004f64:	b580      	push	{r7, lr}
 8004f66:	b086      	sub	sp, #24
 8004f68:	af00      	add	r7, sp, #0
 8004f6a:	6078      	str	r0, [r7, #4]
 8004f6c:	687b      	ldr	r3, [r7, #4]
 8004f6e:	681b      	ldr	r3, [r3, #0]
 8004f70:	617b      	str	r3, [r7, #20]
 8004f72:	697b      	ldr	r3, [r7, #20]
 8004f74:	613b      	str	r3, [r7, #16]
 8004f76:	693b      	ldr	r3, [r7, #16]
 8004f78:	f503 6388 	add.w	r3, r3, #1088	; 0x440
 8004f7c:	681b      	ldr	r3, [r3, #0]
 8004f7e:	60fb      	str	r3, [r7, #12]
 8004f80:	693b      	ldr	r3, [r7, #16]
 8004f82:	f503 6388 	add.w	r3, r3, #1088	; 0x440
 8004f86:	681b      	ldr	r3, [r3, #0]
 8004f88:	60bb      	str	r3, [r7, #8]
 8004f8a:	68bb      	ldr	r3, [r7, #8]
 8004f8c:	f023 032e 	bic.w	r3, r3, #46	; 0x2e
 8004f90:	60bb      	str	r3, [r7, #8]
 8004f92:	68fb      	ldr	r3, [r7, #12]
 8004f94:	f003 0302 	and.w	r3, r3, #2
 8004f98:	2b02      	cmp	r3, #2
 8004f9a:	d113      	bne.n	8004fc4 <HCD_Port_IRQHandler+0x60>
 8004f9c:	68fb      	ldr	r3, [r7, #12]
 8004f9e:	f003 0301 	and.w	r3, r3, #1
 8004fa2:	2b01      	cmp	r3, #1
 8004fa4:	d10a      	bne.n	8004fbc <HCD_Port_IRQHandler+0x58>
 8004fa6:	687b      	ldr	r3, [r7, #4]
 8004fa8:	681b      	ldr	r3, [r3, #0]
 8004faa:	699a      	ldr	r2, [r3, #24]
 8004fac:	687b      	ldr	r3, [r7, #4]
 8004fae:	681b      	ldr	r3, [r3, #0]
 8004fb0:	f022 5200 	bic.w	r2, r2, #536870912	; 0x20000000
 8004fb4:	619a      	str	r2, [r3, #24]
 8004fb6:	6878      	ldr	r0, [r7, #4]
 8004fb8:	f005 fa86 	bl	800a4c8 <HAL_HCD_Connect_Callback>
 8004fbc:	68bb      	ldr	r3, [r7, #8]
 8004fbe:	f043 0302 	orr.w	r3, r3, #2
 8004fc2:	60bb      	str	r3, [r7, #8]
 8004fc4:	68fb      	ldr	r3, [r7, #12]
 8004fc6:	f003 0308 	and.w	r3, r3, #8
 8004fca:	2b08      	cmp	r3, #8
 8004fcc:	d147      	bne.n	800505e <HCD_Port_IRQHandler+0xfa>
 8004fce:	68bb      	ldr	r3, [r7, #8]
 8004fd0:	f043 0308 	orr.w	r3, r3, #8
 8004fd4:	60bb      	str	r3, [r7, #8]
 8004fd6:	68fb      	ldr	r3, [r7, #12]
 8004fd8:	f003 0304 	and.w	r3, r3, #4
 8004fdc:	2b04      	cmp	r3, #4
 8004fde:	d129      	bne.n	8005034 <HCD_Port_IRQHandler+0xd0>
 8004fe0:	687b      	ldr	r3, [r7, #4]
 8004fe2:	699b      	ldr	r3, [r3, #24]
 8004fe4:	2b02      	cmp	r3, #2
 8004fe6:	d113      	bne.n	8005010 <HCD_Port_IRQHandler+0xac>
 8004fe8:	68fb      	ldr	r3, [r7, #12]
 8004fea:	f403 23c0 	and.w	r3, r3, #393216	; 0x60000
 8004fee:	f5b3 2f80 	cmp.w	r3, #262144	; 0x40000
 8004ff2:	d106      	bne.n	8005002 <HCD_Port_IRQHandler+0x9e>
 8004ff4:	687b      	ldr	r3, [r7, #4]
 8004ff6:	681b      	ldr	r3, [r3, #0]
 8004ff8:	2102      	movs	r1, #2
 8004ffa:	4618      	mov	r0, r3
 8004ffc:	f003 fd48 	bl	8008a90 <USB_InitFSLSPClkSel>
 8005000:	e011      	b.n	8005026 <HCD_Port_IRQHandler+0xc2>
 8005002:	687b      	ldr	r3, [r7, #4]
 8005004:	681b      	ldr	r3, [r3, #0]
 8005006:	2101      	movs	r1, #1
 8005008:	4618      	mov	r0, r3
 800500a:	f003 fd41 	bl	8008a90 <USB_InitFSLSPClkSel>
 800500e:	e00a      	b.n	8005026 <HCD_Port_IRQHandler+0xc2>
 8005010:	687b      	ldr	r3, [r7, #4]
 8005012:	68db      	ldr	r3, [r3, #12]
 8005014:	2b01      	cmp	r3, #1
 8005016:	d106      	bne.n	8005026 <HCD_Port_IRQHandler+0xc2>
 8005018:	693b      	ldr	r3, [r7, #16]
 800501a:	f503 6380 	add.w	r3, r3, #1024	; 0x400
 800501e:	461a      	mov	r2, r3
 8005020:	f64e 2360 	movw	r3, #60000	; 0xea60
 8005024:	6053      	str	r3, [r2, #4]
 8005026:	6878      	ldr	r0, [r7, #4]
 8005028:	f005 fa78 	bl	800a51c <HAL_HCD_PortEnabled_Callback>
 800502c:	6878      	ldr	r0, [r7, #4]
 800502e:	f005 fa4b 	bl	800a4c8 <HAL_HCD_Connect_Callback>
 8005032:	e014      	b.n	800505e <HCD_Port_IRQHandler+0xfa>
 8005034:	6878      	ldr	r0, [r7, #4]
 8005036:	f005 fa7f 	bl	800a538 <HAL_HCD_PortDisabled_Callback>
 800503a:	693b      	ldr	r3, [r7, #16]
 800503c:	f503 6388 	add.w	r3, r3, #1088	; 0x440
 8005040:	681b      	ldr	r3, [r3, #0]
 8005042:	693a      	ldr	r2, [r7, #16]
 8005044:	f502 6288 	add.w	r2, r2, #1088	; 0x440
 8005048:	f023 032e 	bic.w	r3, r3, #46	; 0x2e
 800504c:	6013      	str	r3, [r2, #0]
 800504e:	687b      	ldr	r3, [r7, #4]
 8005050:	681b      	ldr	r3, [r3, #0]
 8005052:	699a      	ldr	r2, [r3, #24]
 8005054:	687b      	ldr	r3, [r7, #4]
 8005056:	681b      	ldr	r3, [r3, #0]
 8005058:	f042 5200 	orr.w	r2, r2, #536870912	; 0x20000000
 800505c:	619a      	str	r2, [r3, #24]
 800505e:	68fb      	ldr	r3, [r7, #12]
 8005060:	f003 0320 	and.w	r3, r3, #32
 8005064:	2b20      	cmp	r3, #32
 8005066:	d103      	bne.n	8005070 <HCD_Port_IRQHandler+0x10c>
 8005068:	68bb      	ldr	r3, [r7, #8]
 800506a:	f043 0320 	orr.w	r3, r3, #32
 800506e:	60bb      	str	r3, [r7, #8]
 8005070:	693b      	ldr	r3, [r7, #16]
 8005072:	f503 6388 	add.w	r3, r3, #1088	; 0x440
 8005076:	461a      	mov	r2, r3
 8005078:	68bb      	ldr	r3, [r7, #8]
 800507a:	6013      	str	r3, [r2, #0]
 800507c:	bf00      	nop
 800507e:	3718      	adds	r7, #24
 8005080:	46bd      	mov	sp, r7
 8005082:	bd80      	pop	{r7, pc}

08005084 <HAL_I2C_Init>:
 8005084:	b580      	push	{r7, lr}
 8005086:	b082      	sub	sp, #8
 8005088:	af00      	add	r7, sp, #0
 800508a:	6078      	str	r0, [r7, #4]
 800508c:	687b      	ldr	r3, [r7, #4]
 800508e:	2b00      	cmp	r3, #0
 8005090:	d101      	bne.n	8005096 <HAL_I2C_Init+0x12>
 8005092:	2301      	movs	r3, #1
 8005094:	e081      	b.n	800519a <HAL_I2C_Init+0x116>
 8005096:	687b      	ldr	r3, [r7, #4]
 8005098:	f893 3041 	ldrb.w	r3, [r3, #65]	; 0x41
 800509c:	b2db      	uxtb	r3, r3
 800509e:	2b00      	cmp	r3, #0
 80050a0:	d106      	bne.n	80050b0 <HAL_I2C_Init+0x2c>
 80050a2:	687b      	ldr	r3, [r7, #4]
 80050a4:	2200      	movs	r2, #0
 80050a6:	f883 2040 	strb.w	r2, [r3, #64]	; 0x40
 80050aa:	6878      	ldr	r0, [r7, #4]
 80050ac:	f7fb ffb6 	bl	800101c <HAL_I2C_MspInit>
 80050b0:	687b      	ldr	r3, [r7, #4]
 80050b2:	2224      	movs	r2, #36	; 0x24
 80050b4:	f883 2041 	strb.w	r2, [r3, #65]	; 0x41
 80050b8:	687b      	ldr	r3, [r7, #4]
 80050ba:	681b      	ldr	r3, [r3, #0]
 80050bc:	681a      	ldr	r2, [r3, #0]
 80050be:	687b      	ldr	r3, [r7, #4]
 80050c0:	681b      	ldr	r3, [r3, #0]
 80050c2:	f022 0201 	bic.w	r2, r2, #1
 80050c6:	601a      	str	r2, [r3, #0]
 80050c8:	687b      	ldr	r3, [r7, #4]
 80050ca:	685a      	ldr	r2, [r3, #4]
 80050cc:	687b      	ldr	r3, [r7, #4]
 80050ce:	681b      	ldr	r3, [r3, #0]
 80050d0:	f022 6270 	bic.w	r2, r2, #251658240	; 0xf000000
 80050d4:	611a      	str	r2, [r3, #16]
 80050d6:	687b      	ldr	r3, [r7, #4]
 80050d8:	681b      	ldr	r3, [r3, #0]
 80050da:	689a      	ldr	r2, [r3, #8]
 80050dc:	687b      	ldr	r3, [r7, #4]
 80050de:	681b      	ldr	r3, [r3, #0]
 80050e0:	f422 4200 	bic.w	r2, r2, #32768	; 0x8000
 80050e4:	609a      	str	r2, [r3, #8]
 80050e6:	687b      	ldr	r3, [r7, #4]
 80050e8:	68db      	ldr	r3, [r3, #12]
 80050ea:	2b01      	cmp	r3, #1
 80050ec:	d107      	bne.n	80050fe <HAL_I2C_Init+0x7a>
 80050ee:	687b      	ldr	r3, [r7, #4]
 80050f0:	689a      	ldr	r2, [r3, #8]
 80050f2:	687b      	ldr	r3, [r7, #4]
 80050f4:	681b      	ldr	r3, [r3, #0]
 80050f6:	f442 4200 	orr.w	r2, r2, #32768	; 0x8000
 80050fa:	609a      	str	r2, [r3, #8]
 80050fc:	e006      	b.n	800510c <HAL_I2C_Init+0x88>
 80050fe:	687b      	ldr	r3, [r7, #4]
 8005100:	689a      	ldr	r2, [r3, #8]
 8005102:	687b      	ldr	r3, [r7, #4]
 8005104:	681b      	ldr	r3, [r3, #0]
 8005106:	f442 4204 	orr.w	r2, r2, #33792	; 0x8400
 800510a:	609a      	str	r2, [r3, #8]
 800510c:	687b      	ldr	r3, [r7, #4]
 800510e:	68db      	ldr	r3, [r3, #12]
 8005110:	2b02      	cmp	r3, #2
 8005112:	d104      	bne.n	800511e <HAL_I2C_Init+0x9a>
 8005114:	687b      	ldr	r3, [r7, #4]
 8005116:	681b      	ldr	r3, [r3, #0]
 8005118:	f44f 6200 	mov.w	r2, #2048	; 0x800
 800511c:	605a      	str	r2, [r3, #4]
 800511e:	687b      	ldr	r3, [r7, #4]
 8005120:	681b      	ldr	r3, [r3, #0]
 8005122:	685b      	ldr	r3, [r3, #4]
 8005124:	687a      	ldr	r2, [r7, #4]
 8005126:	6812      	ldr	r2, [r2, #0]
 8005128:	f043 7300 	orr.w	r3, r3, #33554432	; 0x2000000
 800512c:	f443 4300 	orr.w	r3, r3, #32768	; 0x8000
 8005130:	6053      	str	r3, [r2, #4]
 8005132:	687b      	ldr	r3, [r7, #4]
 8005134:	681b      	ldr	r3, [r3, #0]
 8005136:	68da      	ldr	r2, [r3, #12]
 8005138:	687b      	ldr	r3, [r7, #4]
 800513a:	681b      	ldr	r3, [r3, #0]
 800513c:	f422 4200 	bic.w	r2, r2, #32768	; 0x8000
 8005140:	60da      	str	r2, [r3, #12]
 8005142:	687b      	ldr	r3, [r7, #4]
 8005144:	691a      	ldr	r2, [r3, #16]
 8005146:	687b      	ldr	r3, [r7, #4]
 8005148:	695b      	ldr	r3, [r3, #20]
 800514a:	ea42 0103 	orr.w	r1, r2, r3
 800514e:	687b      	ldr	r3, [r7, #4]
 8005150:	699b      	ldr	r3, [r3, #24]
 8005152:	021a      	lsls	r2, r3, #8
 8005154:	687b      	ldr	r3, [r7, #4]
 8005156:	681b      	ldr	r3, [r3, #0]
 8005158:	430a      	orrs	r2, r1
 800515a:	60da      	str	r2, [r3, #12]
 800515c:	687b      	ldr	r3, [r7, #4]
 800515e:	69d9      	ldr	r1, [r3, #28]
 8005160:	687b      	ldr	r3, [r7, #4]
 8005162:	6a1a      	ldr	r2, [r3, #32]
 8005164:	687b      	ldr	r3, [r7, #4]
 8005166:	681b      	ldr	r3, [r3, #0]
 8005168:	430a      	orrs	r2, r1
 800516a:	601a      	str	r2, [r3, #0]
 800516c:	687b      	ldr	r3, [r7, #4]
 800516e:	681b      	ldr	r3, [r3, #0]
 8005170:	681a      	ldr	r2, [r3, #0]
 8005172:	687b      	ldr	r3, [r7, #4]
 8005174:	681b      	ldr	r3, [r3, #0]
 8005176:	f042 0201 	orr.w	r2, r2, #1
 800517a:	601a      	str	r2, [r3, #0]
 800517c:	687b      	ldr	r3, [r7, #4]
 800517e:	2200      	movs	r2, #0
 8005180:	645a      	str	r2, [r3, #68]	; 0x44
 8005182:	687b      	ldr	r3, [r7, #4]
 8005184:	2220      	movs	r2, #32
 8005186:	f883 2041 	strb.w	r2, [r3, #65]	; 0x41
 800518a:	687b      	ldr	r3, [r7, #4]
 800518c:	2200      	movs	r2, #0
 800518e:	631a      	str	r2, [r3, #48]	; 0x30
 8005190:	687b      	ldr	r3, [r7, #4]
 8005192:	2200      	movs	r2, #0
 8005194:	f883 2042 	strb.w	r2, [r3, #66]	; 0x42
 8005198:	2300      	movs	r3, #0
 800519a:	4618      	mov	r0, r3
 800519c:	3708      	adds	r7, #8
 800519e:	46bd      	mov	sp, r7
 80051a0:	bd80      	pop	{r7, pc}

080051a2 <HAL_I2CEx_ConfigAnalogFilter>:
 80051a2:	b480      	push	{r7}
 80051a4:	b083      	sub	sp, #12
 80051a6:	af00      	add	r7, sp, #0
 80051a8:	6078      	str	r0, [r7, #4]
 80051aa:	6039      	str	r1, [r7, #0]
 80051ac:	687b      	ldr	r3, [r7, #4]
 80051ae:	f893 3041 	ldrb.w	r3, [r3, #65]	; 0x41
 80051b2:	b2db      	uxtb	r3, r3
 80051b4:	2b20      	cmp	r3, #32
 80051b6:	d138      	bne.n	800522a <HAL_I2CEx_ConfigAnalogFilter+0x88>
 80051b8:	687b      	ldr	r3, [r7, #4]
 80051ba:	f893 3040 	ldrb.w	r3, [r3, #64]	; 0x40
 80051be:	2b01      	cmp	r3, #1
 80051c0:	d101      	bne.n	80051c6 <HAL_I2CEx_ConfigAnalogFilter+0x24>
 80051c2:	2302      	movs	r3, #2
 80051c4:	e032      	b.n	800522c <HAL_I2CEx_ConfigAnalogFilter+0x8a>
 80051c6:	687b      	ldr	r3, [r7, #4]
 80051c8:	2201      	movs	r2, #1
 80051ca:	f883 2040 	strb.w	r2, [r3, #64]	; 0x40
 80051ce:	687b      	ldr	r3, [r7, #4]
 80051d0:	2224      	movs	r2, #36	; 0x24
 80051d2:	f883 2041 	strb.w	r2, [r3, #65]	; 0x41
 80051d6:	687b      	ldr	r3, [r7, #4]
 80051d8:	681b      	ldr	r3, [r3, #0]
 80051da:	681a      	ldr	r2, [r3, #0]
 80051dc:	687b      	ldr	r3, [r7, #4]
 80051de:	681b      	ldr	r3, [r3, #0]
 80051e0:	f022 0201 	bic.w	r2, r2, #1
 80051e4:	601a      	str	r2, [r3, #0]
 80051e6:	687b      	ldr	r3, [r7, #4]
 80051e8:	681b      	ldr	r3, [r3, #0]
 80051ea:	681a      	ldr	r2, [r3, #0]
 80051ec:	687b      	ldr	r3, [r7, #4]
 80051ee:	681b      	ldr	r3, [r3, #0]
 80051f0:	f422 5280 	bic.w	r2, r2, #4096	; 0x1000
 80051f4:	601a      	str	r2, [r3, #0]
 80051f6:	687b      	ldr	r3, [r7, #4]
 80051f8:	681b      	ldr	r3, [r3, #0]
 80051fa:	6819      	ldr	r1, [r3, #0]
 80051fc:	687b      	ldr	r3, [r7, #4]
 80051fe:	681b      	ldr	r3, [r3, #0]
 8005200:	683a      	ldr	r2, [r7, #0]
 8005202:	430a      	orrs	r2, r1
 8005204:	601a      	str	r2, [r3, #0]
 8005206:	687b      	ldr	r3, [r7, #4]
 8005208:	681b      	ldr	r3, [r3, #0]
 800520a:	681a      	ldr	r2, [r3, #0]
 800520c:	687b      	ldr	r3, [r7, #4]
 800520e:	681b      	ldr	r3, [r3, #0]
 8005210:	f042 0201 	orr.w	r2, r2, #1
 8005214:	601a      	str	r2, [r3, #0]
 8005216:	687b      	ldr	r3, [r7, #4]
 8005218:	2220      	movs	r2, #32
 800521a:	f883 2041 	strb.w	r2, [r3, #65]	; 0x41
 800521e:	687b      	ldr	r3, [r7, #4]
 8005220:	2200      	movs	r2, #0
 8005222:	f883 2040 	strb.w	r2, [r3, #64]	; 0x40
 8005226:	2300      	movs	r3, #0
 8005228:	e000      	b.n	800522c <HAL_I2CEx_ConfigAnalogFilter+0x8a>
 800522a:	2302      	movs	r3, #2
 800522c:	4618      	mov	r0, r3
 800522e:	370c      	adds	r7, #12
 8005230:	46bd      	mov	sp, r7
 8005232:	f85d 7b04 	ldr.w	r7, [sp], #4
 8005236:	4770      	bx	lr

08005238 <HAL_I2CEx_ConfigDigitalFilter>:
 8005238:	b480      	push	{r7}
 800523a:	b085      	sub	sp, #20
 800523c:	af00      	add	r7, sp, #0
 800523e:	6078      	str	r0, [r7, #4]
 8005240:	6039      	str	r1, [r7, #0]
 8005242:	687b      	ldr	r3, [r7, #4]
 8005244:	f893 3041 	ldrb.w	r3, [r3, #65]	; 0x41
 8005248:	b2db      	uxtb	r3, r3
 800524a:	2b20      	cmp	r3, #32
 800524c:	d139      	bne.n	80052c2 <HAL_I2CEx_ConfigDigitalFilter+0x8a>
 800524e:	687b      	ldr	r3, [r7, #4]
 8005250:	f893 3040 	ldrb.w	r3, [r3, #64]	; 0x40
 8005254:	2b01      	cmp	r3, #1
 8005256:	d101      	bne.n	800525c <HAL_I2CEx_ConfigDigitalFilter+0x24>
 8005258:	2302      	movs	r3, #2
 800525a:	e033      	b.n	80052c4 <HAL_I2CEx_ConfigDigitalFilter+0x8c>
 800525c:	687b      	ldr	r3, [r7, #4]
 800525e:	2201      	movs	r2, #1
 8005260:	f883 2040 	strb.w	r2, [r3, #64]	; 0x40
 8005264:	687b      	ldr	r3, [r7, #4]
 8005266:	2224      	movs	r2, #36	; 0x24
 8005268:	f883 2041 	strb.w	r2, [r3, #65]	; 0x41
 800526c:	687b      	ldr	r3, [r7, #4]
 800526e:	681b      	ldr	r3, [r3, #0]
 8005270:	681a      	ldr	r2, [r3, #0]
 8005272:	687b      	ldr	r3, [r7, #4]
 8005274:	681b      	ldr	r3, [r3, #0]
 8005276:	f022 0201 	bic.w	r2, r2, #1
 800527a:	601a      	str	r2, [r3, #0]
 800527c:	687b      	ldr	r3, [r7, #4]
 800527e:	681b      	ldr	r3, [r3, #0]
 8005280:	681b      	ldr	r3, [r3, #0]
 8005282:	60fb      	str	r3, [r7, #12]
 8005284:	68fb      	ldr	r3, [r7, #12]
 8005286:	f423 6370 	bic.w	r3, r3, #3840	; 0xf00
 800528a:	60fb      	str	r3, [r7, #12]
 800528c:	683b      	ldr	r3, [r7, #0]
 800528e:	021b      	lsls	r3, r3, #8
 8005290:	68fa      	ldr	r2, [r7, #12]
 8005292:	4313      	orrs	r3, r2
 8005294:	60fb      	str	r3, [r7, #12]
 8005296:	687b      	ldr	r3, [r7, #4]
 8005298:	681b      	ldr	r3, [r3, #0]
 800529a:	68fa      	ldr	r2, [r7, #12]
 800529c:	601a      	str	r2, [r3, #0]
 800529e:	687b      	ldr	r3, [r7, #4]
 80052a0:	681b      	ldr	r3, [r3, #0]
 80052a2:	681a      	ldr	r2, [r3, #0]
 80052a4:	687b      	ldr	r3, [r7, #4]
 80052a6:	681b      	ldr	r3, [r3, #0]
 80052a8:	f042 0201 	orr.w	r2, r2, #1
 80052ac:	601a      	str	r2, [r3, #0]
 80052ae:	687b      	ldr	r3, [r7, #4]
 80052b0:	2220      	movs	r2, #32
 80052b2:	f883 2041 	strb.w	r2, [r3, #65]	; 0x41
 80052b6:	687b      	ldr	r3, [r7, #4]
 80052b8:	2200      	movs	r2, #0
 80052ba:	f883 2040 	strb.w	r2, [r3, #64]	; 0x40
 80052be:	2300      	movs	r3, #0
 80052c0:	e000      	b.n	80052c4 <HAL_I2CEx_ConfigDigitalFilter+0x8c>
 80052c2:	2302      	movs	r3, #2
 80052c4:	4618      	mov	r0, r3
 80052c6:	3714      	adds	r7, #20
 80052c8:	46bd      	mov	sp, r7
 80052ca:	f85d 7b04 	ldr.w	r7, [sp], #4
 80052ce:	4770      	bx	lr

080052d0 <HAL_LCD_Init>:
 80052d0:	b580      	push	{r7, lr}
 80052d2:	b086      	sub	sp, #24
 80052d4:	af00      	add	r7, sp, #0
 80052d6:	6078      	str	r0, [r7, #4]
 80052d8:	687b      	ldr	r3, [r7, #4]
 80052da:	2b00      	cmp	r3, #0
 80052dc:	d101      	bne.n	80052e2 <HAL_LCD_Init+0x12>
 80052de:	2301      	movs	r3, #1
 80052e0:	e0af      	b.n	8005442 <HAL_LCD_Init+0x172>
 80052e2:	687b      	ldr	r3, [r7, #4]
 80052e4:	f893 3035 	ldrb.w	r3, [r3, #53]	; 0x35
 80052e8:	b2db      	uxtb	r3, r3
 80052ea:	2b00      	cmp	r3, #0
 80052ec:	d106      	bne.n	80052fc <HAL_LCD_Init+0x2c>
 80052ee:	687b      	ldr	r3, [r7, #4]
 80052f0:	2200      	movs	r2, #0
 80052f2:	f883 2034 	strb.w	r2, [r3, #52]	; 0x34
 80052f6:	6878      	ldr	r0, [r7, #4]
 80052f8:	f7fb ff04 	bl	8001104 <HAL_LCD_MspInit>
 80052fc:	687b      	ldr	r3, [r7, #4]
 80052fe:	2202      	movs	r2, #2
 8005300:	f883 2035 	strb.w	r2, [r3, #53]	; 0x35
 8005304:	687b      	ldr	r3, [r7, #4]
 8005306:	681b      	ldr	r3, [r3, #0]
 8005308:	681a      	ldr	r2, [r3, #0]
 800530a:	687b      	ldr	r3, [r7, #4]
 800530c:	681b      	ldr	r3, [r3, #0]
 800530e:	f022 0201 	bic.w	r2, r2, #1
 8005312:	601a      	str	r2, [r3, #0]
 8005314:	2300      	movs	r3, #0
 8005316:	617b      	str	r3, [r7, #20]
 8005318:	e00a      	b.n	8005330 <HAL_LCD_Init+0x60>
 800531a:	687b      	ldr	r3, [r7, #4]
 800531c:	681a      	ldr	r2, [r3, #0]
 800531e:	697b      	ldr	r3, [r7, #20]
 8005320:	3304      	adds	r3, #4
 8005322:	009b      	lsls	r3, r3, #2
 8005324:	4413      	add	r3, r2
 8005326:	2200      	movs	r2, #0
 8005328:	605a      	str	r2, [r3, #4]
 800532a:	697b      	ldr	r3, [r7, #20]
 800532c:	3301      	adds	r3, #1
 800532e:	617b      	str	r3, [r7, #20]
 8005330:	697b      	ldr	r3, [r7, #20]
 8005332:	2b0f      	cmp	r3, #15
 8005334:	d9f1      	bls.n	800531a <HAL_LCD_Init+0x4a>
 8005336:	687b      	ldr	r3, [r7, #4]
 8005338:	681b      	ldr	r3, [r3, #0]
 800533a:	689a      	ldr	r2, [r3, #8]
 800533c:	687b      	ldr	r3, [r7, #4]
 800533e:	681b      	ldr	r3, [r3, #0]
 8005340:	f042 0204 	orr.w	r2, r2, #4
 8005344:	609a      	str	r2, [r3, #8]
 8005346:	687b      	ldr	r3, [r7, #4]
 8005348:	681b      	ldr	r3, [r3, #0]
 800534a:	685a      	ldr	r2, [r3, #4]
 800534c:	4b3f      	ldr	r3, [pc, #252]	; (800544c <HAL_LCD_Init+0x17c>)
 800534e:	4013      	ands	r3, r2
 8005350:	687a      	ldr	r2, [r7, #4]
 8005352:	6851      	ldr	r1, [r2, #4]
 8005354:	687a      	ldr	r2, [r7, #4]
 8005356:	6892      	ldr	r2, [r2, #8]
 8005358:	4311      	orrs	r1, r2
 800535a:	687a      	ldr	r2, [r7, #4]
 800535c:	6a92      	ldr	r2, [r2, #40]	; 0x28
 800535e:	4311      	orrs	r1, r2
 8005360:	687a      	ldr	r2, [r7, #4]
 8005362:	6ad2      	ldr	r2, [r2, #44]	; 0x2c
 8005364:	4311      	orrs	r1, r2
 8005366:	687a      	ldr	r2, [r7, #4]
 8005368:	69d2      	ldr	r2, [r2, #28]
 800536a:	4311      	orrs	r1, r2
 800536c:	687a      	ldr	r2, [r7, #4]
 800536e:	6a12      	ldr	r2, [r2, #32]
 8005370:	4311      	orrs	r1, r2
 8005372:	687a      	ldr	r2, [r7, #4]
 8005374:	6992      	ldr	r2, [r2, #24]
 8005376:	4311      	orrs	r1, r2
 8005378:	687a      	ldr	r2, [r7, #4]
 800537a:	6a52      	ldr	r2, [r2, #36]	; 0x24
 800537c:	4311      	orrs	r1, r2
 800537e:	687a      	ldr	r2, [r7, #4]
 8005380:	6812      	ldr	r2, [r2, #0]
 8005382:	430b      	orrs	r3, r1
 8005384:	6053      	str	r3, [r2, #4]
 8005386:	6878      	ldr	r0, [r7, #4]
 8005388:	f000 f862 	bl	8005450 <LCD_WaitForSynchro>
 800538c:	4603      	mov	r3, r0
 800538e:	74fb      	strb	r3, [r7, #19]
 8005390:	7cfb      	ldrb	r3, [r7, #19]
 8005392:	2b00      	cmp	r3, #0
 8005394:	d001      	beq.n	800539a <HAL_LCD_Init+0xca>
 8005396:	7cfb      	ldrb	r3, [r7, #19]
 8005398:	e053      	b.n	8005442 <HAL_LCD_Init+0x172>
 800539a:	687b      	ldr	r3, [r7, #4]
 800539c:	681b      	ldr	r3, [r3, #0]
 800539e:	681b      	ldr	r3, [r3, #0]
 80053a0:	f023 01fe 	bic.w	r1, r3, #254	; 0xfe
 80053a4:	687b      	ldr	r3, [r7, #4]
 80053a6:	68da      	ldr	r2, [r3, #12]
 80053a8:	687b      	ldr	r3, [r7, #4]
 80053aa:	691b      	ldr	r3, [r3, #16]
 80053ac:	431a      	orrs	r2, r3
 80053ae:	687b      	ldr	r3, [r7, #4]
 80053b0:	695b      	ldr	r3, [r3, #20]
 80053b2:	431a      	orrs	r2, r3
 80053b4:	687b      	ldr	r3, [r7, #4]
 80053b6:	6b1b      	ldr	r3, [r3, #48]	; 0x30
 80053b8:	431a      	orrs	r2, r3
 80053ba:	687b      	ldr	r3, [r7, #4]
 80053bc:	681b      	ldr	r3, [r3, #0]
 80053be:	430a      	orrs	r2, r1
 80053c0:	601a      	str	r2, [r3, #0]
 80053c2:	687b      	ldr	r3, [r7, #4]
 80053c4:	681b      	ldr	r3, [r3, #0]
 80053c6:	681a      	ldr	r2, [r3, #0]
 80053c8:	687b      	ldr	r3, [r7, #4]
 80053ca:	681b      	ldr	r3, [r3, #0]
 80053cc:	f042 0201 	orr.w	r2, r2, #1
 80053d0:	601a      	str	r2, [r3, #0]
 80053d2:	f7fc f9dd 	bl	8001790 <HAL_GetTick>
 80053d6:	60f8      	str	r0, [r7, #12]
 80053d8:	e00c      	b.n	80053f4 <HAL_LCD_Init+0x124>
 80053da:	f7fc f9d9 	bl	8001790 <HAL_GetTick>
 80053de:	4602      	mov	r2, r0
 80053e0:	68fb      	ldr	r3, [r7, #12]
 80053e2:	1ad3      	subs	r3, r2, r3
 80053e4:	f5b3 7f7a 	cmp.w	r3, #1000	; 0x3e8
 80053e8:	d904      	bls.n	80053f4 <HAL_LCD_Init+0x124>
 80053ea:	687b      	ldr	r3, [r7, #4]
 80053ec:	2208      	movs	r2, #8
 80053ee:	639a      	str	r2, [r3, #56]	; 0x38
 80053f0:	2303      	movs	r3, #3
 80053f2:	e026      	b.n	8005442 <HAL_LCD_Init+0x172>
 80053f4:	687b      	ldr	r3, [r7, #4]
 80053f6:	681b      	ldr	r3, [r3, #0]
 80053f8:	689b      	ldr	r3, [r3, #8]
 80053fa:	f003 0301 	and.w	r3, r3, #1
 80053fe:	2b01      	cmp	r3, #1
 8005400:	d1eb      	bne.n	80053da <HAL_LCD_Init+0x10a>
 8005402:	f7fc f9c5 	bl	8001790 <HAL_GetTick>
 8005406:	60f8      	str	r0, [r7, #12]
 8005408:	e00c      	b.n	8005424 <HAL_LCD_Init+0x154>
 800540a:	f7fc f9c1 	bl	8001790 <HAL_GetTick>
 800540e:	4602      	mov	r2, r0
 8005410:	68fb      	ldr	r3, [r7, #12]
 8005412:	1ad3      	subs	r3, r2, r3
 8005414:	f5b3 7f7a 	cmp.w	r3, #1000	; 0x3e8
 8005418:	d904      	bls.n	8005424 <HAL_LCD_Init+0x154>
 800541a:	687b      	ldr	r3, [r7, #4]
 800541c:	2210      	movs	r2, #16
 800541e:	639a      	str	r2, [r3, #56]	; 0x38
 8005420:	2303      	movs	r3, #3
 8005422:	e00e      	b.n	8005442 <HAL_LCD_Init+0x172>
 8005424:	687b      	ldr	r3, [r7, #4]
 8005426:	681b      	ldr	r3, [r3, #0]
 8005428:	689b      	ldr	r3, [r3, #8]
 800542a:	f003 0310 	and.w	r3, r3, #16
 800542e:	2b10      	cmp	r3, #16
 8005430:	d1eb      	bne.n	800540a <HAL_LCD_Init+0x13a>
 8005432:	687b      	ldr	r3, [r7, #4]
 8005434:	2200      	movs	r2, #0
 8005436:	639a      	str	r2, [r3, #56]	; 0x38
 8005438:	687b      	ldr	r3, [r7, #4]
 800543a:	2201      	movs	r2, #1
 800543c:	f883 2035 	strb.w	r2, [r3, #53]	; 0x35
 8005440:	7cfb      	ldrb	r3, [r7, #19]
 8005442:	4618      	mov	r0, r3
 8005444:	3718      	adds	r7, #24
 8005446:	46bd      	mov	sp, r7
 8005448:	bd80      	pop	{r7, pc}
 800544a:	bf00      	nop
 800544c:	fc00000e 	.word	0xfc00000e

08005450 <LCD_WaitForSynchro>:
 8005450:	b580      	push	{r7, lr}
 8005452:	b084      	sub	sp, #16
 8005454:	af00      	add	r7, sp, #0
 8005456:	6078      	str	r0, [r7, #4]
 8005458:	f7fc f99a 	bl	8001790 <HAL_GetTick>
 800545c:	60f8      	str	r0, [r7, #12]
 800545e:	e00c      	b.n	800547a <LCD_WaitForSynchro+0x2a>
 8005460:	f7fc f996 	bl	8001790 <HAL_GetTick>
 8005464:	4602      	mov	r2, r0
 8005466:	68fb      	ldr	r3, [r7, #12]
 8005468:	1ad3      	subs	r3, r2, r3
 800546a:	f5b3 7f7a 	cmp.w	r3, #1000	; 0x3e8
 800546e:	d904      	bls.n	800547a <LCD_WaitForSynchro+0x2a>
 8005470:	687b      	ldr	r3, [r7, #4]
 8005472:	2201      	movs	r2, #1
 8005474:	639a      	str	r2, [r3, #56]	; 0x38
 8005476:	2303      	movs	r3, #3
 8005478:	e007      	b.n	800548a <LCD_WaitForSynchro+0x3a>
 800547a:	687b      	ldr	r3, [r7, #4]
 800547c:	681b      	ldr	r3, [r3, #0]
 800547e:	689b      	ldr	r3, [r3, #8]
 8005480:	f003 0320 	and.w	r3, r3, #32
 8005484:	2b20      	cmp	r3, #32
 8005486:	d1eb      	bne.n	8005460 <LCD_WaitForSynchro+0x10>
 8005488:	2300      	movs	r3, #0
 800548a:	4618      	mov	r0, r3
 800548c:	3710      	adds	r7, #16
 800548e:	46bd      	mov	sp, r7
 8005490:	bd80      	pop	{r7, pc}
	...

08005494 <HAL_PWR_EnableBkUpAccess>:
 8005494:	b480      	push	{r7}
 8005496:	af00      	add	r7, sp, #0
 8005498:	4b05      	ldr	r3, [pc, #20]	; (80054b0 <HAL_PWR_EnableBkUpAccess+0x1c>)
 800549a:	681b      	ldr	r3, [r3, #0]
 800549c:	4a04      	ldr	r2, [pc, #16]	; (80054b0 <HAL_PWR_EnableBkUpAccess+0x1c>)
 800549e:	f443 7380 	orr.w	r3, r3, #256	; 0x100
 80054a2:	6013      	str	r3, [r2, #0]
 80054a4:	bf00      	nop
 80054a6:	46bd      	mov	sp, r7
 80054a8:	f85d 7b04 	ldr.w	r7, [sp], #4
 80054ac:	4770      	bx	lr
 80054ae:	bf00      	nop
 80054b0:	40007000 	.word	0x40007000

080054b4 <HAL_PWREx_GetVoltageRange>:
 80054b4:	b480      	push	{r7}
 80054b6:	af00      	add	r7, sp, #0
 80054b8:	4b04      	ldr	r3, [pc, #16]	; (80054cc <HAL_PWREx_GetVoltageRange+0x18>)
 80054ba:	681b      	ldr	r3, [r3, #0]
 80054bc:	f403 63c0 	and.w	r3, r3, #1536	; 0x600
 80054c0:	4618      	mov	r0, r3
 80054c2:	46bd      	mov	sp, r7
 80054c4:	f85d 7b04 	ldr.w	r7, [sp], #4
 80054c8:	4770      	bx	lr
 80054ca:	bf00      	nop
 80054cc:	40007000 	.word	0x40007000

080054d0 <HAL_PWREx_ControlVoltageScaling>:
 80054d0:	b480      	push	{r7}
 80054d2:	b085      	sub	sp, #20
 80054d4:	af00      	add	r7, sp, #0
 80054d6:	6078      	str	r0, [r7, #4]
 80054d8:	687b      	ldr	r3, [r7, #4]
 80054da:	f5b3 7f00 	cmp.w	r3, #512	; 0x200
 80054de:	d130      	bne.n	8005542 <HAL_PWREx_ControlVoltageScaling+0x72>
 80054e0:	4b23      	ldr	r3, [pc, #140]	; (8005570 <HAL_PWREx_ControlVoltageScaling+0xa0>)
 80054e2:	681b      	ldr	r3, [r3, #0]
 80054e4:	f403 63c0 	and.w	r3, r3, #1536	; 0x600
 80054e8:	f5b3 7f00 	cmp.w	r3, #512	; 0x200
 80054ec:	d038      	beq.n	8005560 <HAL_PWREx_ControlVoltageScaling+0x90>
 80054ee:	4b20      	ldr	r3, [pc, #128]	; (8005570 <HAL_PWREx_ControlVoltageScaling+0xa0>)
 80054f0:	681b      	ldr	r3, [r3, #0]
 80054f2:	f423 63c0 	bic.w	r3, r3, #1536	; 0x600
 80054f6:	4a1e      	ldr	r2, [pc, #120]	; (8005570 <HAL_PWREx_ControlVoltageScaling+0xa0>)
 80054f8:	f443 7300 	orr.w	r3, r3, #512	; 0x200
 80054fc:	6013      	str	r3, [r2, #0]
 80054fe:	4b1d      	ldr	r3, [pc, #116]	; (8005574 <HAL_PWREx_ControlVoltageScaling+0xa4>)
 8005500:	681b      	ldr	r3, [r3, #0]
 8005502:	2232      	movs	r2, #50	; 0x32
 8005504:	fb02 f303 	mul.w	r3, r2, r3
 8005508:	4a1b      	ldr	r2, [pc, #108]	; (8005578 <HAL_PWREx_ControlVoltageScaling+0xa8>)
 800550a:	fba2 2303 	umull	r2, r3, r2, r3
 800550e:	0c9b      	lsrs	r3, r3, #18
 8005510:	3301      	adds	r3, #1
 8005512:	60fb      	str	r3, [r7, #12]
 8005514:	e002      	b.n	800551c <HAL_PWREx_ControlVoltageScaling+0x4c>
 8005516:	68fb      	ldr	r3, [r7, #12]
 8005518:	3b01      	subs	r3, #1
 800551a:	60fb      	str	r3, [r7, #12]
 800551c:	4b14      	ldr	r3, [pc, #80]	; (8005570 <HAL_PWREx_ControlVoltageScaling+0xa0>)
 800551e:	695b      	ldr	r3, [r3, #20]
 8005520:	f403 6380 	and.w	r3, r3, #1024	; 0x400
 8005524:	f5b3 6f80 	cmp.w	r3, #1024	; 0x400
 8005528:	d102      	bne.n	8005530 <HAL_PWREx_ControlVoltageScaling+0x60>
 800552a:	68fb      	ldr	r3, [r7, #12]
 800552c:	2b00      	cmp	r3, #0
 800552e:	d1f2      	bne.n	8005516 <HAL_PWREx_ControlVoltageScaling+0x46>
 8005530:	4b0f      	ldr	r3, [pc, #60]	; (8005570 <HAL_PWREx_ControlVoltageScaling+0xa0>)
 8005532:	695b      	ldr	r3, [r3, #20]
 8005534:	f403 6380 	and.w	r3, r3, #1024	; 0x400
 8005538:	f5b3 6f80 	cmp.w	r3, #1024	; 0x400
 800553c:	d110      	bne.n	8005560 <HAL_PWREx_ControlVoltageScaling+0x90>
 800553e:	2303      	movs	r3, #3
 8005540:	e00f      	b.n	8005562 <HAL_PWREx_ControlVoltageScaling+0x92>
 8005542:	4b0b      	ldr	r3, [pc, #44]	; (8005570 <HAL_PWREx_ControlVoltageScaling+0xa0>)
 8005544:	681b      	ldr	r3, [r3, #0]
 8005546:	f403 63c0 	and.w	r3, r3, #1536	; 0x600
 800554a:	f5b3 6f80 	cmp.w	r3, #1024	; 0x400
 800554e:	d007      	beq.n	8005560 <HAL_PWREx_ControlVoltageScaling+0x90>
 8005550:	4b07      	ldr	r3, [pc, #28]	; (8005570 <HAL_PWREx_ControlVoltageScaling+0xa0>)
 8005552:	681b      	ldr	r3, [r3, #0]
 8005554:	f423 63c0 	bic.w	r3, r3, #1536	; 0x600
 8005558:	4a05      	ldr	r2, [pc, #20]	; (8005570 <HAL_PWREx_ControlVoltageScaling+0xa0>)
 800555a:	f443 6380 	orr.w	r3, r3, #1024	; 0x400
 800555e:	6013      	str	r3, [r2, #0]
 8005560:	2300      	movs	r3, #0
 8005562:	4618      	mov	r0, r3
 8005564:	3714      	adds	r7, #20
 8005566:	46bd      	mov	sp, r7
 8005568:	f85d 7b04 	ldr.w	r7, [sp], #4
 800556c:	4770      	bx	lr
 800556e:	bf00      	nop
 8005570:	40007000 	.word	0x40007000
 8005574:	20000000 	.word	0x20000000
 8005578:	431bde83 	.word	0x431bde83

0800557c <HAL_PWREx_EnableVddUSB>:
 800557c:	b480      	push	{r7}
 800557e:	af00      	add	r7, sp, #0
 8005580:	4b05      	ldr	r3, [pc, #20]	; (8005598 <HAL_PWREx_EnableVddUSB+0x1c>)
 8005582:	685b      	ldr	r3, [r3, #4]
 8005584:	4a04      	ldr	r2, [pc, #16]	; (8005598 <HAL_PWREx_EnableVddUSB+0x1c>)
 8005586:	f443 6380 	orr.w	r3, r3, #1024	; 0x400
 800558a:	6053      	str	r3, [r2, #4]
 800558c:	bf00      	nop
 800558e:	46bd      	mov	sp, r7
 8005590:	f85d 7b04 	ldr.w	r7, [sp], #4
 8005594:	4770      	bx	lr
 8005596:	bf00      	nop
 8005598:	40007000 	.word	0x40007000

0800559c <HAL_QSPI_Init>:
 800559c:	b580      	push	{r7, lr}
 800559e:	b086      	sub	sp, #24
 80055a0:	af02      	add	r7, sp, #8
 80055a2:	6078      	str	r0, [r7, #4]
 80055a4:	f7fc f8f4 	bl	8001790 <HAL_GetTick>
 80055a8:	60f8      	str	r0, [r7, #12]
 80055aa:	687b      	ldr	r3, [r7, #4]
 80055ac:	2b00      	cmp	r3, #0
 80055ae:	d101      	bne.n	80055b4 <HAL_QSPI_Init+0x18>
 80055b0:	2301      	movs	r3, #1
 80055b2:	e06f      	b.n	8005694 <HAL_QSPI_Init+0xf8>
 80055b4:	687b      	ldr	r3, [r7, #4]
 80055b6:	f893 3038 	ldrb.w	r3, [r3, #56]	; 0x38
 80055ba:	b2db      	uxtb	r3, r3
 80055bc:	2b01      	cmp	r3, #1
 80055be:	d101      	bne.n	80055c4 <HAL_QSPI_Init+0x28>
 80055c0:	2302      	movs	r3, #2
 80055c2:	e067      	b.n	8005694 <HAL_QSPI_Init+0xf8>
 80055c4:	687b      	ldr	r3, [r7, #4]
 80055c6:	2201      	movs	r2, #1
 80055c8:	f883 2038 	strb.w	r2, [r3, #56]	; 0x38
 80055cc:	687b      	ldr	r3, [r7, #4]
 80055ce:	f893 3039 	ldrb.w	r3, [r3, #57]	; 0x39
 80055d2:	b2db      	uxtb	r3, r3
 80055d4:	2b00      	cmp	r3, #0
 80055d6:	d10b      	bne.n	80055f0 <HAL_QSPI_Init+0x54>
 80055d8:	687b      	ldr	r3, [r7, #4]
 80055da:	2200      	movs	r2, #0
 80055dc:	f883 2038 	strb.w	r2, [r3, #56]	; 0x38
 80055e0:	6878      	ldr	r0, [r7, #4]
 80055e2:	f7fb fe31 	bl	8001248 <HAL_QSPI_MspInit>
 80055e6:	f241 3188 	movw	r1, #5000	; 0x1388
 80055ea:	6878      	ldr	r0, [r7, #4]
 80055ec:	f000 f858 	bl	80056a0 <HAL_QSPI_SetTimeout>
 80055f0:	687b      	ldr	r3, [r7, #4]
 80055f2:	681b      	ldr	r3, [r3, #0]
 80055f4:	681b      	ldr	r3, [r3, #0]
 80055f6:	f423 6170 	bic.w	r1, r3, #3840	; 0xf00
 80055fa:	687b      	ldr	r3, [r7, #4]
 80055fc:	689b      	ldr	r3, [r3, #8]
 80055fe:	3b01      	subs	r3, #1
 8005600:	021a      	lsls	r2, r3, #8
 8005602:	687b      	ldr	r3, [r7, #4]
 8005604:	681b      	ldr	r3, [r3, #0]
 8005606:	430a      	orrs	r2, r1
 8005608:	601a      	str	r2, [r3, #0]
 800560a:	687b      	ldr	r3, [r7, #4]
 800560c:	6c1b      	ldr	r3, [r3, #64]	; 0x40
 800560e:	9300      	str	r3, [sp, #0]
 8005610:	68fb      	ldr	r3, [r7, #12]
 8005612:	2200      	movs	r2, #0
 8005614:	2120      	movs	r1, #32
 8005616:	6878      	ldr	r0, [r7, #4]
 8005618:	f000 f850 	bl	80056bc <QSPI_WaitFlagStateUntilTimeout>
 800561c:	4603      	mov	r3, r0
 800561e:	72fb      	strb	r3, [r7, #11]
 8005620:	7afb      	ldrb	r3, [r7, #11]
 8005622:	2b00      	cmp	r3, #0
 8005624:	d131      	bne.n	800568a <HAL_QSPI_Init+0xee>
 8005626:	687b      	ldr	r3, [r7, #4]
 8005628:	681b      	ldr	r3, [r3, #0]
 800562a:	681b      	ldr	r3, [r3, #0]
 800562c:	f023 437f 	bic.w	r3, r3, #4278190080	; 0xff000000
 8005630:	f023 0310 	bic.w	r3, r3, #16
 8005634:	687a      	ldr	r2, [r7, #4]
 8005636:	6852      	ldr	r2, [r2, #4]
 8005638:	0611      	lsls	r1, r2, #24
 800563a:	687a      	ldr	r2, [r7, #4]
 800563c:	68d2      	ldr	r2, [r2, #12]
 800563e:	4311      	orrs	r1, r2
 8005640:	687a      	ldr	r2, [r7, #4]
 8005642:	6812      	ldr	r2, [r2, #0]
 8005644:	430b      	orrs	r3, r1
 8005646:	6013      	str	r3, [r2, #0]
 8005648:	687b      	ldr	r3, [r7, #4]
 800564a:	681b      	ldr	r3, [r3, #0]
 800564c:	685a      	ldr	r2, [r3, #4]
 800564e:	4b13      	ldr	r3, [pc, #76]	; (800569c <HAL_QSPI_Init+0x100>)
 8005650:	4013      	ands	r3, r2
 8005652:	687a      	ldr	r2, [r7, #4]
 8005654:	6912      	ldr	r2, [r2, #16]
 8005656:	0411      	lsls	r1, r2, #16
 8005658:	687a      	ldr	r2, [r7, #4]
 800565a:	6952      	ldr	r2, [r2, #20]
 800565c:	4311      	orrs	r1, r2
 800565e:	687a      	ldr	r2, [r7, #4]
 8005660:	6992      	ldr	r2, [r2, #24]
 8005662:	4311      	orrs	r1, r2
 8005664:	687a      	ldr	r2, [r7, #4]
 8005666:	6812      	ldr	r2, [r2, #0]
 8005668:	430b      	orrs	r3, r1
 800566a:	6053      	str	r3, [r2, #4]
 800566c:	687b      	ldr	r3, [r7, #4]
 800566e:	681b      	ldr	r3, [r3, #0]
 8005670:	681a      	ldr	r2, [r3, #0]
 8005672:	687b      	ldr	r3, [r7, #4]
 8005674:	681b      	ldr	r3, [r3, #0]
 8005676:	f042 0201 	orr.w	r2, r2, #1
 800567a:	601a      	str	r2, [r3, #0]
 800567c:	687b      	ldr	r3, [r7, #4]
 800567e:	2200      	movs	r2, #0
 8005680:	63da      	str	r2, [r3, #60]	; 0x3c
 8005682:	687b      	ldr	r3, [r7, #4]
 8005684:	2201      	movs	r2, #1
 8005686:	f883 2039 	strb.w	r2, [r3, #57]	; 0x39
 800568a:	687b      	ldr	r3, [r7, #4]
 800568c:	2200      	movs	r2, #0
 800568e:	f883 2038 	strb.w	r2, [r3, #56]	; 0x38
 8005692:	7afb      	ldrb	r3, [r7, #11]
 8005694:	4618      	mov	r0, r3
 8005696:	3710      	adds	r7, #16
 8005698:	46bd      	mov	sp, r7
 800569a:	bd80      	pop	{r7, pc}
 800569c:	ffe0f8fe 	.word	0xffe0f8fe

080056a0 <HAL_QSPI_SetTimeout>:
 80056a0:	b480      	push	{r7}
 80056a2:	b083      	sub	sp, #12
 80056a4:	af00      	add	r7, sp, #0
 80056a6:	6078      	str	r0, [r7, #4]
 80056a8:	6039      	str	r1, [r7, #0]
 80056aa:	687b      	ldr	r3, [r7, #4]
 80056ac:	683a      	ldr	r2, [r7, #0]
 80056ae:	641a      	str	r2, [r3, #64]	; 0x40
 80056b0:	bf00      	nop
 80056b2:	370c      	adds	r7, #12
 80056b4:	46bd      	mov	sp, r7
 80056b6:	f85d 7b04 	ldr.w	r7, [sp], #4
 80056ba:	4770      	bx	lr

080056bc <QSPI_WaitFlagStateUntilTimeout>:
 80056bc:	b580      	push	{r7, lr}
 80056be:	b084      	sub	sp, #16
 80056c0:	af00      	add	r7, sp, #0
 80056c2:	60f8      	str	r0, [r7, #12]
 80056c4:	60b9      	str	r1, [r7, #8]
 80056c6:	603b      	str	r3, [r7, #0]
 80056c8:	4613      	mov	r3, r2
 80056ca:	71fb      	strb	r3, [r7, #7]
 80056cc:	e01a      	b.n	8005704 <QSPI_WaitFlagStateUntilTimeout+0x48>
 80056ce:	69bb      	ldr	r3, [r7, #24]
 80056d0:	f1b3 3fff 	cmp.w	r3, #4294967295
 80056d4:	d016      	beq.n	8005704 <QSPI_WaitFlagStateUntilTimeout+0x48>
 80056d6:	f7fc f85b 	bl	8001790 <HAL_GetTick>
 80056da:	4602      	mov	r2, r0
 80056dc:	683b      	ldr	r3, [r7, #0]
 80056de:	1ad3      	subs	r3, r2, r3
 80056e0:	69ba      	ldr	r2, [r7, #24]
 80056e2:	429a      	cmp	r2, r3
 80056e4:	d302      	bcc.n	80056ec <QSPI_WaitFlagStateUntilTimeout+0x30>
 80056e6:	69bb      	ldr	r3, [r7, #24]
 80056e8:	2b00      	cmp	r3, #0
 80056ea:	d10b      	bne.n	8005704 <QSPI_WaitFlagStateUntilTimeout+0x48>
 80056ec:	68fb      	ldr	r3, [r7, #12]
 80056ee:	2204      	movs	r2, #4
 80056f0:	f883 2039 	strb.w	r2, [r3, #57]	; 0x39
 80056f4:	68fb      	ldr	r3, [r7, #12]
 80056f6:	6bdb      	ldr	r3, [r3, #60]	; 0x3c
 80056f8:	f043 0201 	orr.w	r2, r3, #1
 80056fc:	68fb      	ldr	r3, [r7, #12]
 80056fe:	63da      	str	r2, [r3, #60]	; 0x3c
 8005700:	2301      	movs	r3, #1
 8005702:	e00e      	b.n	8005722 <QSPI_WaitFlagStateUntilTimeout+0x66>
 8005704:	68fb      	ldr	r3, [r7, #12]
 8005706:	681b      	ldr	r3, [r3, #0]
 8005708:	689a      	ldr	r2, [r3, #8]
 800570a:	68bb      	ldr	r3, [r7, #8]
 800570c:	4013      	ands	r3, r2
 800570e:	2b00      	cmp	r3, #0
 8005710:	bf14      	ite	ne
 8005712:	2301      	movne	r3, #1
 8005714:	2300      	moveq	r3, #0
 8005716:	b2db      	uxtb	r3, r3
 8005718:	461a      	mov	r2, r3
 800571a:	79fb      	ldrb	r3, [r7, #7]
 800571c:	429a      	cmp	r2, r3
 800571e:	d1d6      	bne.n	80056ce <QSPI_WaitFlagStateUntilTimeout+0x12>
 8005720:	2300      	movs	r3, #0
 8005722:	4618      	mov	r0, r3
 8005724:	3710      	adds	r7, #16
 8005726:	46bd      	mov	sp, r7
 8005728:	bd80      	pop	{r7, pc}
	...

0800572c <HAL_RCC_OscConfig>:
 800572c:	b580      	push	{r7, lr}
 800572e:	b088      	sub	sp, #32
 8005730:	af00      	add	r7, sp, #0
 8005732:	6078      	str	r0, [r7, #4]
 8005734:	687b      	ldr	r3, [r7, #4]
 8005736:	2b00      	cmp	r3, #0
 8005738:	d101      	bne.n	800573e <HAL_RCC_OscConfig+0x12>
 800573a:	2301      	movs	r3, #1
 800573c:	e39d      	b.n	8005e7a <HAL_RCC_OscConfig+0x74e>
 800573e:	4ba4      	ldr	r3, [pc, #656]	; (80059d0 <HAL_RCC_OscConfig+0x2a4>)
 8005740:	689b      	ldr	r3, [r3, #8]
 8005742:	f003 030c 	and.w	r3, r3, #12
 8005746:	61bb      	str	r3, [r7, #24]
 8005748:	4ba1      	ldr	r3, [pc, #644]	; (80059d0 <HAL_RCC_OscConfig+0x2a4>)
 800574a:	68db      	ldr	r3, [r3, #12]
 800574c:	f003 0303 	and.w	r3, r3, #3
 8005750:	617b      	str	r3, [r7, #20]
 8005752:	687b      	ldr	r3, [r7, #4]
 8005754:	681b      	ldr	r3, [r3, #0]
 8005756:	f003 0310 	and.w	r3, r3, #16
 800575a:	2b00      	cmp	r3, #0
 800575c:	f000 80e1 	beq.w	8005922 <HAL_RCC_OscConfig+0x1f6>
 8005760:	69bb      	ldr	r3, [r7, #24]
 8005762:	2b00      	cmp	r3, #0
 8005764:	d007      	beq.n	8005776 <HAL_RCC_OscConfig+0x4a>
 8005766:	69bb      	ldr	r3, [r7, #24]
 8005768:	2b0c      	cmp	r3, #12
 800576a:	f040 8088 	bne.w	800587e <HAL_RCC_OscConfig+0x152>
 800576e:	697b      	ldr	r3, [r7, #20]
 8005770:	2b01      	cmp	r3, #1
 8005772:	f040 8084 	bne.w	800587e <HAL_RCC_OscConfig+0x152>
 8005776:	4b96      	ldr	r3, [pc, #600]	; (80059d0 <HAL_RCC_OscConfig+0x2a4>)
 8005778:	681b      	ldr	r3, [r3, #0]
 800577a:	f003 0302 	and.w	r3, r3, #2
 800577e:	2b00      	cmp	r3, #0
 8005780:	d005      	beq.n	800578e <HAL_RCC_OscConfig+0x62>
 8005782:	687b      	ldr	r3, [r7, #4]
 8005784:	699b      	ldr	r3, [r3, #24]
 8005786:	2b00      	cmp	r3, #0
 8005788:	d101      	bne.n	800578e <HAL_RCC_OscConfig+0x62>
 800578a:	2301      	movs	r3, #1
 800578c:	e375      	b.n	8005e7a <HAL_RCC_OscConfig+0x74e>
 800578e:	687b      	ldr	r3, [r7, #4]
 8005790:	6a1a      	ldr	r2, [r3, #32]
 8005792:	4b8f      	ldr	r3, [pc, #572]	; (80059d0 <HAL_RCC_OscConfig+0x2a4>)
 8005794:	681b      	ldr	r3, [r3, #0]
 8005796:	f003 0308 	and.w	r3, r3, #8
 800579a:	2b00      	cmp	r3, #0
 800579c:	d004      	beq.n	80057a8 <HAL_RCC_OscConfig+0x7c>
 800579e:	4b8c      	ldr	r3, [pc, #560]	; (80059d0 <HAL_RCC_OscConfig+0x2a4>)
 80057a0:	681b      	ldr	r3, [r3, #0]
 80057a2:	f003 03f0 	and.w	r3, r3, #240	; 0xf0
 80057a6:	e005      	b.n	80057b4 <HAL_RCC_OscConfig+0x88>
 80057a8:	4b89      	ldr	r3, [pc, #548]	; (80059d0 <HAL_RCC_OscConfig+0x2a4>)
 80057aa:	f8d3 3094 	ldr.w	r3, [r3, #148]	; 0x94
 80057ae:	091b      	lsrs	r3, r3, #4
 80057b0:	f003 03f0 	and.w	r3, r3, #240	; 0xf0
 80057b4:	4293      	cmp	r3, r2
 80057b6:	d223      	bcs.n	8005800 <HAL_RCC_OscConfig+0xd4>
 80057b8:	687b      	ldr	r3, [r7, #4]
 80057ba:	6a1b      	ldr	r3, [r3, #32]
 80057bc:	4618      	mov	r0, r3
 80057be:	f000 fd09 	bl	80061d4 <RCC_SetFlashLatencyFromMSIRange>
 80057c2:	4603      	mov	r3, r0
 80057c4:	2b00      	cmp	r3, #0
 80057c6:	d001      	beq.n	80057cc <HAL_RCC_OscConfig+0xa0>
 80057c8:	2301      	movs	r3, #1
 80057ca:	e356      	b.n	8005e7a <HAL_RCC_OscConfig+0x74e>
 80057cc:	4b80      	ldr	r3, [pc, #512]	; (80059d0 <HAL_RCC_OscConfig+0x2a4>)
 80057ce:	681b      	ldr	r3, [r3, #0]
 80057d0:	4a7f      	ldr	r2, [pc, #508]	; (80059d0 <HAL_RCC_OscConfig+0x2a4>)
 80057d2:	f043 0308 	orr.w	r3, r3, #8
 80057d6:	6013      	str	r3, [r2, #0]
 80057d8:	4b7d      	ldr	r3, [pc, #500]	; (80059d0 <HAL_RCC_OscConfig+0x2a4>)
 80057da:	681b      	ldr	r3, [r3, #0]
 80057dc:	f023 02f0 	bic.w	r2, r3, #240	; 0xf0
 80057e0:	687b      	ldr	r3, [r7, #4]
 80057e2:	6a1b      	ldr	r3, [r3, #32]
 80057e4:	497a      	ldr	r1, [pc, #488]	; (80059d0 <HAL_RCC_OscConfig+0x2a4>)
 80057e6:	4313      	orrs	r3, r2
 80057e8:	600b      	str	r3, [r1, #0]
 80057ea:	4b79      	ldr	r3, [pc, #484]	; (80059d0 <HAL_RCC_OscConfig+0x2a4>)
 80057ec:	685b      	ldr	r3, [r3, #4]
 80057ee:	f423 427f 	bic.w	r2, r3, #65280	; 0xff00
 80057f2:	687b      	ldr	r3, [r7, #4]
 80057f4:	69db      	ldr	r3, [r3, #28]
 80057f6:	021b      	lsls	r3, r3, #8
 80057f8:	4975      	ldr	r1, [pc, #468]	; (80059d0 <HAL_RCC_OscConfig+0x2a4>)
 80057fa:	4313      	orrs	r3, r2
 80057fc:	604b      	str	r3, [r1, #4]
 80057fe:	e022      	b.n	8005846 <HAL_RCC_OscConfig+0x11a>
 8005800:	4b73      	ldr	r3, [pc, #460]	; (80059d0 <HAL_RCC_OscConfig+0x2a4>)
 8005802:	681b      	ldr	r3, [r3, #0]
 8005804:	4a72      	ldr	r2, [pc, #456]	; (80059d0 <HAL_RCC_OscConfig+0x2a4>)
 8005806:	f043 0308 	orr.w	r3, r3, #8
 800580a:	6013      	str	r3, [r2, #0]
 800580c:	4b70      	ldr	r3, [pc, #448]	; (80059d0 <HAL_RCC_OscConfig+0x2a4>)
 800580e:	681b      	ldr	r3, [r3, #0]
 8005810:	f023 02f0 	bic.w	r2, r3, #240	; 0xf0
 8005814:	687b      	ldr	r3, [r7, #4]
 8005816:	6a1b      	ldr	r3, [r3, #32]
 8005818:	496d      	ldr	r1, [pc, #436]	; (80059d0 <HAL_RCC_OscConfig+0x2a4>)
 800581a:	4313      	orrs	r3, r2
 800581c:	600b      	str	r3, [r1, #0]
 800581e:	4b6c      	ldr	r3, [pc, #432]	; (80059d0 <HAL_RCC_OscConfig+0x2a4>)
 8005820:	685b      	ldr	r3, [r3, #4]
 8005822:	f423 427f 	bic.w	r2, r3, #65280	; 0xff00
 8005826:	687b      	ldr	r3, [r7, #4]
 8005828:	69db      	ldr	r3, [r3, #28]
 800582a:	021b      	lsls	r3, r3, #8
 800582c:	4968      	ldr	r1, [pc, #416]	; (80059d0 <HAL_RCC_OscConfig+0x2a4>)
 800582e:	4313      	orrs	r3, r2
 8005830:	604b      	str	r3, [r1, #4]
 8005832:	687b      	ldr	r3, [r7, #4]
 8005834:	6a1b      	ldr	r3, [r3, #32]
 8005836:	4618      	mov	r0, r3
 8005838:	f000 fccc 	bl	80061d4 <RCC_SetFlashLatencyFromMSIRange>
 800583c:	4603      	mov	r3, r0
 800583e:	2b00      	cmp	r3, #0
 8005840:	d001      	beq.n	8005846 <HAL_RCC_OscConfig+0x11a>
 8005842:	2301      	movs	r3, #1
 8005844:	e319      	b.n	8005e7a <HAL_RCC_OscConfig+0x74e>
 8005846:	f000 fc03 	bl	8006050 <HAL_RCC_GetSysClockFreq>
 800584a:	4601      	mov	r1, r0
 800584c:	4b60      	ldr	r3, [pc, #384]	; (80059d0 <HAL_RCC_OscConfig+0x2a4>)
 800584e:	689b      	ldr	r3, [r3, #8]
 8005850:	091b      	lsrs	r3, r3, #4
 8005852:	f003 030f 	and.w	r3, r3, #15
 8005856:	4a5f      	ldr	r2, [pc, #380]	; (80059d4 <HAL_RCC_OscConfig+0x2a8>)
 8005858:	5cd3      	ldrb	r3, [r2, r3]
 800585a:	f003 031f 	and.w	r3, r3, #31
 800585e:	fa21 f303 	lsr.w	r3, r1, r3
 8005862:	4a5d      	ldr	r2, [pc, #372]	; (80059d8 <HAL_RCC_OscConfig+0x2ac>)
 8005864:	6013      	str	r3, [r2, #0]
 8005866:	4b5d      	ldr	r3, [pc, #372]	; (80059dc <HAL_RCC_OscConfig+0x2b0>)
 8005868:	681b      	ldr	r3, [r3, #0]
 800586a:	4618      	mov	r0, r3
 800586c:	f7fb ff44 	bl	80016f8 <HAL_InitTick>
 8005870:	4603      	mov	r3, r0
 8005872:	73fb      	strb	r3, [r7, #15]
 8005874:	7bfb      	ldrb	r3, [r7, #15]
 8005876:	2b00      	cmp	r3, #0
 8005878:	d052      	beq.n	8005920 <HAL_RCC_OscConfig+0x1f4>
 800587a:	7bfb      	ldrb	r3, [r7, #15]
 800587c:	e2fd      	b.n	8005e7a <HAL_RCC_OscConfig+0x74e>
 800587e:	687b      	ldr	r3, [r7, #4]
 8005880:	699b      	ldr	r3, [r3, #24]
 8005882:	2b00      	cmp	r3, #0
 8005884:	d032      	beq.n	80058ec <HAL_RCC_OscConfig+0x1c0>
 8005886:	4b52      	ldr	r3, [pc, #328]	; (80059d0 <HAL_RCC_OscConfig+0x2a4>)
 8005888:	681b      	ldr	r3, [r3, #0]
 800588a:	4a51      	ldr	r2, [pc, #324]	; (80059d0 <HAL_RCC_OscConfig+0x2a4>)
 800588c:	f043 0301 	orr.w	r3, r3, #1
 8005890:	6013      	str	r3, [r2, #0]
 8005892:	f7fb ff7d 	bl	8001790 <HAL_GetTick>
 8005896:	6138      	str	r0, [r7, #16]
 8005898:	e008      	b.n	80058ac <HAL_RCC_OscConfig+0x180>
 800589a:	f7fb ff79 	bl	8001790 <HAL_GetTick>
 800589e:	4602      	mov	r2, r0
 80058a0:	693b      	ldr	r3, [r7, #16]
 80058a2:	1ad3      	subs	r3, r2, r3
 80058a4:	2b02      	cmp	r3, #2
 80058a6:	d901      	bls.n	80058ac <HAL_RCC_OscConfig+0x180>
 80058a8:	2303      	movs	r3, #3
 80058aa:	e2e6      	b.n	8005e7a <HAL_RCC_OscConfig+0x74e>
 80058ac:	4b48      	ldr	r3, [pc, #288]	; (80059d0 <HAL_RCC_OscConfig+0x2a4>)
 80058ae:	681b      	ldr	r3, [r3, #0]
 80058b0:	f003 0302 	and.w	r3, r3, #2
 80058b4:	2b00      	cmp	r3, #0
 80058b6:	d0f0      	beq.n	800589a <HAL_RCC_OscConfig+0x16e>
 80058b8:	4b45      	ldr	r3, [pc, #276]	; (80059d0 <HAL_RCC_OscConfig+0x2a4>)
 80058ba:	681b      	ldr	r3, [r3, #0]
 80058bc:	4a44      	ldr	r2, [pc, #272]	; (80059d0 <HAL_RCC_OscConfig+0x2a4>)
 80058be:	f043 0308 	orr.w	r3, r3, #8
 80058c2:	6013      	str	r3, [r2, #0]
 80058c4:	4b42      	ldr	r3, [pc, #264]	; (80059d0 <HAL_RCC_OscConfig+0x2a4>)
 80058c6:	681b      	ldr	r3, [r3, #0]
 80058c8:	f023 02f0 	bic.w	r2, r3, #240	; 0xf0
 80058cc:	687b      	ldr	r3, [r7, #4]
 80058ce:	6a1b      	ldr	r3, [r3, #32]
 80058d0:	493f      	ldr	r1, [pc, #252]	; (80059d0 <HAL_RCC_OscConfig+0x2a4>)
 80058d2:	4313      	orrs	r3, r2
 80058d4:	600b      	str	r3, [r1, #0]
 80058d6:	4b3e      	ldr	r3, [pc, #248]	; (80059d0 <HAL_RCC_OscConfig+0x2a4>)
 80058d8:	685b      	ldr	r3, [r3, #4]
 80058da:	f423 427f 	bic.w	r2, r3, #65280	; 0xff00
 80058de:	687b      	ldr	r3, [r7, #4]
 80058e0:	69db      	ldr	r3, [r3, #28]
 80058e2:	021b      	lsls	r3, r3, #8
 80058e4:	493a      	ldr	r1, [pc, #232]	; (80059d0 <HAL_RCC_OscConfig+0x2a4>)
 80058e6:	4313      	orrs	r3, r2
 80058e8:	604b      	str	r3, [r1, #4]
 80058ea:	e01a      	b.n	8005922 <HAL_RCC_OscConfig+0x1f6>
 80058ec:	4b38      	ldr	r3, [pc, #224]	; (80059d0 <HAL_RCC_OscConfig+0x2a4>)
 80058ee:	681b      	ldr	r3, [r3, #0]
 80058f0:	4a37      	ldr	r2, [pc, #220]	; (80059d0 <HAL_RCC_OscConfig+0x2a4>)
 80058f2:	f023 0301 	bic.w	r3, r3, #1
 80058f6:	6013      	str	r3, [r2, #0]
 80058f8:	f7fb ff4a 	bl	8001790 <HAL_GetTick>
 80058fc:	6138      	str	r0, [r7, #16]
 80058fe:	e008      	b.n	8005912 <HAL_RCC_OscConfig+0x1e6>
 8005900:	f7fb ff46 	bl	8001790 <HAL_GetTick>
 8005904:	4602      	mov	r2, r0
 8005906:	693b      	ldr	r3, [r7, #16]
 8005908:	1ad3      	subs	r3, r2, r3
 800590a:	2b02      	cmp	r3, #2
 800590c:	d901      	bls.n	8005912 <HAL_RCC_OscConfig+0x1e6>
 800590e:	2303      	movs	r3, #3
 8005910:	e2b3      	b.n	8005e7a <HAL_RCC_OscConfig+0x74e>
 8005912:	4b2f      	ldr	r3, [pc, #188]	; (80059d0 <HAL_RCC_OscConfig+0x2a4>)
 8005914:	681b      	ldr	r3, [r3, #0]
 8005916:	f003 0302 	and.w	r3, r3, #2
 800591a:	2b00      	cmp	r3, #0
 800591c:	d1f0      	bne.n	8005900 <HAL_RCC_OscConfig+0x1d4>
 800591e:	e000      	b.n	8005922 <HAL_RCC_OscConfig+0x1f6>
 8005920:	bf00      	nop
 8005922:	687b      	ldr	r3, [r7, #4]
 8005924:	681b      	ldr	r3, [r3, #0]
 8005926:	f003 0301 	and.w	r3, r3, #1
 800592a:	2b00      	cmp	r3, #0
 800592c:	d074      	beq.n	8005a18 <HAL_RCC_OscConfig+0x2ec>
 800592e:	69bb      	ldr	r3, [r7, #24]
 8005930:	2b08      	cmp	r3, #8
 8005932:	d005      	beq.n	8005940 <HAL_RCC_OscConfig+0x214>
 8005934:	69bb      	ldr	r3, [r7, #24]
 8005936:	2b0c      	cmp	r3, #12
 8005938:	d10e      	bne.n	8005958 <HAL_RCC_OscConfig+0x22c>
 800593a:	697b      	ldr	r3, [r7, #20]
 800593c:	2b03      	cmp	r3, #3
 800593e:	d10b      	bne.n	8005958 <HAL_RCC_OscConfig+0x22c>
 8005940:	4b23      	ldr	r3, [pc, #140]	; (80059d0 <HAL_RCC_OscConfig+0x2a4>)
 8005942:	681b      	ldr	r3, [r3, #0]
 8005944:	f403 3300 	and.w	r3, r3, #131072	; 0x20000
 8005948:	2b00      	cmp	r3, #0
 800594a:	d064      	beq.n	8005a16 <HAL_RCC_OscConfig+0x2ea>
 800594c:	687b      	ldr	r3, [r7, #4]
 800594e:	685b      	ldr	r3, [r3, #4]
 8005950:	2b00      	cmp	r3, #0
 8005952:	d160      	bne.n	8005a16 <HAL_RCC_OscConfig+0x2ea>
 8005954:	2301      	movs	r3, #1
 8005956:	e290      	b.n	8005e7a <HAL_RCC_OscConfig+0x74e>
 8005958:	687b      	ldr	r3, [r7, #4]
 800595a:	685b      	ldr	r3, [r3, #4]
 800595c:	f5b3 3f80 	cmp.w	r3, #65536	; 0x10000
 8005960:	d106      	bne.n	8005970 <HAL_RCC_OscConfig+0x244>
 8005962:	4b1b      	ldr	r3, [pc, #108]	; (80059d0 <HAL_RCC_OscConfig+0x2a4>)
 8005964:	681b      	ldr	r3, [r3, #0]
 8005966:	4a1a      	ldr	r2, [pc, #104]	; (80059d0 <HAL_RCC_OscConfig+0x2a4>)
 8005968:	f443 3380 	orr.w	r3, r3, #65536	; 0x10000
 800596c:	6013      	str	r3, [r2, #0]
 800596e:	e01d      	b.n	80059ac <HAL_RCC_OscConfig+0x280>
 8005970:	687b      	ldr	r3, [r7, #4]
 8005972:	685b      	ldr	r3, [r3, #4]
 8005974:	f5b3 2fa0 	cmp.w	r3, #327680	; 0x50000
 8005978:	d10c      	bne.n	8005994 <HAL_RCC_OscConfig+0x268>
 800597a:	4b15      	ldr	r3, [pc, #84]	; (80059d0 <HAL_RCC_OscConfig+0x2a4>)
 800597c:	681b      	ldr	r3, [r3, #0]
 800597e:	4a14      	ldr	r2, [pc, #80]	; (80059d0 <HAL_RCC_OscConfig+0x2a4>)
 8005980:	f443 2380 	orr.w	r3, r3, #262144	; 0x40000
 8005984:	6013      	str	r3, [r2, #0]
 8005986:	4b12      	ldr	r3, [pc, #72]	; (80059d0 <HAL_RCC_OscConfig+0x2a4>)
 8005988:	681b      	ldr	r3, [r3, #0]
 800598a:	4a11      	ldr	r2, [pc, #68]	; (80059d0 <HAL_RCC_OscConfig+0x2a4>)
 800598c:	f443 3380 	orr.w	r3, r3, #65536	; 0x10000
 8005990:	6013      	str	r3, [r2, #0]
 8005992:	e00b      	b.n	80059ac <HAL_RCC_OscConfig+0x280>
 8005994:	4b0e      	ldr	r3, [pc, #56]	; (80059d0 <HAL_RCC_OscConfig+0x2a4>)
 8005996:	681b      	ldr	r3, [r3, #0]
 8005998:	4a0d      	ldr	r2, [pc, #52]	; (80059d0 <HAL_RCC_OscConfig+0x2a4>)
 800599a:	f423 3380 	bic.w	r3, r3, #65536	; 0x10000
 800599e:	6013      	str	r3, [r2, #0]
 80059a0:	4b0b      	ldr	r3, [pc, #44]	; (80059d0 <HAL_RCC_OscConfig+0x2a4>)
 80059a2:	681b      	ldr	r3, [r3, #0]
 80059a4:	4a0a      	ldr	r2, [pc, #40]	; (80059d0 <HAL_RCC_OscConfig+0x2a4>)
 80059a6:	f423 2380 	bic.w	r3, r3, #262144	; 0x40000
 80059aa:	6013      	str	r3, [r2, #0]
 80059ac:	687b      	ldr	r3, [r7, #4]
 80059ae:	685b      	ldr	r3, [r3, #4]
 80059b0:	2b00      	cmp	r3, #0
 80059b2:	d01c      	beq.n	80059ee <HAL_RCC_OscConfig+0x2c2>
 80059b4:	f7fb feec 	bl	8001790 <HAL_GetTick>
 80059b8:	6138      	str	r0, [r7, #16]
 80059ba:	e011      	b.n	80059e0 <HAL_RCC_OscConfig+0x2b4>
 80059bc:	f7fb fee8 	bl	8001790 <HAL_GetTick>
 80059c0:	4602      	mov	r2, r0
 80059c2:	693b      	ldr	r3, [r7, #16]
 80059c4:	1ad3      	subs	r3, r2, r3
 80059c6:	2b64      	cmp	r3, #100	; 0x64
 80059c8:	d90a      	bls.n	80059e0 <HAL_RCC_OscConfig+0x2b4>
 80059ca:	2303      	movs	r3, #3
 80059cc:	e255      	b.n	8005e7a <HAL_RCC_OscConfig+0x74e>
 80059ce:	bf00      	nop
 80059d0:	40021000 	.word	0x40021000
 80059d4:	0800aabc 	.word	0x0800aabc
 80059d8:	20000000 	.word	0x20000000
 80059dc:	20000004 	.word	0x20000004
 80059e0:	4bae      	ldr	r3, [pc, #696]	; (8005c9c <HAL_RCC_OscConfig+0x570>)
 80059e2:	681b      	ldr	r3, [r3, #0]
 80059e4:	f403 3300 	and.w	r3, r3, #131072	; 0x20000
 80059e8:	2b00      	cmp	r3, #0
 80059ea:	d0e7      	beq.n	80059bc <HAL_RCC_OscConfig+0x290>
 80059ec:	e014      	b.n	8005a18 <HAL_RCC_OscConfig+0x2ec>
 80059ee:	f7fb fecf 	bl	8001790 <HAL_GetTick>
 80059f2:	6138      	str	r0, [r7, #16]
 80059f4:	e008      	b.n	8005a08 <HAL_RCC_OscConfig+0x2dc>
 80059f6:	f7fb fecb 	bl	8001790 <HAL_GetTick>
 80059fa:	4602      	mov	r2, r0
 80059fc:	693b      	ldr	r3, [r7, #16]
 80059fe:	1ad3      	subs	r3, r2, r3
 8005a00:	2b64      	cmp	r3, #100	; 0x64
 8005a02:	d901      	bls.n	8005a08 <HAL_RCC_OscConfig+0x2dc>
 8005a04:	2303      	movs	r3, #3
 8005a06:	e238      	b.n	8005e7a <HAL_RCC_OscConfig+0x74e>
 8005a08:	4ba4      	ldr	r3, [pc, #656]	; (8005c9c <HAL_RCC_OscConfig+0x570>)
 8005a0a:	681b      	ldr	r3, [r3, #0]
 8005a0c:	f403 3300 	and.w	r3, r3, #131072	; 0x20000
 8005a10:	2b00      	cmp	r3, #0
 8005a12:	d1f0      	bne.n	80059f6 <HAL_RCC_OscConfig+0x2ca>
 8005a14:	e000      	b.n	8005a18 <HAL_RCC_OscConfig+0x2ec>
 8005a16:	bf00      	nop
 8005a18:	687b      	ldr	r3, [r7, #4]
 8005a1a:	681b      	ldr	r3, [r3, #0]
 8005a1c:	f003 0302 	and.w	r3, r3, #2
 8005a20:	2b00      	cmp	r3, #0
 8005a22:	d060      	beq.n	8005ae6 <HAL_RCC_OscConfig+0x3ba>
 8005a24:	69bb      	ldr	r3, [r7, #24]
 8005a26:	2b04      	cmp	r3, #4
 8005a28:	d005      	beq.n	8005a36 <HAL_RCC_OscConfig+0x30a>
 8005a2a:	69bb      	ldr	r3, [r7, #24]
 8005a2c:	2b0c      	cmp	r3, #12
 8005a2e:	d119      	bne.n	8005a64 <HAL_RCC_OscConfig+0x338>
 8005a30:	697b      	ldr	r3, [r7, #20]
 8005a32:	2b02      	cmp	r3, #2
 8005a34:	d116      	bne.n	8005a64 <HAL_RCC_OscConfig+0x338>
 8005a36:	4b99      	ldr	r3, [pc, #612]	; (8005c9c <HAL_RCC_OscConfig+0x570>)
 8005a38:	681b      	ldr	r3, [r3, #0]
 8005a3a:	f403 6380 	and.w	r3, r3, #1024	; 0x400
 8005a3e:	2b00      	cmp	r3, #0
 8005a40:	d005      	beq.n	8005a4e <HAL_RCC_OscConfig+0x322>
 8005a42:	687b      	ldr	r3, [r7, #4]
 8005a44:	68db      	ldr	r3, [r3, #12]
 8005a46:	2b00      	cmp	r3, #0
 8005a48:	d101      	bne.n	8005a4e <HAL_RCC_OscConfig+0x322>
 8005a4a:	2301      	movs	r3, #1
 8005a4c:	e215      	b.n	8005e7a <HAL_RCC_OscConfig+0x74e>
 8005a4e:	4b93      	ldr	r3, [pc, #588]	; (8005c9c <HAL_RCC_OscConfig+0x570>)
 8005a50:	685b      	ldr	r3, [r3, #4]
 8005a52:	f023 52f8 	bic.w	r2, r3, #520093696	; 0x1f000000
 8005a56:	687b      	ldr	r3, [r7, #4]
 8005a58:	691b      	ldr	r3, [r3, #16]
 8005a5a:	061b      	lsls	r3, r3, #24
 8005a5c:	498f      	ldr	r1, [pc, #572]	; (8005c9c <HAL_RCC_OscConfig+0x570>)
 8005a5e:	4313      	orrs	r3, r2
 8005a60:	604b      	str	r3, [r1, #4]
 8005a62:	e040      	b.n	8005ae6 <HAL_RCC_OscConfig+0x3ba>
 8005a64:	687b      	ldr	r3, [r7, #4]
 8005a66:	68db      	ldr	r3, [r3, #12]
 8005a68:	2b00      	cmp	r3, #0
 8005a6a:	d023      	beq.n	8005ab4 <HAL_RCC_OscConfig+0x388>
 8005a6c:	4b8b      	ldr	r3, [pc, #556]	; (8005c9c <HAL_RCC_OscConfig+0x570>)
 8005a6e:	681b      	ldr	r3, [r3, #0]
 8005a70:	4a8a      	ldr	r2, [pc, #552]	; (8005c9c <HAL_RCC_OscConfig+0x570>)
 8005a72:	f443 7380 	orr.w	r3, r3, #256	; 0x100
 8005a76:	6013      	str	r3, [r2, #0]
 8005a78:	f7fb fe8a 	bl	8001790 <HAL_GetTick>
 8005a7c:	6138      	str	r0, [r7, #16]
 8005a7e:	e008      	b.n	8005a92 <HAL_RCC_OscConfig+0x366>
 8005a80:	f7fb fe86 	bl	8001790 <HAL_GetTick>
 8005a84:	4602      	mov	r2, r0
 8005a86:	693b      	ldr	r3, [r7, #16]
 8005a88:	1ad3      	subs	r3, r2, r3
 8005a8a:	2b02      	cmp	r3, #2
 8005a8c:	d901      	bls.n	8005a92 <HAL_RCC_OscConfig+0x366>
 8005a8e:	2303      	movs	r3, #3
 8005a90:	e1f3      	b.n	8005e7a <HAL_RCC_OscConfig+0x74e>
 8005a92:	4b82      	ldr	r3, [pc, #520]	; (8005c9c <HAL_RCC_OscConfig+0x570>)
 8005a94:	681b      	ldr	r3, [r3, #0]
 8005a96:	f403 6380 	and.w	r3, r3, #1024	; 0x400
 8005a9a:	2b00      	cmp	r3, #0
 8005a9c:	d0f0      	beq.n	8005a80 <HAL_RCC_OscConfig+0x354>
 8005a9e:	4b7f      	ldr	r3, [pc, #508]	; (8005c9c <HAL_RCC_OscConfig+0x570>)
 8005aa0:	685b      	ldr	r3, [r3, #4]
 8005aa2:	f023 52f8 	bic.w	r2, r3, #520093696	; 0x1f000000
 8005aa6:	687b      	ldr	r3, [r7, #4]
 8005aa8:	691b      	ldr	r3, [r3, #16]
 8005aaa:	061b      	lsls	r3, r3, #24
 8005aac:	497b      	ldr	r1, [pc, #492]	; (8005c9c <HAL_RCC_OscConfig+0x570>)
 8005aae:	4313      	orrs	r3, r2
 8005ab0:	604b      	str	r3, [r1, #4]
 8005ab2:	e018      	b.n	8005ae6 <HAL_RCC_OscConfig+0x3ba>
 8005ab4:	4b79      	ldr	r3, [pc, #484]	; (8005c9c <HAL_RCC_OscConfig+0x570>)
 8005ab6:	681b      	ldr	r3, [r3, #0]
 8005ab8:	4a78      	ldr	r2, [pc, #480]	; (8005c9c <HAL_RCC_OscConfig+0x570>)
 8005aba:	f423 7380 	bic.w	r3, r3, #256	; 0x100
 8005abe:	6013      	str	r3, [r2, #0]
 8005ac0:	f7fb fe66 	bl	8001790 <HAL_GetTick>
 8005ac4:	6138      	str	r0, [r7, #16]
 8005ac6:	e008      	b.n	8005ada <HAL_RCC_OscConfig+0x3ae>
 8005ac8:	f7fb fe62 	bl	8001790 <HAL_GetTick>
 8005acc:	4602      	mov	r2, r0
 8005ace:	693b      	ldr	r3, [r7, #16]
 8005ad0:	1ad3      	subs	r3, r2, r3
 8005ad2:	2b02      	cmp	r3, #2
 8005ad4:	d901      	bls.n	8005ada <HAL_RCC_OscConfig+0x3ae>
 8005ad6:	2303      	movs	r3, #3
 8005ad8:	e1cf      	b.n	8005e7a <HAL_RCC_OscConfig+0x74e>
 8005ada:	4b70      	ldr	r3, [pc, #448]	; (8005c9c <HAL_RCC_OscConfig+0x570>)
 8005adc:	681b      	ldr	r3, [r3, #0]
 8005ade:	f403 6380 	and.w	r3, r3, #1024	; 0x400
 8005ae2:	2b00      	cmp	r3, #0
 8005ae4:	d1f0      	bne.n	8005ac8 <HAL_RCC_OscConfig+0x39c>
 8005ae6:	687b      	ldr	r3, [r7, #4]
 8005ae8:	681b      	ldr	r3, [r3, #0]
 8005aea:	f003 0308 	and.w	r3, r3, #8
 8005aee:	2b00      	cmp	r3, #0
 8005af0:	d03c      	beq.n	8005b6c <HAL_RCC_OscConfig+0x440>
 8005af2:	687b      	ldr	r3, [r7, #4]
 8005af4:	695b      	ldr	r3, [r3, #20]
 8005af6:	2b00      	cmp	r3, #0
 8005af8:	d01c      	beq.n	8005b34 <HAL_RCC_OscConfig+0x408>
 8005afa:	4b68      	ldr	r3, [pc, #416]	; (8005c9c <HAL_RCC_OscConfig+0x570>)
 8005afc:	f8d3 3094 	ldr.w	r3, [r3, #148]	; 0x94
 8005b00:	4a66      	ldr	r2, [pc, #408]	; (8005c9c <HAL_RCC_OscConfig+0x570>)
 8005b02:	f043 0301 	orr.w	r3, r3, #1
 8005b06:	f8c2 3094 	str.w	r3, [r2, #148]	; 0x94
 8005b0a:	f7fb fe41 	bl	8001790 <HAL_GetTick>
 8005b0e:	6138      	str	r0, [r7, #16]
 8005b10:	e008      	b.n	8005b24 <HAL_RCC_OscConfig+0x3f8>
 8005b12:	f7fb fe3d 	bl	8001790 <HAL_GetTick>
 8005b16:	4602      	mov	r2, r0
 8005b18:	693b      	ldr	r3, [r7, #16]
 8005b1a:	1ad3      	subs	r3, r2, r3
 8005b1c:	2b02      	cmp	r3, #2
 8005b1e:	d901      	bls.n	8005b24 <HAL_RCC_OscConfig+0x3f8>
 8005b20:	2303      	movs	r3, #3
 8005b22:	e1aa      	b.n	8005e7a <HAL_RCC_OscConfig+0x74e>
 8005b24:	4b5d      	ldr	r3, [pc, #372]	; (8005c9c <HAL_RCC_OscConfig+0x570>)
 8005b26:	f8d3 3094 	ldr.w	r3, [r3, #148]	; 0x94
 8005b2a:	f003 0302 	and.w	r3, r3, #2
 8005b2e:	2b00      	cmp	r3, #0
 8005b30:	d0ef      	beq.n	8005b12 <HAL_RCC_OscConfig+0x3e6>
 8005b32:	e01b      	b.n	8005b6c <HAL_RCC_OscConfig+0x440>
 8005b34:	4b59      	ldr	r3, [pc, #356]	; (8005c9c <HAL_RCC_OscConfig+0x570>)
 8005b36:	f8d3 3094 	ldr.w	r3, [r3, #148]	; 0x94
 8005b3a:	4a58      	ldr	r2, [pc, #352]	; (8005c9c <HAL_RCC_OscConfig+0x570>)
 8005b3c:	f023 0301 	bic.w	r3, r3, #1
 8005b40:	f8c2 3094 	str.w	r3, [r2, #148]	; 0x94
 8005b44:	f7fb fe24 	bl	8001790 <HAL_GetTick>
 8005b48:	6138      	str	r0, [r7, #16]
 8005b4a:	e008      	b.n	8005b5e <HAL_RCC_OscConfig+0x432>
 8005b4c:	f7fb fe20 	bl	8001790 <HAL_GetTick>
 8005b50:	4602      	mov	r2, r0
 8005b52:	693b      	ldr	r3, [r7, #16]
 8005b54:	1ad3      	subs	r3, r2, r3
 8005b56:	2b02      	cmp	r3, #2
 8005b58:	d901      	bls.n	8005b5e <HAL_RCC_OscConfig+0x432>
 8005b5a:	2303      	movs	r3, #3
 8005b5c:	e18d      	b.n	8005e7a <HAL_RCC_OscConfig+0x74e>
 8005b5e:	4b4f      	ldr	r3, [pc, #316]	; (8005c9c <HAL_RCC_OscConfig+0x570>)
 8005b60:	f8d3 3094 	ldr.w	r3, [r3, #148]	; 0x94
 8005b64:	f003 0302 	and.w	r3, r3, #2
 8005b68:	2b00      	cmp	r3, #0
 8005b6a:	d1ef      	bne.n	8005b4c <HAL_RCC_OscConfig+0x420>
 8005b6c:	687b      	ldr	r3, [r7, #4]
 8005b6e:	681b      	ldr	r3, [r3, #0]
 8005b70:	f003 0304 	and.w	r3, r3, #4
 8005b74:	2b00      	cmp	r3, #0
 8005b76:	f000 80a5 	beq.w	8005cc4 <HAL_RCC_OscConfig+0x598>
 8005b7a:	2300      	movs	r3, #0
 8005b7c:	77fb      	strb	r3, [r7, #31]
 8005b7e:	4b47      	ldr	r3, [pc, #284]	; (8005c9c <HAL_RCC_OscConfig+0x570>)
 8005b80:	6d9b      	ldr	r3, [r3, #88]	; 0x58
 8005b82:	f003 5380 	and.w	r3, r3, #268435456	; 0x10000000
 8005b86:	2b00      	cmp	r3, #0
 8005b88:	d10d      	bne.n	8005ba6 <HAL_RCC_OscConfig+0x47a>
 8005b8a:	4b44      	ldr	r3, [pc, #272]	; (8005c9c <HAL_RCC_OscConfig+0x570>)
 8005b8c:	6d9b      	ldr	r3, [r3, #88]	; 0x58
 8005b8e:	4a43      	ldr	r2, [pc, #268]	; (8005c9c <HAL_RCC_OscConfig+0x570>)
 8005b90:	f043 5380 	orr.w	r3, r3, #268435456	; 0x10000000
 8005b94:	6593      	str	r3, [r2, #88]	; 0x58
 8005b96:	4b41      	ldr	r3, [pc, #260]	; (8005c9c <HAL_RCC_OscConfig+0x570>)
 8005b98:	6d9b      	ldr	r3, [r3, #88]	; 0x58
 8005b9a:	f003 5380 	and.w	r3, r3, #268435456	; 0x10000000
 8005b9e:	60bb      	str	r3, [r7, #8]
 8005ba0:	68bb      	ldr	r3, [r7, #8]
 8005ba2:	2301      	movs	r3, #1
 8005ba4:	77fb      	strb	r3, [r7, #31]
 8005ba6:	4b3e      	ldr	r3, [pc, #248]	; (8005ca0 <HAL_RCC_OscConfig+0x574>)
 8005ba8:	681b      	ldr	r3, [r3, #0]
 8005baa:	f403 7380 	and.w	r3, r3, #256	; 0x100
 8005bae:	2b00      	cmp	r3, #0
 8005bb0:	d118      	bne.n	8005be4 <HAL_RCC_OscConfig+0x4b8>
 8005bb2:	4b3b      	ldr	r3, [pc, #236]	; (8005ca0 <HAL_RCC_OscConfig+0x574>)
 8005bb4:	681b      	ldr	r3, [r3, #0]
 8005bb6:	4a3a      	ldr	r2, [pc, #232]	; (8005ca0 <HAL_RCC_OscConfig+0x574>)
 8005bb8:	f443 7380 	orr.w	r3, r3, #256	; 0x100
 8005bbc:	6013      	str	r3, [r2, #0]
 8005bbe:	f7fb fde7 	bl	8001790 <HAL_GetTick>
 8005bc2:	6138      	str	r0, [r7, #16]
 8005bc4:	e008      	b.n	8005bd8 <HAL_RCC_OscConfig+0x4ac>
 8005bc6:	f7fb fde3 	bl	8001790 <HAL_GetTick>
 8005bca:	4602      	mov	r2, r0
 8005bcc:	693b      	ldr	r3, [r7, #16]
 8005bce:	1ad3      	subs	r3, r2, r3
 8005bd0:	2b02      	cmp	r3, #2
 8005bd2:	d901      	bls.n	8005bd8 <HAL_RCC_OscConfig+0x4ac>
 8005bd4:	2303      	movs	r3, #3
 8005bd6:	e150      	b.n	8005e7a <HAL_RCC_OscConfig+0x74e>
 8005bd8:	4b31      	ldr	r3, [pc, #196]	; (8005ca0 <HAL_RCC_OscConfig+0x574>)
 8005bda:	681b      	ldr	r3, [r3, #0]
 8005bdc:	f403 7380 	and.w	r3, r3, #256	; 0x100
 8005be0:	2b00      	cmp	r3, #0
 8005be2:	d0f0      	beq.n	8005bc6 <HAL_RCC_OscConfig+0x49a>
 8005be4:	687b      	ldr	r3, [r7, #4]
 8005be6:	689b      	ldr	r3, [r3, #8]
 8005be8:	2b01      	cmp	r3, #1
 8005bea:	d108      	bne.n	8005bfe <HAL_RCC_OscConfig+0x4d2>
 8005bec:	4b2b      	ldr	r3, [pc, #172]	; (8005c9c <HAL_RCC_OscConfig+0x570>)
 8005bee:	f8d3 3090 	ldr.w	r3, [r3, #144]	; 0x90
 8005bf2:	4a2a      	ldr	r2, [pc, #168]	; (8005c9c <HAL_RCC_OscConfig+0x570>)
 8005bf4:	f043 0301 	orr.w	r3, r3, #1
 8005bf8:	f8c2 3090 	str.w	r3, [r2, #144]	; 0x90
 8005bfc:	e024      	b.n	8005c48 <HAL_RCC_OscConfig+0x51c>
 8005bfe:	687b      	ldr	r3, [r7, #4]
 8005c00:	689b      	ldr	r3, [r3, #8]
 8005c02:	2b05      	cmp	r3, #5
 8005c04:	d110      	bne.n	8005c28 <HAL_RCC_OscConfig+0x4fc>
 8005c06:	4b25      	ldr	r3, [pc, #148]	; (8005c9c <HAL_RCC_OscConfig+0x570>)
 8005c08:	f8d3 3090 	ldr.w	r3, [r3, #144]	; 0x90
 8005c0c:	4a23      	ldr	r2, [pc, #140]	; (8005c9c <HAL_RCC_OscConfig+0x570>)
 8005c0e:	f043 0304 	orr.w	r3, r3, #4
 8005c12:	f8c2 3090 	str.w	r3, [r2, #144]	; 0x90
 8005c16:	4b21      	ldr	r3, [pc, #132]	; (8005c9c <HAL_RCC_OscConfig+0x570>)
 8005c18:	f8d3 3090 	ldr.w	r3, [r3, #144]	; 0x90
 8005c1c:	4a1f      	ldr	r2, [pc, #124]	; (8005c9c <HAL_RCC_OscConfig+0x570>)
 8005c1e:	f043 0301 	orr.w	r3, r3, #1
 8005c22:	f8c2 3090 	str.w	r3, [r2, #144]	; 0x90
 8005c26:	e00f      	b.n	8005c48 <HAL_RCC_OscConfig+0x51c>
 8005c28:	4b1c      	ldr	r3, [pc, #112]	; (8005c9c <HAL_RCC_OscConfig+0x570>)
 8005c2a:	f8d3 3090 	ldr.w	r3, [r3, #144]	; 0x90
 8005c2e:	4a1b      	ldr	r2, [pc, #108]	; (8005c9c <HAL_RCC_OscConfig+0x570>)
 8005c30:	f023 0301 	bic.w	r3, r3, #1
 8005c34:	f8c2 3090 	str.w	r3, [r2, #144]	; 0x90
 8005c38:	4b18      	ldr	r3, [pc, #96]	; (8005c9c <HAL_RCC_OscConfig+0x570>)
 8005c3a:	f8d3 3090 	ldr.w	r3, [r3, #144]	; 0x90
 8005c3e:	4a17      	ldr	r2, [pc, #92]	; (8005c9c <HAL_RCC_OscConfig+0x570>)
 8005c40:	f023 0304 	bic.w	r3, r3, #4
 8005c44:	f8c2 3090 	str.w	r3, [r2, #144]	; 0x90
 8005c48:	687b      	ldr	r3, [r7, #4]
 8005c4a:	689b      	ldr	r3, [r3, #8]
 8005c4c:	2b00      	cmp	r3, #0
 8005c4e:	d016      	beq.n	8005c7e <HAL_RCC_OscConfig+0x552>
 8005c50:	f7fb fd9e 	bl	8001790 <HAL_GetTick>
 8005c54:	6138      	str	r0, [r7, #16]
 8005c56:	e00a      	b.n	8005c6e <HAL_RCC_OscConfig+0x542>
 8005c58:	f7fb fd9a 	bl	8001790 <HAL_GetTick>
 8005c5c:	4602      	mov	r2, r0
 8005c5e:	693b      	ldr	r3, [r7, #16]
 8005c60:	1ad3      	subs	r3, r2, r3
 8005c62:	f241 3288 	movw	r2, #5000	; 0x1388
 8005c66:	4293      	cmp	r3, r2
 8005c68:	d901      	bls.n	8005c6e <HAL_RCC_OscConfig+0x542>
 8005c6a:	2303      	movs	r3, #3
 8005c6c:	e105      	b.n	8005e7a <HAL_RCC_OscConfig+0x74e>
 8005c6e:	4b0b      	ldr	r3, [pc, #44]	; (8005c9c <HAL_RCC_OscConfig+0x570>)
 8005c70:	f8d3 3090 	ldr.w	r3, [r3, #144]	; 0x90
 8005c74:	f003 0302 	and.w	r3, r3, #2
 8005c78:	2b00      	cmp	r3, #0
 8005c7a:	d0ed      	beq.n	8005c58 <HAL_RCC_OscConfig+0x52c>
 8005c7c:	e019      	b.n	8005cb2 <HAL_RCC_OscConfig+0x586>
 8005c7e:	f7fb fd87 	bl	8001790 <HAL_GetTick>
 8005c82:	6138      	str	r0, [r7, #16]
 8005c84:	e00e      	b.n	8005ca4 <HAL_RCC_OscConfig+0x578>
 8005c86:	f7fb fd83 	bl	8001790 <HAL_GetTick>
 8005c8a:	4602      	mov	r2, r0
 8005c8c:	693b      	ldr	r3, [r7, #16]
 8005c8e:	1ad3      	subs	r3, r2, r3
 8005c90:	f241 3288 	movw	r2, #5000	; 0x1388
 8005c94:	4293      	cmp	r3, r2
 8005c96:	d905      	bls.n	8005ca4 <HAL_RCC_OscConfig+0x578>
 8005c98:	2303      	movs	r3, #3
 8005c9a:	e0ee      	b.n	8005e7a <HAL_RCC_OscConfig+0x74e>
 8005c9c:	40021000 	.word	0x40021000
 8005ca0:	40007000 	.word	0x40007000
 8005ca4:	4b77      	ldr	r3, [pc, #476]	; (8005e84 <HAL_RCC_OscConfig+0x758>)
 8005ca6:	f8d3 3090 	ldr.w	r3, [r3, #144]	; 0x90
 8005caa:	f003 0302 	and.w	r3, r3, #2
 8005cae:	2b00      	cmp	r3, #0
 8005cb0:	d1e9      	bne.n	8005c86 <HAL_RCC_OscConfig+0x55a>
 8005cb2:	7ffb      	ldrb	r3, [r7, #31]
 8005cb4:	2b01      	cmp	r3, #1
 8005cb6:	d105      	bne.n	8005cc4 <HAL_RCC_OscConfig+0x598>
 8005cb8:	4b72      	ldr	r3, [pc, #456]	; (8005e84 <HAL_RCC_OscConfig+0x758>)
 8005cba:	6d9b      	ldr	r3, [r3, #88]	; 0x58
 8005cbc:	4a71      	ldr	r2, [pc, #452]	; (8005e84 <HAL_RCC_OscConfig+0x758>)
 8005cbe:	f023 5380 	bic.w	r3, r3, #268435456	; 0x10000000
 8005cc2:	6593      	str	r3, [r2, #88]	; 0x58
 8005cc4:	687b      	ldr	r3, [r7, #4]
 8005cc6:	6a9b      	ldr	r3, [r3, #40]	; 0x28
 8005cc8:	2b00      	cmp	r3, #0
 8005cca:	f000 80d5 	beq.w	8005e78 <HAL_RCC_OscConfig+0x74c>
 8005cce:	69bb      	ldr	r3, [r7, #24]
 8005cd0:	2b0c      	cmp	r3, #12
 8005cd2:	f000 808e 	beq.w	8005df2 <HAL_RCC_OscConfig+0x6c6>
 8005cd6:	687b      	ldr	r3, [r7, #4]
 8005cd8:	6a9b      	ldr	r3, [r3, #40]	; 0x28
 8005cda:	2b02      	cmp	r3, #2
 8005cdc:	d15b      	bne.n	8005d96 <HAL_RCC_OscConfig+0x66a>
 8005cde:	4b69      	ldr	r3, [pc, #420]	; (8005e84 <HAL_RCC_OscConfig+0x758>)
 8005ce0:	681b      	ldr	r3, [r3, #0]
 8005ce2:	4a68      	ldr	r2, [pc, #416]	; (8005e84 <HAL_RCC_OscConfig+0x758>)
 8005ce4:	f023 7380 	bic.w	r3, r3, #16777216	; 0x1000000
 8005ce8:	6013      	str	r3, [r2, #0]
 8005cea:	f7fb fd51 	bl	8001790 <HAL_GetTick>
 8005cee:	6138      	str	r0, [r7, #16]
 8005cf0:	e008      	b.n	8005d04 <HAL_RCC_OscConfig+0x5d8>
 8005cf2:	f7fb fd4d 	bl	8001790 <HAL_GetTick>
 8005cf6:	4602      	mov	r2, r0
 8005cf8:	693b      	ldr	r3, [r7, #16]
 8005cfa:	1ad3      	subs	r3, r2, r3
 8005cfc:	2b02      	cmp	r3, #2
 8005cfe:	d901      	bls.n	8005d04 <HAL_RCC_OscConfig+0x5d8>
 8005d00:	2303      	movs	r3, #3
 8005d02:	e0ba      	b.n	8005e7a <HAL_RCC_OscConfig+0x74e>
 8005d04:	4b5f      	ldr	r3, [pc, #380]	; (8005e84 <HAL_RCC_OscConfig+0x758>)
 8005d06:	681b      	ldr	r3, [r3, #0]
 8005d08:	f003 7300 	and.w	r3, r3, #33554432	; 0x2000000
 8005d0c:	2b00      	cmp	r3, #0
 8005d0e:	d1f0      	bne.n	8005cf2 <HAL_RCC_OscConfig+0x5c6>
 8005d10:	4b5c      	ldr	r3, [pc, #368]	; (8005e84 <HAL_RCC_OscConfig+0x758>)
 8005d12:	68da      	ldr	r2, [r3, #12]
 8005d14:	4b5c      	ldr	r3, [pc, #368]	; (8005e88 <HAL_RCC_OscConfig+0x75c>)
 8005d16:	4013      	ands	r3, r2
 8005d18:	687a      	ldr	r2, [r7, #4]
 8005d1a:	6ad1      	ldr	r1, [r2, #44]	; 0x2c
 8005d1c:	687a      	ldr	r2, [r7, #4]
 8005d1e:	6b12      	ldr	r2, [r2, #48]	; 0x30
 8005d20:	3a01      	subs	r2, #1
 8005d22:	0112      	lsls	r2, r2, #4
 8005d24:	4311      	orrs	r1, r2
 8005d26:	687a      	ldr	r2, [r7, #4]
 8005d28:	6b52      	ldr	r2, [r2, #52]	; 0x34
 8005d2a:	0212      	lsls	r2, r2, #8
 8005d2c:	4311      	orrs	r1, r2
 8005d2e:	687a      	ldr	r2, [r7, #4]
 8005d30:	6bd2      	ldr	r2, [r2, #60]	; 0x3c
 8005d32:	0852      	lsrs	r2, r2, #1
 8005d34:	3a01      	subs	r2, #1
 8005d36:	0552      	lsls	r2, r2, #21
 8005d38:	4311      	orrs	r1, r2
 8005d3a:	687a      	ldr	r2, [r7, #4]
 8005d3c:	6c12      	ldr	r2, [r2, #64]	; 0x40
 8005d3e:	0852      	lsrs	r2, r2, #1
 8005d40:	3a01      	subs	r2, #1
 8005d42:	0652      	lsls	r2, r2, #25
 8005d44:	4311      	orrs	r1, r2
 8005d46:	687a      	ldr	r2, [r7, #4]
 8005d48:	6b92      	ldr	r2, [r2, #56]	; 0x38
 8005d4a:	0912      	lsrs	r2, r2, #4
 8005d4c:	0452      	lsls	r2, r2, #17
 8005d4e:	430a      	orrs	r2, r1
 8005d50:	494c      	ldr	r1, [pc, #304]	; (8005e84 <HAL_RCC_OscConfig+0x758>)
 8005d52:	4313      	orrs	r3, r2
 8005d54:	60cb      	str	r3, [r1, #12]
 8005d56:	4b4b      	ldr	r3, [pc, #300]	; (8005e84 <HAL_RCC_OscConfig+0x758>)
 8005d58:	681b      	ldr	r3, [r3, #0]
 8005d5a:	4a4a      	ldr	r2, [pc, #296]	; (8005e84 <HAL_RCC_OscConfig+0x758>)
 8005d5c:	f043 7380 	orr.w	r3, r3, #16777216	; 0x1000000
 8005d60:	6013      	str	r3, [r2, #0]
 8005d62:	4b48      	ldr	r3, [pc, #288]	; (8005e84 <HAL_RCC_OscConfig+0x758>)
 8005d64:	68db      	ldr	r3, [r3, #12]
 8005d66:	4a47      	ldr	r2, [pc, #284]	; (8005e84 <HAL_RCC_OscConfig+0x758>)
 8005d68:	f043 7380 	orr.w	r3, r3, #16777216	; 0x1000000
 8005d6c:	60d3      	str	r3, [r2, #12]
 8005d6e:	f7fb fd0f 	bl	8001790 <HAL_GetTick>
 8005d72:	6138      	str	r0, [r7, #16]
 8005d74:	e008      	b.n	8005d88 <HAL_RCC_OscConfig+0x65c>
 8005d76:	f7fb fd0b 	bl	8001790 <HAL_GetTick>
 8005d7a:	4602      	mov	r2, r0
 8005d7c:	693b      	ldr	r3, [r7, #16]
 8005d7e:	1ad3      	subs	r3, r2, r3
 8005d80:	2b02      	cmp	r3, #2
 8005d82:	d901      	bls.n	8005d88 <HAL_RCC_OscConfig+0x65c>
 8005d84:	2303      	movs	r3, #3
 8005d86:	e078      	b.n	8005e7a <HAL_RCC_OscConfig+0x74e>
 8005d88:	4b3e      	ldr	r3, [pc, #248]	; (8005e84 <HAL_RCC_OscConfig+0x758>)
 8005d8a:	681b      	ldr	r3, [r3, #0]
 8005d8c:	f003 7300 	and.w	r3, r3, #33554432	; 0x2000000
 8005d90:	2b00      	cmp	r3, #0
 8005d92:	d0f0      	beq.n	8005d76 <HAL_RCC_OscConfig+0x64a>
 8005d94:	e070      	b.n	8005e78 <HAL_RCC_OscConfig+0x74c>
 8005d96:	4b3b      	ldr	r3, [pc, #236]	; (8005e84 <HAL_RCC_OscConfig+0x758>)
 8005d98:	681b      	ldr	r3, [r3, #0]
 8005d9a:	4a3a      	ldr	r2, [pc, #232]	; (8005e84 <HAL_RCC_OscConfig+0x758>)
 8005d9c:	f023 7380 	bic.w	r3, r3, #16777216	; 0x1000000
 8005da0:	6013      	str	r3, [r2, #0]
 8005da2:	4b38      	ldr	r3, [pc, #224]	; (8005e84 <HAL_RCC_OscConfig+0x758>)
 8005da4:	681b      	ldr	r3, [r3, #0]
 8005da6:	f003 5320 	and.w	r3, r3, #671088640	; 0x28000000
 8005daa:	2b00      	cmp	r3, #0
 8005dac:	d105      	bne.n	8005dba <HAL_RCC_OscConfig+0x68e>
 8005dae:	4b35      	ldr	r3, [pc, #212]	; (8005e84 <HAL_RCC_OscConfig+0x758>)
 8005db0:	68db      	ldr	r3, [r3, #12]
 8005db2:	4a34      	ldr	r2, [pc, #208]	; (8005e84 <HAL_RCC_OscConfig+0x758>)
 8005db4:	f023 0303 	bic.w	r3, r3, #3
 8005db8:	60d3      	str	r3, [r2, #12]
 8005dba:	4b32      	ldr	r3, [pc, #200]	; (8005e84 <HAL_RCC_OscConfig+0x758>)
 8005dbc:	68db      	ldr	r3, [r3, #12]
 8005dbe:	4a31      	ldr	r2, [pc, #196]	; (8005e84 <HAL_RCC_OscConfig+0x758>)
 8005dc0:	f023 7388 	bic.w	r3, r3, #17825792	; 0x1100000
 8005dc4:	f423 3380 	bic.w	r3, r3, #65536	; 0x10000
 8005dc8:	60d3      	str	r3, [r2, #12]
 8005dca:	f7fb fce1 	bl	8001790 <HAL_GetTick>
 8005dce:	6138      	str	r0, [r7, #16]
 8005dd0:	e008      	b.n	8005de4 <HAL_RCC_OscConfig+0x6b8>
 8005dd2:	f7fb fcdd 	bl	8001790 <HAL_GetTick>
 8005dd6:	4602      	mov	r2, r0
 8005dd8:	693b      	ldr	r3, [r7, #16]
 8005dda:	1ad3      	subs	r3, r2, r3
 8005ddc:	2b02      	cmp	r3, #2
 8005dde:	d901      	bls.n	8005de4 <HAL_RCC_OscConfig+0x6b8>
 8005de0:	2303      	movs	r3, #3
 8005de2:	e04a      	b.n	8005e7a <HAL_RCC_OscConfig+0x74e>
 8005de4:	4b27      	ldr	r3, [pc, #156]	; (8005e84 <HAL_RCC_OscConfig+0x758>)
 8005de6:	681b      	ldr	r3, [r3, #0]
 8005de8:	f003 7300 	and.w	r3, r3, #33554432	; 0x2000000
 8005dec:	2b00      	cmp	r3, #0
 8005dee:	d1f0      	bne.n	8005dd2 <HAL_RCC_OscConfig+0x6a6>
 8005df0:	e042      	b.n	8005e78 <HAL_RCC_OscConfig+0x74c>
 8005df2:	687b      	ldr	r3, [r7, #4]
 8005df4:	6a9b      	ldr	r3, [r3, #40]	; 0x28
 8005df6:	2b01      	cmp	r3, #1
 8005df8:	d101      	bne.n	8005dfe <HAL_RCC_OscConfig+0x6d2>
 8005dfa:	2301      	movs	r3, #1
 8005dfc:	e03d      	b.n	8005e7a <HAL_RCC_OscConfig+0x74e>
 8005dfe:	4b21      	ldr	r3, [pc, #132]	; (8005e84 <HAL_RCC_OscConfig+0x758>)
 8005e00:	68db      	ldr	r3, [r3, #12]
 8005e02:	617b      	str	r3, [r7, #20]
 8005e04:	697b      	ldr	r3, [r7, #20]
 8005e06:	f003 0203 	and.w	r2, r3, #3
 8005e0a:	687b      	ldr	r3, [r7, #4]
 8005e0c:	6adb      	ldr	r3, [r3, #44]	; 0x2c
 8005e0e:	429a      	cmp	r2, r3
 8005e10:	d130      	bne.n	8005e74 <HAL_RCC_OscConfig+0x748>
 8005e12:	697b      	ldr	r3, [r7, #20]
 8005e14:	f003 0270 	and.w	r2, r3, #112	; 0x70
 8005e18:	687b      	ldr	r3, [r7, #4]
 8005e1a:	6b1b      	ldr	r3, [r3, #48]	; 0x30
 8005e1c:	3b01      	subs	r3, #1
 8005e1e:	011b      	lsls	r3, r3, #4
 8005e20:	429a      	cmp	r2, r3
 8005e22:	d127      	bne.n	8005e74 <HAL_RCC_OscConfig+0x748>
 8005e24:	697b      	ldr	r3, [r7, #20]
 8005e26:	f403 42fe 	and.w	r2, r3, #32512	; 0x7f00
 8005e2a:	687b      	ldr	r3, [r7, #4]
 8005e2c:	6b5b      	ldr	r3, [r3, #52]	; 0x34
 8005e2e:	021b      	lsls	r3, r3, #8
 8005e30:	429a      	cmp	r2, r3
 8005e32:	d11f      	bne.n	8005e74 <HAL_RCC_OscConfig+0x748>
 8005e34:	697b      	ldr	r3, [r7, #20]
 8005e36:	f403 3300 	and.w	r3, r3, #131072	; 0x20000
 8005e3a:	687a      	ldr	r2, [r7, #4]
 8005e3c:	6b92      	ldr	r2, [r2, #56]	; 0x38
 8005e3e:	2a07      	cmp	r2, #7
 8005e40:	bf14      	ite	ne
 8005e42:	2201      	movne	r2, #1
 8005e44:	2200      	moveq	r2, #0
 8005e46:	b2d2      	uxtb	r2, r2
 8005e48:	4293      	cmp	r3, r2
 8005e4a:	d113      	bne.n	8005e74 <HAL_RCC_OscConfig+0x748>
 8005e4c:	697b      	ldr	r3, [r7, #20]
 8005e4e:	f403 02c0 	and.w	r2, r3, #6291456	; 0x600000
 8005e52:	687b      	ldr	r3, [r7, #4]
 8005e54:	6bdb      	ldr	r3, [r3, #60]	; 0x3c
 8005e56:	085b      	lsrs	r3, r3, #1
 8005e58:	3b01      	subs	r3, #1
 8005e5a:	055b      	lsls	r3, r3, #21
 8005e5c:	429a      	cmp	r2, r3
 8005e5e:	d109      	bne.n	8005e74 <HAL_RCC_OscConfig+0x748>
 8005e60:	697b      	ldr	r3, [r7, #20]
 8005e62:	f003 62c0 	and.w	r2, r3, #100663296	; 0x6000000
 8005e66:	687b      	ldr	r3, [r7, #4]
 8005e68:	6c1b      	ldr	r3, [r3, #64]	; 0x40
 8005e6a:	085b      	lsrs	r3, r3, #1
 8005e6c:	3b01      	subs	r3, #1
 8005e6e:	065b      	lsls	r3, r3, #25
 8005e70:	429a      	cmp	r2, r3
 8005e72:	d001      	beq.n	8005e78 <HAL_RCC_OscConfig+0x74c>
 8005e74:	2301      	movs	r3, #1
 8005e76:	e000      	b.n	8005e7a <HAL_RCC_OscConfig+0x74e>
 8005e78:	2300      	movs	r3, #0
 8005e7a:	4618      	mov	r0, r3
 8005e7c:	3720      	adds	r7, #32
 8005e7e:	46bd      	mov	sp, r7
 8005e80:	bd80      	pop	{r7, pc}
 8005e82:	bf00      	nop
 8005e84:	40021000 	.word	0x40021000
 8005e88:	f99d808c 	.word	0xf99d808c

08005e8c <HAL_RCC_ClockConfig>:
 8005e8c:	b580      	push	{r7, lr}
 8005e8e:	b084      	sub	sp, #16
 8005e90:	af00      	add	r7, sp, #0
 8005e92:	6078      	str	r0, [r7, #4]
 8005e94:	6039      	str	r1, [r7, #0]
 8005e96:	687b      	ldr	r3, [r7, #4]
 8005e98:	2b00      	cmp	r3, #0
 8005e9a:	d101      	bne.n	8005ea0 <HAL_RCC_ClockConfig+0x14>
 8005e9c:	2301      	movs	r3, #1
 8005e9e:	e0c8      	b.n	8006032 <HAL_RCC_ClockConfig+0x1a6>
 8005ea0:	4b66      	ldr	r3, [pc, #408]	; (800603c <HAL_RCC_ClockConfig+0x1b0>)
 8005ea2:	681b      	ldr	r3, [r3, #0]
 8005ea4:	f003 0307 	and.w	r3, r3, #7
 8005ea8:	683a      	ldr	r2, [r7, #0]
 8005eaa:	429a      	cmp	r2, r3
 8005eac:	d910      	bls.n	8005ed0 <HAL_RCC_ClockConfig+0x44>
 8005eae:	4b63      	ldr	r3, [pc, #396]	; (800603c <HAL_RCC_ClockConfig+0x1b0>)
 8005eb0:	681b      	ldr	r3, [r3, #0]
 8005eb2:	f023 0207 	bic.w	r2, r3, #7
 8005eb6:	4961      	ldr	r1, [pc, #388]	; (800603c <HAL_RCC_ClockConfig+0x1b0>)
 8005eb8:	683b      	ldr	r3, [r7, #0]
 8005eba:	4313      	orrs	r3, r2
 8005ebc:	600b      	str	r3, [r1, #0]
 8005ebe:	4b5f      	ldr	r3, [pc, #380]	; (800603c <HAL_RCC_ClockConfig+0x1b0>)
 8005ec0:	681b      	ldr	r3, [r3, #0]
 8005ec2:	f003 0307 	and.w	r3, r3, #7
 8005ec6:	683a      	ldr	r2, [r7, #0]
 8005ec8:	429a      	cmp	r2, r3
 8005eca:	d001      	beq.n	8005ed0 <HAL_RCC_ClockConfig+0x44>
 8005ecc:	2301      	movs	r3, #1
 8005ece:	e0b0      	b.n	8006032 <HAL_RCC_ClockConfig+0x1a6>
 8005ed0:	687b      	ldr	r3, [r7, #4]
 8005ed2:	681b      	ldr	r3, [r3, #0]
 8005ed4:	f003 0301 	and.w	r3, r3, #1
 8005ed8:	2b00      	cmp	r3, #0
 8005eda:	d04c      	beq.n	8005f76 <HAL_RCC_ClockConfig+0xea>
 8005edc:	687b      	ldr	r3, [r7, #4]
 8005ede:	685b      	ldr	r3, [r3, #4]
 8005ee0:	2b03      	cmp	r3, #3
 8005ee2:	d107      	bne.n	8005ef4 <HAL_RCC_ClockConfig+0x68>
 8005ee4:	4b56      	ldr	r3, [pc, #344]	; (8006040 <HAL_RCC_ClockConfig+0x1b4>)
 8005ee6:	681b      	ldr	r3, [r3, #0]
 8005ee8:	f003 7300 	and.w	r3, r3, #33554432	; 0x2000000
 8005eec:	2b00      	cmp	r3, #0
 8005eee:	d121      	bne.n	8005f34 <HAL_RCC_ClockConfig+0xa8>
 8005ef0:	2301      	movs	r3, #1
 8005ef2:	e09e      	b.n	8006032 <HAL_RCC_ClockConfig+0x1a6>
 8005ef4:	687b      	ldr	r3, [r7, #4]
 8005ef6:	685b      	ldr	r3, [r3, #4]
 8005ef8:	2b02      	cmp	r3, #2
 8005efa:	d107      	bne.n	8005f0c <HAL_RCC_ClockConfig+0x80>
 8005efc:	4b50      	ldr	r3, [pc, #320]	; (8006040 <HAL_RCC_ClockConfig+0x1b4>)
 8005efe:	681b      	ldr	r3, [r3, #0]
 8005f00:	f403 3300 	and.w	r3, r3, #131072	; 0x20000
 8005f04:	2b00      	cmp	r3, #0
 8005f06:	d115      	bne.n	8005f34 <HAL_RCC_ClockConfig+0xa8>
 8005f08:	2301      	movs	r3, #1
 8005f0a:	e092      	b.n	8006032 <HAL_RCC_ClockConfig+0x1a6>
 8005f0c:	687b      	ldr	r3, [r7, #4]
 8005f0e:	685b      	ldr	r3, [r3, #4]
 8005f10:	2b00      	cmp	r3, #0
 8005f12:	d107      	bne.n	8005f24 <HAL_RCC_ClockConfig+0x98>
 8005f14:	4b4a      	ldr	r3, [pc, #296]	; (8006040 <HAL_RCC_ClockConfig+0x1b4>)
 8005f16:	681b      	ldr	r3, [r3, #0]
 8005f18:	f003 0302 	and.w	r3, r3, #2
 8005f1c:	2b00      	cmp	r3, #0
 8005f1e:	d109      	bne.n	8005f34 <HAL_RCC_ClockConfig+0xa8>
 8005f20:	2301      	movs	r3, #1
 8005f22:	e086      	b.n	8006032 <HAL_RCC_ClockConfig+0x1a6>
 8005f24:	4b46      	ldr	r3, [pc, #280]	; (8006040 <HAL_RCC_ClockConfig+0x1b4>)
 8005f26:	681b      	ldr	r3, [r3, #0]
 8005f28:	f403 6380 	and.w	r3, r3, #1024	; 0x400
 8005f2c:	2b00      	cmp	r3, #0
 8005f2e:	d101      	bne.n	8005f34 <HAL_RCC_ClockConfig+0xa8>
 8005f30:	2301      	movs	r3, #1
 8005f32:	e07e      	b.n	8006032 <HAL_RCC_ClockConfig+0x1a6>
 8005f34:	4b42      	ldr	r3, [pc, #264]	; (8006040 <HAL_RCC_ClockConfig+0x1b4>)
 8005f36:	689b      	ldr	r3, [r3, #8]
 8005f38:	f023 0203 	bic.w	r2, r3, #3
 8005f3c:	687b      	ldr	r3, [r7, #4]
 8005f3e:	685b      	ldr	r3, [r3, #4]
 8005f40:	493f      	ldr	r1, [pc, #252]	; (8006040 <HAL_RCC_ClockConfig+0x1b4>)
 8005f42:	4313      	orrs	r3, r2
 8005f44:	608b      	str	r3, [r1, #8]
 8005f46:	f7fb fc23 	bl	8001790 <HAL_GetTick>
 8005f4a:	60f8      	str	r0, [r7, #12]
 8005f4c:	e00a      	b.n	8005f64 <HAL_RCC_ClockConfig+0xd8>
 8005f4e:	f7fb fc1f 	bl	8001790 <HAL_GetTick>
 8005f52:	4602      	mov	r2, r0
 8005f54:	68fb      	ldr	r3, [r7, #12]
 8005f56:	1ad3      	subs	r3, r2, r3
 8005f58:	f241 3288 	movw	r2, #5000	; 0x1388
 8005f5c:	4293      	cmp	r3, r2
 8005f5e:	d901      	bls.n	8005f64 <HAL_RCC_ClockConfig+0xd8>
 8005f60:	2303      	movs	r3, #3
 8005f62:	e066      	b.n	8006032 <HAL_RCC_ClockConfig+0x1a6>
 8005f64:	4b36      	ldr	r3, [pc, #216]	; (8006040 <HAL_RCC_ClockConfig+0x1b4>)
 8005f66:	689b      	ldr	r3, [r3, #8]
 8005f68:	f003 020c 	and.w	r2, r3, #12
 8005f6c:	687b      	ldr	r3, [r7, #4]
 8005f6e:	685b      	ldr	r3, [r3, #4]
 8005f70:	009b      	lsls	r3, r3, #2
 8005f72:	429a      	cmp	r2, r3
 8005f74:	d1eb      	bne.n	8005f4e <HAL_RCC_ClockConfig+0xc2>
 8005f76:	687b      	ldr	r3, [r7, #4]
 8005f78:	681b      	ldr	r3, [r3, #0]
 8005f7a:	f003 0302 	and.w	r3, r3, #2
 8005f7e:	2b00      	cmp	r3, #0
 8005f80:	d008      	beq.n	8005f94 <HAL_RCC_ClockConfig+0x108>
 8005f82:	4b2f      	ldr	r3, [pc, #188]	; (8006040 <HAL_RCC_ClockConfig+0x1b4>)
 8005f84:	689b      	ldr	r3, [r3, #8]
 8005f86:	f023 02f0 	bic.w	r2, r3, #240	; 0xf0
 8005f8a:	687b      	ldr	r3, [r7, #4]
 8005f8c:	689b      	ldr	r3, [r3, #8]
 8005f8e:	492c      	ldr	r1, [pc, #176]	; (8006040 <HAL_RCC_ClockConfig+0x1b4>)
 8005f90:	4313      	orrs	r3, r2
 8005f92:	608b      	str	r3, [r1, #8]
 8005f94:	4b29      	ldr	r3, [pc, #164]	; (800603c <HAL_RCC_ClockConfig+0x1b0>)
 8005f96:	681b      	ldr	r3, [r3, #0]
 8005f98:	f003 0307 	and.w	r3, r3, #7
 8005f9c:	683a      	ldr	r2, [r7, #0]
 8005f9e:	429a      	cmp	r2, r3
 8005fa0:	d210      	bcs.n	8005fc4 <HAL_RCC_ClockConfig+0x138>
 8005fa2:	4b26      	ldr	r3, [pc, #152]	; (800603c <HAL_RCC_ClockConfig+0x1b0>)
 8005fa4:	681b      	ldr	r3, [r3, #0]
 8005fa6:	f023 0207 	bic.w	r2, r3, #7
 8005faa:	4924      	ldr	r1, [pc, #144]	; (800603c <HAL_RCC_ClockConfig+0x1b0>)
 8005fac:	683b      	ldr	r3, [r7, #0]
 8005fae:	4313      	orrs	r3, r2
 8005fb0:	600b      	str	r3, [r1, #0]
 8005fb2:	4b22      	ldr	r3, [pc, #136]	; (800603c <HAL_RCC_ClockConfig+0x1b0>)
 8005fb4:	681b      	ldr	r3, [r3, #0]
 8005fb6:	f003 0307 	and.w	r3, r3, #7
 8005fba:	683a      	ldr	r2, [r7, #0]
 8005fbc:	429a      	cmp	r2, r3
 8005fbe:	d001      	beq.n	8005fc4 <HAL_RCC_ClockConfig+0x138>
 8005fc0:	2301      	movs	r3, #1
 8005fc2:	e036      	b.n	8006032 <HAL_RCC_ClockConfig+0x1a6>
 8005fc4:	687b      	ldr	r3, [r7, #4]
 8005fc6:	681b      	ldr	r3, [r3, #0]
 8005fc8:	f003 0304 	and.w	r3, r3, #4
 8005fcc:	2b00      	cmp	r3, #0
 8005fce:	d008      	beq.n	8005fe2 <HAL_RCC_ClockConfig+0x156>
 8005fd0:	4b1b      	ldr	r3, [pc, #108]	; (8006040 <HAL_RCC_ClockConfig+0x1b4>)
 8005fd2:	689b      	ldr	r3, [r3, #8]
 8005fd4:	f423 62e0 	bic.w	r2, r3, #1792	; 0x700
 8005fd8:	687b      	ldr	r3, [r7, #4]
 8005fda:	68db      	ldr	r3, [r3, #12]
 8005fdc:	4918      	ldr	r1, [pc, #96]	; (8006040 <HAL_RCC_ClockConfig+0x1b4>)
 8005fde:	4313      	orrs	r3, r2
 8005fe0:	608b      	str	r3, [r1, #8]
 8005fe2:	687b      	ldr	r3, [r7, #4]
 8005fe4:	681b      	ldr	r3, [r3, #0]
 8005fe6:	f003 0308 	and.w	r3, r3, #8
 8005fea:	2b00      	cmp	r3, #0
 8005fec:	d009      	beq.n	8006002 <HAL_RCC_ClockConfig+0x176>
 8005fee:	4b14      	ldr	r3, [pc, #80]	; (8006040 <HAL_RCC_ClockConfig+0x1b4>)
 8005ff0:	689b      	ldr	r3, [r3, #8]
 8005ff2:	f423 5260 	bic.w	r2, r3, #14336	; 0x3800
 8005ff6:	687b      	ldr	r3, [r7, #4]
 8005ff8:	691b      	ldr	r3, [r3, #16]
 8005ffa:	00db      	lsls	r3, r3, #3
 8005ffc:	4910      	ldr	r1, [pc, #64]	; (8006040 <HAL_RCC_ClockConfig+0x1b4>)
 8005ffe:	4313      	orrs	r3, r2
 8006000:	608b      	str	r3, [r1, #8]
 8006002:	f000 f825 	bl	8006050 <HAL_RCC_GetSysClockFreq>
 8006006:	4601      	mov	r1, r0
 8006008:	4b0d      	ldr	r3, [pc, #52]	; (8006040 <HAL_RCC_ClockConfig+0x1b4>)
 800600a:	689b      	ldr	r3, [r3, #8]
 800600c:	091b      	lsrs	r3, r3, #4
 800600e:	f003 030f 	and.w	r3, r3, #15
 8006012:	4a0c      	ldr	r2, [pc, #48]	; (8006044 <HAL_RCC_ClockConfig+0x1b8>)
 8006014:	5cd3      	ldrb	r3, [r2, r3]
 8006016:	f003 031f 	and.w	r3, r3, #31
 800601a:	fa21 f303 	lsr.w	r3, r1, r3
 800601e:	4a0a      	ldr	r2, [pc, #40]	; (8006048 <HAL_RCC_ClockConfig+0x1bc>)
 8006020:	6013      	str	r3, [r2, #0]
 8006022:	4b0a      	ldr	r3, [pc, #40]	; (800604c <HAL_RCC_ClockConfig+0x1c0>)
 8006024:	681b      	ldr	r3, [r3, #0]
 8006026:	4618      	mov	r0, r3
 8006028:	f7fb fb66 	bl	80016f8 <HAL_InitTick>
 800602c:	4603      	mov	r3, r0
 800602e:	72fb      	strb	r3, [r7, #11]
 8006030:	7afb      	ldrb	r3, [r7, #11]
 8006032:	4618      	mov	r0, r3
 8006034:	3710      	adds	r7, #16
 8006036:	46bd      	mov	sp, r7
 8006038:	bd80      	pop	{r7, pc}
 800603a:	bf00      	nop
 800603c:	40022000 	.word	0x40022000
 8006040:	40021000 	.word	0x40021000
 8006044:	0800aabc 	.word	0x0800aabc
 8006048:	20000000 	.word	0x20000000
 800604c:	20000004 	.word	0x20000004

08006050 <HAL_RCC_GetSysClockFreq>:
 8006050:	b480      	push	{r7}
 8006052:	b089      	sub	sp, #36	; 0x24
 8006054:	af00      	add	r7, sp, #0
 8006056:	2300      	movs	r3, #0
 8006058:	61fb      	str	r3, [r7, #28]
 800605a:	2300      	movs	r3, #0
 800605c:	61bb      	str	r3, [r7, #24]
 800605e:	4b3d      	ldr	r3, [pc, #244]	; (8006154 <HAL_RCC_GetSysClockFreq+0x104>)
 8006060:	689b      	ldr	r3, [r3, #8]
 8006062:	f003 030c 	and.w	r3, r3, #12
 8006066:	613b      	str	r3, [r7, #16]
 8006068:	4b3a      	ldr	r3, [pc, #232]	; (8006154 <HAL_RCC_GetSysClockFreq+0x104>)
 800606a:	68db      	ldr	r3, [r3, #12]
 800606c:	f003 0303 	and.w	r3, r3, #3
 8006070:	60fb      	str	r3, [r7, #12]
 8006072:	693b      	ldr	r3, [r7, #16]
 8006074:	2b00      	cmp	r3, #0
 8006076:	d005      	beq.n	8006084 <HAL_RCC_GetSysClockFreq+0x34>
 8006078:	693b      	ldr	r3, [r7, #16]
 800607a:	2b0c      	cmp	r3, #12
 800607c:	d121      	bne.n	80060c2 <HAL_RCC_GetSysClockFreq+0x72>
 800607e:	68fb      	ldr	r3, [r7, #12]
 8006080:	2b01      	cmp	r3, #1
 8006082:	d11e      	bne.n	80060c2 <HAL_RCC_GetSysClockFreq+0x72>
 8006084:	4b33      	ldr	r3, [pc, #204]	; (8006154 <HAL_RCC_GetSysClockFreq+0x104>)
 8006086:	681b      	ldr	r3, [r3, #0]
 8006088:	f003 0308 	and.w	r3, r3, #8
 800608c:	2b00      	cmp	r3, #0
 800608e:	d107      	bne.n	80060a0 <HAL_RCC_GetSysClockFreq+0x50>
 8006090:	4b30      	ldr	r3, [pc, #192]	; (8006154 <HAL_RCC_GetSysClockFreq+0x104>)
 8006092:	f8d3 3094 	ldr.w	r3, [r3, #148]	; 0x94
 8006096:	0a1b      	lsrs	r3, r3, #8
 8006098:	f003 030f 	and.w	r3, r3, #15
 800609c:	61fb      	str	r3, [r7, #28]
 800609e:	e005      	b.n	80060ac <HAL_RCC_GetSysClockFreq+0x5c>
 80060a0:	4b2c      	ldr	r3, [pc, #176]	; (8006154 <HAL_RCC_GetSysClockFreq+0x104>)
 80060a2:	681b      	ldr	r3, [r3, #0]
 80060a4:	091b      	lsrs	r3, r3, #4
 80060a6:	f003 030f 	and.w	r3, r3, #15
 80060aa:	61fb      	str	r3, [r7, #28]
 80060ac:	4a2a      	ldr	r2, [pc, #168]	; (8006158 <HAL_RCC_GetSysClockFreq+0x108>)
 80060ae:	69fb      	ldr	r3, [r7, #28]
 80060b0:	f852 3023 	ldr.w	r3, [r2, r3, lsl #2]
 80060b4:	61fb      	str	r3, [r7, #28]
 80060b6:	693b      	ldr	r3, [r7, #16]
 80060b8:	2b00      	cmp	r3, #0
 80060ba:	d10d      	bne.n	80060d8 <HAL_RCC_GetSysClockFreq+0x88>
 80060bc:	69fb      	ldr	r3, [r7, #28]
 80060be:	61bb      	str	r3, [r7, #24]
 80060c0:	e00a      	b.n	80060d8 <HAL_RCC_GetSysClockFreq+0x88>
 80060c2:	693b      	ldr	r3, [r7, #16]
 80060c4:	2b04      	cmp	r3, #4
 80060c6:	d102      	bne.n	80060ce <HAL_RCC_GetSysClockFreq+0x7e>
 80060c8:	4b24      	ldr	r3, [pc, #144]	; (800615c <HAL_RCC_GetSysClockFreq+0x10c>)
 80060ca:	61bb      	str	r3, [r7, #24]
 80060cc:	e004      	b.n	80060d8 <HAL_RCC_GetSysClockFreq+0x88>
 80060ce:	693b      	ldr	r3, [r7, #16]
 80060d0:	2b08      	cmp	r3, #8
 80060d2:	d101      	bne.n	80060d8 <HAL_RCC_GetSysClockFreq+0x88>
 80060d4:	4b22      	ldr	r3, [pc, #136]	; (8006160 <HAL_RCC_GetSysClockFreq+0x110>)
 80060d6:	61bb      	str	r3, [r7, #24]
 80060d8:	693b      	ldr	r3, [r7, #16]
 80060da:	2b0c      	cmp	r3, #12
 80060dc:	d133      	bne.n	8006146 <HAL_RCC_GetSysClockFreq+0xf6>
 80060de:	4b1d      	ldr	r3, [pc, #116]	; (8006154 <HAL_RCC_GetSysClockFreq+0x104>)
 80060e0:	68db      	ldr	r3, [r3, #12]
 80060e2:	f003 0303 	and.w	r3, r3, #3
 80060e6:	60bb      	str	r3, [r7, #8]
 80060e8:	68bb      	ldr	r3, [r7, #8]
 80060ea:	2b02      	cmp	r3, #2
 80060ec:	d002      	beq.n	80060f4 <HAL_RCC_GetSysClockFreq+0xa4>
 80060ee:	2b03      	cmp	r3, #3
 80060f0:	d003      	beq.n	80060fa <HAL_RCC_GetSysClockFreq+0xaa>
 80060f2:	e005      	b.n	8006100 <HAL_RCC_GetSysClockFreq+0xb0>
 80060f4:	4b19      	ldr	r3, [pc, #100]	; (800615c <HAL_RCC_GetSysClockFreq+0x10c>)
 80060f6:	617b      	str	r3, [r7, #20]
 80060f8:	e005      	b.n	8006106 <HAL_RCC_GetSysClockFreq+0xb6>
 80060fa:	4b19      	ldr	r3, [pc, #100]	; (8006160 <HAL_RCC_GetSysClockFreq+0x110>)
 80060fc:	617b      	str	r3, [r7, #20]
 80060fe:	e002      	b.n	8006106 <HAL_RCC_GetSysClockFreq+0xb6>
 8006100:	69fb      	ldr	r3, [r7, #28]
 8006102:	617b      	str	r3, [r7, #20]
 8006104:	bf00      	nop
 8006106:	4b13      	ldr	r3, [pc, #76]	; (8006154 <HAL_RCC_GetSysClockFreq+0x104>)
 8006108:	68db      	ldr	r3, [r3, #12]
 800610a:	091b      	lsrs	r3, r3, #4
 800610c:	f003 0307 	and.w	r3, r3, #7
 8006110:	3301      	adds	r3, #1
 8006112:	607b      	str	r3, [r7, #4]
 8006114:	4b0f      	ldr	r3, [pc, #60]	; (8006154 <HAL_RCC_GetSysClockFreq+0x104>)
 8006116:	68db      	ldr	r3, [r3, #12]
 8006118:	0a1b      	lsrs	r3, r3, #8
 800611a:	f003 037f 	and.w	r3, r3, #127	; 0x7f
 800611e:	697a      	ldr	r2, [r7, #20]
 8006120:	fb02 f203 	mul.w	r2, r2, r3
 8006124:	687b      	ldr	r3, [r7, #4]
 8006126:	fbb2 f3f3 	udiv	r3, r2, r3
 800612a:	617b      	str	r3, [r7, #20]
 800612c:	4b09      	ldr	r3, [pc, #36]	; (8006154 <HAL_RCC_GetSysClockFreq+0x104>)
 800612e:	68db      	ldr	r3, [r3, #12]
 8006130:	0e5b      	lsrs	r3, r3, #25
 8006132:	f003 0303 	and.w	r3, r3, #3
 8006136:	3301      	adds	r3, #1
 8006138:	005b      	lsls	r3, r3, #1
 800613a:	603b      	str	r3, [r7, #0]
 800613c:	697a      	ldr	r2, [r7, #20]
 800613e:	683b      	ldr	r3, [r7, #0]
 8006140:	fbb2 f3f3 	udiv	r3, r2, r3
 8006144:	61bb      	str	r3, [r7, #24]
 8006146:	69bb      	ldr	r3, [r7, #24]
 8006148:	4618      	mov	r0, r3
 800614a:	3724      	adds	r7, #36	; 0x24
 800614c:	46bd      	mov	sp, r7
 800614e:	f85d 7b04 	ldr.w	r7, [sp], #4
 8006152:	4770      	bx	lr
 8006154:	40021000 	.word	0x40021000
 8006158:	0800aad4 	.word	0x0800aad4
 800615c:	00f42400 	.word	0x00f42400
 8006160:	007a1200 	.word	0x007a1200

08006164 <HAL_RCC_GetHCLKFreq>:
 8006164:	b480      	push	{r7}
 8006166:	af00      	add	r7, sp, #0
 8006168:	4b03      	ldr	r3, [pc, #12]	; (8006178 <HAL_RCC_GetHCLKFreq+0x14>)
 800616a:	681b      	ldr	r3, [r3, #0]
 800616c:	4618      	mov	r0, r3
 800616e:	46bd      	mov	sp, r7
 8006170:	f85d 7b04 	ldr.w	r7, [sp], #4
 8006174:	4770      	bx	lr
 8006176:	bf00      	nop
 8006178:	20000000 	.word	0x20000000

0800617c <HAL_RCC_GetPCLK1Freq>:
 800617c:	b580      	push	{r7, lr}
 800617e:	af00      	add	r7, sp, #0
 8006180:	f7ff fff0 	bl	8006164 <HAL_RCC_GetHCLKFreq>
 8006184:	4601      	mov	r1, r0
 8006186:	4b06      	ldr	r3, [pc, #24]	; (80061a0 <HAL_RCC_GetPCLK1Freq+0x24>)
 8006188:	689b      	ldr	r3, [r3, #8]
 800618a:	0a1b      	lsrs	r3, r3, #8
 800618c:	f003 0307 	and.w	r3, r3, #7
 8006190:	4a04      	ldr	r2, [pc, #16]	; (80061a4 <HAL_RCC_GetPCLK1Freq+0x28>)
 8006192:	5cd3      	ldrb	r3, [r2, r3]
 8006194:	f003 031f 	and.w	r3, r3, #31
 8006198:	fa21 f303 	lsr.w	r3, r1, r3
 800619c:	4618      	mov	r0, r3
 800619e:	bd80      	pop	{r7, pc}
 80061a0:	40021000 	.word	0x40021000
 80061a4:	0800aacc 	.word	0x0800aacc

080061a8 <HAL_RCC_GetPCLK2Freq>:
 80061a8:	b580      	push	{r7, lr}
 80061aa:	af00      	add	r7, sp, #0
 80061ac:	f7ff ffda 	bl	8006164 <HAL_RCC_GetHCLKFreq>
 80061b0:	4601      	mov	r1, r0
 80061b2:	4b06      	ldr	r3, [pc, #24]	; (80061cc <HAL_RCC_GetPCLK2Freq+0x24>)
 80061b4:	689b      	ldr	r3, [r3, #8]
 80061b6:	0adb      	lsrs	r3, r3, #11
 80061b8:	f003 0307 	and.w	r3, r3, #7
 80061bc:	4a04      	ldr	r2, [pc, #16]	; (80061d0 <HAL_RCC_GetPCLK2Freq+0x28>)
 80061be:	5cd3      	ldrb	r3, [r2, r3]
 80061c0:	f003 031f 	and.w	r3, r3, #31
 80061c4:	fa21 f303 	lsr.w	r3, r1, r3
 80061c8:	4618      	mov	r0, r3
 80061ca:	bd80      	pop	{r7, pc}
 80061cc:	40021000 	.word	0x40021000
 80061d0:	0800aacc 	.word	0x0800aacc

080061d4 <RCC_SetFlashLatencyFromMSIRange>:
 80061d4:	b580      	push	{r7, lr}
 80061d6:	b086      	sub	sp, #24
 80061d8:	af00      	add	r7, sp, #0
 80061da:	6078      	str	r0, [r7, #4]
 80061dc:	2300      	movs	r3, #0
 80061de:	613b      	str	r3, [r7, #16]
 80061e0:	4b2a      	ldr	r3, [pc, #168]	; (800628c <RCC_SetFlashLatencyFromMSIRange+0xb8>)
 80061e2:	6d9b      	ldr	r3, [r3, #88]	; 0x58
 80061e4:	f003 5380 	and.w	r3, r3, #268435456	; 0x10000000
 80061e8:	2b00      	cmp	r3, #0
 80061ea:	d003      	beq.n	80061f4 <RCC_SetFlashLatencyFromMSIRange+0x20>
 80061ec:	f7ff f962 	bl	80054b4 <HAL_PWREx_GetVoltageRange>
 80061f0:	6178      	str	r0, [r7, #20]
 80061f2:	e014      	b.n	800621e <RCC_SetFlashLatencyFromMSIRange+0x4a>
 80061f4:	4b25      	ldr	r3, [pc, #148]	; (800628c <RCC_SetFlashLatencyFromMSIRange+0xb8>)
 80061f6:	6d9b      	ldr	r3, [r3, #88]	; 0x58
 80061f8:	4a24      	ldr	r2, [pc, #144]	; (800628c <RCC_SetFlashLatencyFromMSIRange+0xb8>)
 80061fa:	f043 5380 	orr.w	r3, r3, #268435456	; 0x10000000
 80061fe:	6593      	str	r3, [r2, #88]	; 0x58
 8006200:	4b22      	ldr	r3, [pc, #136]	; (800628c <RCC_SetFlashLatencyFromMSIRange+0xb8>)
 8006202:	6d9b      	ldr	r3, [r3, #88]	; 0x58
 8006204:	f003 5380 	and.w	r3, r3, #268435456	; 0x10000000
 8006208:	60fb      	str	r3, [r7, #12]
 800620a:	68fb      	ldr	r3, [r7, #12]
 800620c:	f7ff f952 	bl	80054b4 <HAL_PWREx_GetVoltageRange>
 8006210:	6178      	str	r0, [r7, #20]
 8006212:	4b1e      	ldr	r3, [pc, #120]	; (800628c <RCC_SetFlashLatencyFromMSIRange+0xb8>)
 8006214:	6d9b      	ldr	r3, [r3, #88]	; 0x58
 8006216:	4a1d      	ldr	r2, [pc, #116]	; (800628c <RCC_SetFlashLatencyFromMSIRange+0xb8>)
 8006218:	f023 5380 	bic.w	r3, r3, #268435456	; 0x10000000
 800621c:	6593      	str	r3, [r2, #88]	; 0x58
 800621e:	697b      	ldr	r3, [r7, #20]
 8006220:	f5b3 7f00 	cmp.w	r3, #512	; 0x200
 8006224:	d10b      	bne.n	800623e <RCC_SetFlashLatencyFromMSIRange+0x6a>
 8006226:	687b      	ldr	r3, [r7, #4]
 8006228:	2b80      	cmp	r3, #128	; 0x80
 800622a:	d919      	bls.n	8006260 <RCC_SetFlashLatencyFromMSIRange+0x8c>
 800622c:	687b      	ldr	r3, [r7, #4]
 800622e:	2ba0      	cmp	r3, #160	; 0xa0
 8006230:	d902      	bls.n	8006238 <RCC_SetFlashLatencyFromMSIRange+0x64>
 8006232:	2302      	movs	r3, #2
 8006234:	613b      	str	r3, [r7, #16]
 8006236:	e013      	b.n	8006260 <RCC_SetFlashLatencyFromMSIRange+0x8c>
 8006238:	2301      	movs	r3, #1
 800623a:	613b      	str	r3, [r7, #16]
 800623c:	e010      	b.n	8006260 <RCC_SetFlashLatencyFromMSIRange+0x8c>
 800623e:	687b      	ldr	r3, [r7, #4]
 8006240:	2b80      	cmp	r3, #128	; 0x80
 8006242:	d902      	bls.n	800624a <RCC_SetFlashLatencyFromMSIRange+0x76>
 8006244:	2303      	movs	r3, #3
 8006246:	613b      	str	r3, [r7, #16]
 8006248:	e00a      	b.n	8006260 <RCC_SetFlashLatencyFromMSIRange+0x8c>
 800624a:	687b      	ldr	r3, [r7, #4]
 800624c:	2b80      	cmp	r3, #128	; 0x80
 800624e:	d102      	bne.n	8006256 <RCC_SetFlashLatencyFromMSIRange+0x82>
 8006250:	2302      	movs	r3, #2
 8006252:	613b      	str	r3, [r7, #16]
 8006254:	e004      	b.n	8006260 <RCC_SetFlashLatencyFromMSIRange+0x8c>
 8006256:	687b      	ldr	r3, [r7, #4]
 8006258:	2b70      	cmp	r3, #112	; 0x70
 800625a:	d101      	bne.n	8006260 <RCC_SetFlashLatencyFromMSIRange+0x8c>
 800625c:	2301      	movs	r3, #1
 800625e:	613b      	str	r3, [r7, #16]
 8006260:	4b0b      	ldr	r3, [pc, #44]	; (8006290 <RCC_SetFlashLatencyFromMSIRange+0xbc>)
 8006262:	681b      	ldr	r3, [r3, #0]
 8006264:	f023 0207 	bic.w	r2, r3, #7
 8006268:	4909      	ldr	r1, [pc, #36]	; (8006290 <RCC_SetFlashLatencyFromMSIRange+0xbc>)
 800626a:	693b      	ldr	r3, [r7, #16]
 800626c:	4313      	orrs	r3, r2
 800626e:	600b      	str	r3, [r1, #0]
 8006270:	4b07      	ldr	r3, [pc, #28]	; (8006290 <RCC_SetFlashLatencyFromMSIRange+0xbc>)
 8006272:	681b      	ldr	r3, [r3, #0]
 8006274:	f003 0307 	and.w	r3, r3, #7
 8006278:	693a      	ldr	r2, [r7, #16]
 800627a:	429a      	cmp	r2, r3
 800627c:	d001      	beq.n	8006282 <RCC_SetFlashLatencyFromMSIRange+0xae>
 800627e:	2301      	movs	r3, #1
 8006280:	e000      	b.n	8006284 <RCC_SetFlashLatencyFromMSIRange+0xb0>
 8006282:	2300      	movs	r3, #0
 8006284:	4618      	mov	r0, r3
 8006286:	3718      	adds	r7, #24
 8006288:	46bd      	mov	sp, r7
 800628a:	bd80      	pop	{r7, pc}
 800628c:	40021000 	.word	0x40021000
 8006290:	40022000 	.word	0x40022000

08006294 <HAL_RCCEx_PeriphCLKConfig>:
 8006294:	b580      	push	{r7, lr}
 8006296:	b086      	sub	sp, #24
 8006298:	af00      	add	r7, sp, #0
 800629a:	6078      	str	r0, [r7, #4]
 800629c:	2300      	movs	r3, #0
 800629e:	74fb      	strb	r3, [r7, #19]
 80062a0:	2300      	movs	r3, #0
 80062a2:	74bb      	strb	r3, [r7, #18]
 80062a4:	687b      	ldr	r3, [r7, #4]
 80062a6:	681b      	ldr	r3, [r3, #0]
 80062a8:	f403 6300 	and.w	r3, r3, #2048	; 0x800
 80062ac:	2b00      	cmp	r3, #0
 80062ae:	d03f      	beq.n	8006330 <HAL_RCCEx_PeriphCLKConfig+0x9c>
 80062b0:	687b      	ldr	r3, [r7, #4]
 80062b2:	6e5b      	ldr	r3, [r3, #100]	; 0x64
 80062b4:	f5b3 0f80 	cmp.w	r3, #4194304	; 0x400000
 80062b8:	d01c      	beq.n	80062f4 <HAL_RCCEx_PeriphCLKConfig+0x60>
 80062ba:	f5b3 0f80 	cmp.w	r3, #4194304	; 0x400000
 80062be:	d802      	bhi.n	80062c6 <HAL_RCCEx_PeriphCLKConfig+0x32>
 80062c0:	2b00      	cmp	r3, #0
 80062c2:	d00e      	beq.n	80062e2 <HAL_RCCEx_PeriphCLKConfig+0x4e>
 80062c4:	e01f      	b.n	8006306 <HAL_RCCEx_PeriphCLKConfig+0x72>
 80062c6:	f5b3 0f00 	cmp.w	r3, #8388608	; 0x800000
 80062ca:	d003      	beq.n	80062d4 <HAL_RCCEx_PeriphCLKConfig+0x40>
 80062cc:	f5b3 0f40 	cmp.w	r3, #12582912	; 0xc00000
 80062d0:	d01c      	beq.n	800630c <HAL_RCCEx_PeriphCLKConfig+0x78>
 80062d2:	e018      	b.n	8006306 <HAL_RCCEx_PeriphCLKConfig+0x72>
 80062d4:	4b85      	ldr	r3, [pc, #532]	; (80064ec <HAL_RCCEx_PeriphCLKConfig+0x258>)
 80062d6:	68db      	ldr	r3, [r3, #12]
 80062d8:	4a84      	ldr	r2, [pc, #528]	; (80064ec <HAL_RCCEx_PeriphCLKConfig+0x258>)
 80062da:	f443 3380 	orr.w	r3, r3, #65536	; 0x10000
 80062de:	60d3      	str	r3, [r2, #12]
 80062e0:	e015      	b.n	800630e <HAL_RCCEx_PeriphCLKConfig+0x7a>
 80062e2:	687b      	ldr	r3, [r7, #4]
 80062e4:	3304      	adds	r3, #4
 80062e6:	2100      	movs	r1, #0
 80062e8:	4618      	mov	r0, r3
 80062ea:	f000 ff41 	bl	8007170 <RCCEx_PLLSAI1_Config>
 80062ee:	4603      	mov	r3, r0
 80062f0:	74fb      	strb	r3, [r7, #19]
 80062f2:	e00c      	b.n	800630e <HAL_RCCEx_PeriphCLKConfig+0x7a>
 80062f4:	687b      	ldr	r3, [r7, #4]
 80062f6:	3320      	adds	r3, #32
 80062f8:	2100      	movs	r1, #0
 80062fa:	4618      	mov	r0, r3
 80062fc:	f001 f828 	bl	8007350 <RCCEx_PLLSAI2_Config>
 8006300:	4603      	mov	r3, r0
 8006302:	74fb      	strb	r3, [r7, #19]
 8006304:	e003      	b.n	800630e <HAL_RCCEx_PeriphCLKConfig+0x7a>
 8006306:	2301      	movs	r3, #1
 8006308:	74fb      	strb	r3, [r7, #19]
 800630a:	e000      	b.n	800630e <HAL_RCCEx_PeriphCLKConfig+0x7a>
 800630c:	bf00      	nop
 800630e:	7cfb      	ldrb	r3, [r7, #19]
 8006310:	2b00      	cmp	r3, #0
 8006312:	d10b      	bne.n	800632c <HAL_RCCEx_PeriphCLKConfig+0x98>
 8006314:	4b75      	ldr	r3, [pc, #468]	; (80064ec <HAL_RCCEx_PeriphCLKConfig+0x258>)
 8006316:	f8d3 3088 	ldr.w	r3, [r3, #136]	; 0x88
 800631a:	f423 0240 	bic.w	r2, r3, #12582912	; 0xc00000
 800631e:	687b      	ldr	r3, [r7, #4]
 8006320:	6e5b      	ldr	r3, [r3, #100]	; 0x64
 8006322:	4972      	ldr	r1, [pc, #456]	; (80064ec <HAL_RCCEx_PeriphCLKConfig+0x258>)
 8006324:	4313      	orrs	r3, r2
 8006326:	f8c1 3088 	str.w	r3, [r1, #136]	; 0x88
 800632a:	e001      	b.n	8006330 <HAL_RCCEx_PeriphCLKConfig+0x9c>
 800632c:	7cfb      	ldrb	r3, [r7, #19]
 800632e:	74bb      	strb	r3, [r7, #18]
 8006330:	687b      	ldr	r3, [r7, #4]
 8006332:	681b      	ldr	r3, [r3, #0]
 8006334:	f403 5380 	and.w	r3, r3, #4096	; 0x1000
 8006338:	2b00      	cmp	r3, #0
 800633a:	d03f      	beq.n	80063bc <HAL_RCCEx_PeriphCLKConfig+0x128>
 800633c:	687b      	ldr	r3, [r7, #4]
 800633e:	6e9b      	ldr	r3, [r3, #104]	; 0x68
 8006340:	f1b3 7f80 	cmp.w	r3, #16777216	; 0x1000000
 8006344:	d01c      	beq.n	8006380 <HAL_RCCEx_PeriphCLKConfig+0xec>
 8006346:	f1b3 7f80 	cmp.w	r3, #16777216	; 0x1000000
 800634a:	d802      	bhi.n	8006352 <HAL_RCCEx_PeriphCLKConfig+0xbe>
 800634c:	2b00      	cmp	r3, #0
 800634e:	d00e      	beq.n	800636e <HAL_RCCEx_PeriphCLKConfig+0xda>
 8006350:	e01f      	b.n	8006392 <HAL_RCCEx_PeriphCLKConfig+0xfe>
 8006352:	f1b3 7f00 	cmp.w	r3, #33554432	; 0x2000000
 8006356:	d003      	beq.n	8006360 <HAL_RCCEx_PeriphCLKConfig+0xcc>
 8006358:	f1b3 7f40 	cmp.w	r3, #50331648	; 0x3000000
 800635c:	d01c      	beq.n	8006398 <HAL_RCCEx_PeriphCLKConfig+0x104>
 800635e:	e018      	b.n	8006392 <HAL_RCCEx_PeriphCLKConfig+0xfe>
 8006360:	4b62      	ldr	r3, [pc, #392]	; (80064ec <HAL_RCCEx_PeriphCLKConfig+0x258>)
 8006362:	68db      	ldr	r3, [r3, #12]
 8006364:	4a61      	ldr	r2, [pc, #388]	; (80064ec <HAL_RCCEx_PeriphCLKConfig+0x258>)
 8006366:	f443 3380 	orr.w	r3, r3, #65536	; 0x10000
 800636a:	60d3      	str	r3, [r2, #12]
 800636c:	e015      	b.n	800639a <HAL_RCCEx_PeriphCLKConfig+0x106>
 800636e:	687b      	ldr	r3, [r7, #4]
 8006370:	3304      	adds	r3, #4
 8006372:	2100      	movs	r1, #0
 8006374:	4618      	mov	r0, r3
 8006376:	f000 fefb 	bl	8007170 <RCCEx_PLLSAI1_Config>
 800637a:	4603      	mov	r3, r0
 800637c:	74fb      	strb	r3, [r7, #19]
 800637e:	e00c      	b.n	800639a <HAL_RCCEx_PeriphCLKConfig+0x106>
 8006380:	687b      	ldr	r3, [r7, #4]
 8006382:	3320      	adds	r3, #32
 8006384:	2100      	movs	r1, #0
 8006386:	4618      	mov	r0, r3
 8006388:	f000 ffe2 	bl	8007350 <RCCEx_PLLSAI2_Config>
 800638c:	4603      	mov	r3, r0
 800638e:	74fb      	strb	r3, [r7, #19]
 8006390:	e003      	b.n	800639a <HAL_RCCEx_PeriphCLKConfig+0x106>
 8006392:	2301      	movs	r3, #1
 8006394:	74fb      	strb	r3, [r7, #19]
 8006396:	e000      	b.n	800639a <HAL_RCCEx_PeriphCLKConfig+0x106>
 8006398:	bf00      	nop
 800639a:	7cfb      	ldrb	r3, [r7, #19]
 800639c:	2b00      	cmp	r3, #0
 800639e:	d10b      	bne.n	80063b8 <HAL_RCCEx_PeriphCLKConfig+0x124>
 80063a0:	4b52      	ldr	r3, [pc, #328]	; (80064ec <HAL_RCCEx_PeriphCLKConfig+0x258>)
 80063a2:	f8d3 3088 	ldr.w	r3, [r3, #136]	; 0x88
 80063a6:	f023 7240 	bic.w	r2, r3, #50331648	; 0x3000000
 80063aa:	687b      	ldr	r3, [r7, #4]
 80063ac:	6e9b      	ldr	r3, [r3, #104]	; 0x68
 80063ae:	494f      	ldr	r1, [pc, #316]	; (80064ec <HAL_RCCEx_PeriphCLKConfig+0x258>)
 80063b0:	4313      	orrs	r3, r2
 80063b2:	f8c1 3088 	str.w	r3, [r1, #136]	; 0x88
 80063b6:	e001      	b.n	80063bc <HAL_RCCEx_PeriphCLKConfig+0x128>
 80063b8:	7cfb      	ldrb	r3, [r7, #19]
 80063ba:	74bb      	strb	r3, [r7, #18]
 80063bc:	687b      	ldr	r3, [r7, #4]
 80063be:	681b      	ldr	r3, [r3, #0]
 80063c0:	f403 3300 	and.w	r3, r3, #131072	; 0x20000
 80063c4:	2b00      	cmp	r3, #0
 80063c6:	f000 80a0 	beq.w	800650a <HAL_RCCEx_PeriphCLKConfig+0x276>
 80063ca:	2300      	movs	r3, #0
 80063cc:	747b      	strb	r3, [r7, #17]
 80063ce:	4b47      	ldr	r3, [pc, #284]	; (80064ec <HAL_RCCEx_PeriphCLKConfig+0x258>)
 80063d0:	6d9b      	ldr	r3, [r3, #88]	; 0x58
 80063d2:	f003 5380 	and.w	r3, r3, #268435456	; 0x10000000
 80063d6:	2b00      	cmp	r3, #0
 80063d8:	d101      	bne.n	80063de <HAL_RCCEx_PeriphCLKConfig+0x14a>
 80063da:	2301      	movs	r3, #1
 80063dc:	e000      	b.n	80063e0 <HAL_RCCEx_PeriphCLKConfig+0x14c>
 80063de:	2300      	movs	r3, #0
 80063e0:	2b00      	cmp	r3, #0
 80063e2:	d00d      	beq.n	8006400 <HAL_RCCEx_PeriphCLKConfig+0x16c>
 80063e4:	4b41      	ldr	r3, [pc, #260]	; (80064ec <HAL_RCCEx_PeriphCLKConfig+0x258>)
 80063e6:	6d9b      	ldr	r3, [r3, #88]	; 0x58
 80063e8:	4a40      	ldr	r2, [pc, #256]	; (80064ec <HAL_RCCEx_PeriphCLKConfig+0x258>)
 80063ea:	f043 5380 	orr.w	r3, r3, #268435456	; 0x10000000
 80063ee:	6593      	str	r3, [r2, #88]	; 0x58
 80063f0:	4b3e      	ldr	r3, [pc, #248]	; (80064ec <HAL_RCCEx_PeriphCLKConfig+0x258>)
 80063f2:	6d9b      	ldr	r3, [r3, #88]	; 0x58
 80063f4:	f003 5380 	and.w	r3, r3, #268435456	; 0x10000000
 80063f8:	60bb      	str	r3, [r7, #8]
 80063fa:	68bb      	ldr	r3, [r7, #8]
 80063fc:	2301      	movs	r3, #1
 80063fe:	747b      	strb	r3, [r7, #17]
 8006400:	4b3b      	ldr	r3, [pc, #236]	; (80064f0 <HAL_RCCEx_PeriphCLKConfig+0x25c>)
 8006402:	681b      	ldr	r3, [r3, #0]
 8006404:	4a3a      	ldr	r2, [pc, #232]	; (80064f0 <HAL_RCCEx_PeriphCLKConfig+0x25c>)
 8006406:	f443 7380 	orr.w	r3, r3, #256	; 0x100
 800640a:	6013      	str	r3, [r2, #0]
 800640c:	f7fb f9c0 	bl	8001790 <HAL_GetTick>
 8006410:	60f8      	str	r0, [r7, #12]
 8006412:	e009      	b.n	8006428 <HAL_RCCEx_PeriphCLKConfig+0x194>
 8006414:	f7fb f9bc 	bl	8001790 <HAL_GetTick>
 8006418:	4602      	mov	r2, r0
 800641a:	68fb      	ldr	r3, [r7, #12]
 800641c:	1ad3      	subs	r3, r2, r3
 800641e:	2b02      	cmp	r3, #2
 8006420:	d902      	bls.n	8006428 <HAL_RCCEx_PeriphCLKConfig+0x194>
 8006422:	2303      	movs	r3, #3
 8006424:	74fb      	strb	r3, [r7, #19]
 8006426:	e005      	b.n	8006434 <HAL_RCCEx_PeriphCLKConfig+0x1a0>
 8006428:	4b31      	ldr	r3, [pc, #196]	; (80064f0 <HAL_RCCEx_PeriphCLKConfig+0x25c>)
 800642a:	681b      	ldr	r3, [r3, #0]
 800642c:	f403 7380 	and.w	r3, r3, #256	; 0x100
 8006430:	2b00      	cmp	r3, #0
 8006432:	d0ef      	beq.n	8006414 <HAL_RCCEx_PeriphCLKConfig+0x180>
 8006434:	7cfb      	ldrb	r3, [r7, #19]
 8006436:	2b00      	cmp	r3, #0
 8006438:	d15c      	bne.n	80064f4 <HAL_RCCEx_PeriphCLKConfig+0x260>
 800643a:	4b2c      	ldr	r3, [pc, #176]	; (80064ec <HAL_RCCEx_PeriphCLKConfig+0x258>)
 800643c:	f8d3 3090 	ldr.w	r3, [r3, #144]	; 0x90
 8006440:	f403 7340 	and.w	r3, r3, #768	; 0x300
 8006444:	617b      	str	r3, [r7, #20]
 8006446:	697b      	ldr	r3, [r7, #20]
 8006448:	2b00      	cmp	r3, #0
 800644a:	d01f      	beq.n	800648c <HAL_RCCEx_PeriphCLKConfig+0x1f8>
 800644c:	687b      	ldr	r3, [r7, #4]
 800644e:	f8d3 3084 	ldr.w	r3, [r3, #132]	; 0x84
 8006452:	697a      	ldr	r2, [r7, #20]
 8006454:	429a      	cmp	r2, r3
 8006456:	d019      	beq.n	800648c <HAL_RCCEx_PeriphCLKConfig+0x1f8>
 8006458:	4b24      	ldr	r3, [pc, #144]	; (80064ec <HAL_RCCEx_PeriphCLKConfig+0x258>)
 800645a:	f8d3 3090 	ldr.w	r3, [r3, #144]	; 0x90
 800645e:	f423 7340 	bic.w	r3, r3, #768	; 0x300
 8006462:	617b      	str	r3, [r7, #20]
 8006464:	4b21      	ldr	r3, [pc, #132]	; (80064ec <HAL_RCCEx_PeriphCLKConfig+0x258>)
 8006466:	f8d3 3090 	ldr.w	r3, [r3, #144]	; 0x90
 800646a:	4a20      	ldr	r2, [pc, #128]	; (80064ec <HAL_RCCEx_PeriphCLKConfig+0x258>)
 800646c:	f443 3380 	orr.w	r3, r3, #65536	; 0x10000
 8006470:	f8c2 3090 	str.w	r3, [r2, #144]	; 0x90
 8006474:	4b1d      	ldr	r3, [pc, #116]	; (80064ec <HAL_RCCEx_PeriphCLKConfig+0x258>)
 8006476:	f8d3 3090 	ldr.w	r3, [r3, #144]	; 0x90
 800647a:	4a1c      	ldr	r2, [pc, #112]	; (80064ec <HAL_RCCEx_PeriphCLKConfig+0x258>)
 800647c:	f423 3380 	bic.w	r3, r3, #65536	; 0x10000
 8006480:	f8c2 3090 	str.w	r3, [r2, #144]	; 0x90
 8006484:	4a19      	ldr	r2, [pc, #100]	; (80064ec <HAL_RCCEx_PeriphCLKConfig+0x258>)
 8006486:	697b      	ldr	r3, [r7, #20]
 8006488:	f8c2 3090 	str.w	r3, [r2, #144]	; 0x90
 800648c:	697b      	ldr	r3, [r7, #20]
 800648e:	f003 0301 	and.w	r3, r3, #1
 8006492:	2b00      	cmp	r3, #0
 8006494:	d016      	beq.n	80064c4 <HAL_RCCEx_PeriphCLKConfig+0x230>
 8006496:	f7fb f97b 	bl	8001790 <HAL_GetTick>
 800649a:	60f8      	str	r0, [r7, #12]
 800649c:	e00b      	b.n	80064b6 <HAL_RCCEx_PeriphCLKConfig+0x222>
 800649e:	f7fb f977 	bl	8001790 <HAL_GetTick>
 80064a2:	4602      	mov	r2, r0
 80064a4:	68fb      	ldr	r3, [r7, #12]
 80064a6:	1ad3      	subs	r3, r2, r3
 80064a8:	f241 3288 	movw	r2, #5000	; 0x1388
 80064ac:	4293      	cmp	r3, r2
 80064ae:	d902      	bls.n	80064b6 <HAL_RCCEx_PeriphCLKConfig+0x222>
 80064b0:	2303      	movs	r3, #3
 80064b2:	74fb      	strb	r3, [r7, #19]
 80064b4:	e006      	b.n	80064c4 <HAL_RCCEx_PeriphCLKConfig+0x230>
 80064b6:	4b0d      	ldr	r3, [pc, #52]	; (80064ec <HAL_RCCEx_PeriphCLKConfig+0x258>)
 80064b8:	f8d3 3090 	ldr.w	r3, [r3, #144]	; 0x90
 80064bc:	f003 0302 	and.w	r3, r3, #2
 80064c0:	2b00      	cmp	r3, #0
 80064c2:	d0ec      	beq.n	800649e <HAL_RCCEx_PeriphCLKConfig+0x20a>
 80064c4:	7cfb      	ldrb	r3, [r7, #19]
 80064c6:	2b00      	cmp	r3, #0
 80064c8:	d10c      	bne.n	80064e4 <HAL_RCCEx_PeriphCLKConfig+0x250>
 80064ca:	4b08      	ldr	r3, [pc, #32]	; (80064ec <HAL_RCCEx_PeriphCLKConfig+0x258>)
 80064cc:	f8d3 3090 	ldr.w	r3, [r3, #144]	; 0x90
 80064d0:	f423 7240 	bic.w	r2, r3, #768	; 0x300
 80064d4:	687b      	ldr	r3, [r7, #4]
 80064d6:	f8d3 3084 	ldr.w	r3, [r3, #132]	; 0x84
 80064da:	4904      	ldr	r1, [pc, #16]	; (80064ec <HAL_RCCEx_PeriphCLKConfig+0x258>)
 80064dc:	4313      	orrs	r3, r2
 80064de:	f8c1 3090 	str.w	r3, [r1, #144]	; 0x90
 80064e2:	e009      	b.n	80064f8 <HAL_RCCEx_PeriphCLKConfig+0x264>
 80064e4:	7cfb      	ldrb	r3, [r7, #19]
 80064e6:	74bb      	strb	r3, [r7, #18]
 80064e8:	e006      	b.n	80064f8 <HAL_RCCEx_PeriphCLKConfig+0x264>
 80064ea:	bf00      	nop
 80064ec:	40021000 	.word	0x40021000
 80064f0:	40007000 	.word	0x40007000
 80064f4:	7cfb      	ldrb	r3, [r7, #19]
 80064f6:	74bb      	strb	r3, [r7, #18]
 80064f8:	7c7b      	ldrb	r3, [r7, #17]
 80064fa:	2b01      	cmp	r3, #1
 80064fc:	d105      	bne.n	800650a <HAL_RCCEx_PeriphCLKConfig+0x276>
 80064fe:	4b9e      	ldr	r3, [pc, #632]	; (8006778 <HAL_RCCEx_PeriphCLKConfig+0x4e4>)
 8006500:	6d9b      	ldr	r3, [r3, #88]	; 0x58
 8006502:	4a9d      	ldr	r2, [pc, #628]	; (8006778 <HAL_RCCEx_PeriphCLKConfig+0x4e4>)
 8006504:	f023 5380 	bic.w	r3, r3, #268435456	; 0x10000000
 8006508:	6593      	str	r3, [r2, #88]	; 0x58
 800650a:	687b      	ldr	r3, [r7, #4]
 800650c:	681b      	ldr	r3, [r3, #0]
 800650e:	f003 0301 	and.w	r3, r3, #1
 8006512:	2b00      	cmp	r3, #0
 8006514:	d00a      	beq.n	800652c <HAL_RCCEx_PeriphCLKConfig+0x298>
 8006516:	4b98      	ldr	r3, [pc, #608]	; (8006778 <HAL_RCCEx_PeriphCLKConfig+0x4e4>)
 8006518:	f8d3 3088 	ldr.w	r3, [r3, #136]	; 0x88
 800651c:	f023 0203 	bic.w	r2, r3, #3
 8006520:	687b      	ldr	r3, [r7, #4]
 8006522:	6b9b      	ldr	r3, [r3, #56]	; 0x38
 8006524:	4994      	ldr	r1, [pc, #592]	; (8006778 <HAL_RCCEx_PeriphCLKConfig+0x4e4>)
 8006526:	4313      	orrs	r3, r2
 8006528:	f8c1 3088 	str.w	r3, [r1, #136]	; 0x88
 800652c:	687b      	ldr	r3, [r7, #4]
 800652e:	681b      	ldr	r3, [r3, #0]
 8006530:	f003 0302 	and.w	r3, r3, #2
 8006534:	2b00      	cmp	r3, #0
 8006536:	d00a      	beq.n	800654e <HAL_RCCEx_PeriphCLKConfig+0x2ba>
 8006538:	4b8f      	ldr	r3, [pc, #572]	; (8006778 <HAL_RCCEx_PeriphCLKConfig+0x4e4>)
 800653a:	f8d3 3088 	ldr.w	r3, [r3, #136]	; 0x88
 800653e:	f023 020c 	bic.w	r2, r3, #12
 8006542:	687b      	ldr	r3, [r7, #4]
 8006544:	6bdb      	ldr	r3, [r3, #60]	; 0x3c
 8006546:	498c      	ldr	r1, [pc, #560]	; (8006778 <HAL_RCCEx_PeriphCLKConfig+0x4e4>)
 8006548:	4313      	orrs	r3, r2
 800654a:	f8c1 3088 	str.w	r3, [r1, #136]	; 0x88
 800654e:	687b      	ldr	r3, [r7, #4]
 8006550:	681b      	ldr	r3, [r3, #0]
 8006552:	f003 0304 	and.w	r3, r3, #4
 8006556:	2b00      	cmp	r3, #0
 8006558:	d00a      	beq.n	8006570 <HAL_RCCEx_PeriphCLKConfig+0x2dc>
 800655a:	4b87      	ldr	r3, [pc, #540]	; (8006778 <HAL_RCCEx_PeriphCLKConfig+0x4e4>)
 800655c:	f8d3 3088 	ldr.w	r3, [r3, #136]	; 0x88
 8006560:	f023 0230 	bic.w	r2, r3, #48	; 0x30
 8006564:	687b      	ldr	r3, [r7, #4]
 8006566:	6c1b      	ldr	r3, [r3, #64]	; 0x40
 8006568:	4983      	ldr	r1, [pc, #524]	; (8006778 <HAL_RCCEx_PeriphCLKConfig+0x4e4>)
 800656a:	4313      	orrs	r3, r2
 800656c:	f8c1 3088 	str.w	r3, [r1, #136]	; 0x88
 8006570:	687b      	ldr	r3, [r7, #4]
 8006572:	681b      	ldr	r3, [r3, #0]
 8006574:	f003 0308 	and.w	r3, r3, #8
 8006578:	2b00      	cmp	r3, #0
 800657a:	d00a      	beq.n	8006592 <HAL_RCCEx_PeriphCLKConfig+0x2fe>
 800657c:	4b7e      	ldr	r3, [pc, #504]	; (8006778 <HAL_RCCEx_PeriphCLKConfig+0x4e4>)
 800657e:	f8d3 3088 	ldr.w	r3, [r3, #136]	; 0x88
 8006582:	f023 02c0 	bic.w	r2, r3, #192	; 0xc0
 8006586:	687b      	ldr	r3, [r7, #4]
 8006588:	6c5b      	ldr	r3, [r3, #68]	; 0x44
 800658a:	497b      	ldr	r1, [pc, #492]	; (8006778 <HAL_RCCEx_PeriphCLKConfig+0x4e4>)
 800658c:	4313      	orrs	r3, r2
 800658e:	f8c1 3088 	str.w	r3, [r1, #136]	; 0x88
 8006592:	687b      	ldr	r3, [r7, #4]
 8006594:	681b      	ldr	r3, [r3, #0]
 8006596:	f003 0310 	and.w	r3, r3, #16
 800659a:	2b00      	cmp	r3, #0
 800659c:	d00a      	beq.n	80065b4 <HAL_RCCEx_PeriphCLKConfig+0x320>
 800659e:	4b76      	ldr	r3, [pc, #472]	; (8006778 <HAL_RCCEx_PeriphCLKConfig+0x4e4>)
 80065a0:	f8d3 3088 	ldr.w	r3, [r3, #136]	; 0x88
 80065a4:	f423 7240 	bic.w	r2, r3, #768	; 0x300
 80065a8:	687b      	ldr	r3, [r7, #4]
 80065aa:	6c9b      	ldr	r3, [r3, #72]	; 0x48
 80065ac:	4972      	ldr	r1, [pc, #456]	; (8006778 <HAL_RCCEx_PeriphCLKConfig+0x4e4>)
 80065ae:	4313      	orrs	r3, r2
 80065b0:	f8c1 3088 	str.w	r3, [r1, #136]	; 0x88
 80065b4:	687b      	ldr	r3, [r7, #4]
 80065b6:	681b      	ldr	r3, [r3, #0]
 80065b8:	f003 0320 	and.w	r3, r3, #32
 80065bc:	2b00      	cmp	r3, #0
 80065be:	d00a      	beq.n	80065d6 <HAL_RCCEx_PeriphCLKConfig+0x342>
 80065c0:	4b6d      	ldr	r3, [pc, #436]	; (8006778 <HAL_RCCEx_PeriphCLKConfig+0x4e4>)
 80065c2:	f8d3 3088 	ldr.w	r3, [r3, #136]	; 0x88
 80065c6:	f423 6240 	bic.w	r2, r3, #3072	; 0xc00
 80065ca:	687b      	ldr	r3, [r7, #4]
 80065cc:	6cdb      	ldr	r3, [r3, #76]	; 0x4c
 80065ce:	496a      	ldr	r1, [pc, #424]	; (8006778 <HAL_RCCEx_PeriphCLKConfig+0x4e4>)
 80065d0:	4313      	orrs	r3, r2
 80065d2:	f8c1 3088 	str.w	r3, [r1, #136]	; 0x88
 80065d6:	687b      	ldr	r3, [r7, #4]
 80065d8:	681b      	ldr	r3, [r3, #0]
 80065da:	f403 7300 	and.w	r3, r3, #512	; 0x200
 80065de:	2b00      	cmp	r3, #0
 80065e0:	d00a      	beq.n	80065f8 <HAL_RCCEx_PeriphCLKConfig+0x364>
 80065e2:	4b65      	ldr	r3, [pc, #404]	; (8006778 <HAL_RCCEx_PeriphCLKConfig+0x4e4>)
 80065e4:	f8d3 3088 	ldr.w	r3, [r3, #136]	; 0x88
 80065e8:	f423 2240 	bic.w	r2, r3, #786432	; 0xc0000
 80065ec:	687b      	ldr	r3, [r7, #4]
 80065ee:	6ddb      	ldr	r3, [r3, #92]	; 0x5c
 80065f0:	4961      	ldr	r1, [pc, #388]	; (8006778 <HAL_RCCEx_PeriphCLKConfig+0x4e4>)
 80065f2:	4313      	orrs	r3, r2
 80065f4:	f8c1 3088 	str.w	r3, [r1, #136]	; 0x88
 80065f8:	687b      	ldr	r3, [r7, #4]
 80065fa:	681b      	ldr	r3, [r3, #0]
 80065fc:	f403 6380 	and.w	r3, r3, #1024	; 0x400
 8006600:	2b00      	cmp	r3, #0
 8006602:	d00a      	beq.n	800661a <HAL_RCCEx_PeriphCLKConfig+0x386>
 8006604:	4b5c      	ldr	r3, [pc, #368]	; (8006778 <HAL_RCCEx_PeriphCLKConfig+0x4e4>)
 8006606:	f8d3 3088 	ldr.w	r3, [r3, #136]	; 0x88
 800660a:	f423 1240 	bic.w	r2, r3, #3145728	; 0x300000
 800660e:	687b      	ldr	r3, [r7, #4]
 8006610:	6e1b      	ldr	r3, [r3, #96]	; 0x60
 8006612:	4959      	ldr	r1, [pc, #356]	; (8006778 <HAL_RCCEx_PeriphCLKConfig+0x4e4>)
 8006614:	4313      	orrs	r3, r2
 8006616:	f8c1 3088 	str.w	r3, [r1, #136]	; 0x88
 800661a:	687b      	ldr	r3, [r7, #4]
 800661c:	681b      	ldr	r3, [r3, #0]
 800661e:	f003 0340 	and.w	r3, r3, #64	; 0x40
 8006622:	2b00      	cmp	r3, #0
 8006624:	d00a      	beq.n	800663c <HAL_RCCEx_PeriphCLKConfig+0x3a8>
 8006626:	4b54      	ldr	r3, [pc, #336]	; (8006778 <HAL_RCCEx_PeriphCLKConfig+0x4e4>)
 8006628:	f8d3 3088 	ldr.w	r3, [r3, #136]	; 0x88
 800662c:	f423 5240 	bic.w	r2, r3, #12288	; 0x3000
 8006630:	687b      	ldr	r3, [r7, #4]
 8006632:	6d1b      	ldr	r3, [r3, #80]	; 0x50
 8006634:	4950      	ldr	r1, [pc, #320]	; (8006778 <HAL_RCCEx_PeriphCLKConfig+0x4e4>)
 8006636:	4313      	orrs	r3, r2
 8006638:	f8c1 3088 	str.w	r3, [r1, #136]	; 0x88
 800663c:	687b      	ldr	r3, [r7, #4]
 800663e:	681b      	ldr	r3, [r3, #0]
 8006640:	f003 0380 	and.w	r3, r3, #128	; 0x80
 8006644:	2b00      	cmp	r3, #0
 8006646:	d00a      	beq.n	800665e <HAL_RCCEx_PeriphCLKConfig+0x3ca>
 8006648:	4b4b      	ldr	r3, [pc, #300]	; (8006778 <HAL_RCCEx_PeriphCLKConfig+0x4e4>)
 800664a:	f8d3 3088 	ldr.w	r3, [r3, #136]	; 0x88
 800664e:	f423 4240 	bic.w	r2, r3, #49152	; 0xc000
 8006652:	687b      	ldr	r3, [r7, #4]
 8006654:	6d5b      	ldr	r3, [r3, #84]	; 0x54
 8006656:	4948      	ldr	r1, [pc, #288]	; (8006778 <HAL_RCCEx_PeriphCLKConfig+0x4e4>)
 8006658:	4313      	orrs	r3, r2
 800665a:	f8c1 3088 	str.w	r3, [r1, #136]	; 0x88
 800665e:	687b      	ldr	r3, [r7, #4]
 8006660:	681b      	ldr	r3, [r3, #0]
 8006662:	f403 7380 	and.w	r3, r3, #256	; 0x100
 8006666:	2b00      	cmp	r3, #0
 8006668:	d00a      	beq.n	8006680 <HAL_RCCEx_PeriphCLKConfig+0x3ec>
 800666a:	4b43      	ldr	r3, [pc, #268]	; (8006778 <HAL_RCCEx_PeriphCLKConfig+0x4e4>)
 800666c:	f8d3 3088 	ldr.w	r3, [r3, #136]	; 0x88
 8006670:	f423 3240 	bic.w	r2, r3, #196608	; 0x30000
 8006674:	687b      	ldr	r3, [r7, #4]
 8006676:	6d9b      	ldr	r3, [r3, #88]	; 0x58
 8006678:	493f      	ldr	r1, [pc, #252]	; (8006778 <HAL_RCCEx_PeriphCLKConfig+0x4e4>)
 800667a:	4313      	orrs	r3, r2
 800667c:	f8c1 3088 	str.w	r3, [r1, #136]	; 0x88
 8006680:	687b      	ldr	r3, [r7, #4]
 8006682:	681b      	ldr	r3, [r3, #0]
 8006684:	f403 5300 	and.w	r3, r3, #8192	; 0x2000
 8006688:	2b00      	cmp	r3, #0
 800668a:	d028      	beq.n	80066de <HAL_RCCEx_PeriphCLKConfig+0x44a>
 800668c:	4b3a      	ldr	r3, [pc, #232]	; (8006778 <HAL_RCCEx_PeriphCLKConfig+0x4e4>)
 800668e:	f8d3 3088 	ldr.w	r3, [r3, #136]	; 0x88
 8006692:	f023 6240 	bic.w	r2, r3, #201326592	; 0xc000000
 8006696:	687b      	ldr	r3, [r7, #4]
 8006698:	6edb      	ldr	r3, [r3, #108]	; 0x6c
 800669a:	4937      	ldr	r1, [pc, #220]	; (8006778 <HAL_RCCEx_PeriphCLKConfig+0x4e4>)
 800669c:	4313      	orrs	r3, r2
 800669e:	f8c1 3088 	str.w	r3, [r1, #136]	; 0x88
 80066a2:	687b      	ldr	r3, [r7, #4]
 80066a4:	6edb      	ldr	r3, [r3, #108]	; 0x6c
 80066a6:	f1b3 6f00 	cmp.w	r3, #134217728	; 0x8000000
 80066aa:	d106      	bne.n	80066ba <HAL_RCCEx_PeriphCLKConfig+0x426>
 80066ac:	4b32      	ldr	r3, [pc, #200]	; (8006778 <HAL_RCCEx_PeriphCLKConfig+0x4e4>)
 80066ae:	68db      	ldr	r3, [r3, #12]
 80066b0:	4a31      	ldr	r2, [pc, #196]	; (8006778 <HAL_RCCEx_PeriphCLKConfig+0x4e4>)
 80066b2:	f443 1380 	orr.w	r3, r3, #1048576	; 0x100000
 80066b6:	60d3      	str	r3, [r2, #12]
 80066b8:	e011      	b.n	80066de <HAL_RCCEx_PeriphCLKConfig+0x44a>
 80066ba:	687b      	ldr	r3, [r7, #4]
 80066bc:	6edb      	ldr	r3, [r3, #108]	; 0x6c
 80066be:	f1b3 6f80 	cmp.w	r3, #67108864	; 0x4000000
 80066c2:	d10c      	bne.n	80066de <HAL_RCCEx_PeriphCLKConfig+0x44a>
 80066c4:	687b      	ldr	r3, [r7, #4]
 80066c6:	3304      	adds	r3, #4
 80066c8:	2101      	movs	r1, #1
 80066ca:	4618      	mov	r0, r3
 80066cc:	f000 fd50 	bl	8007170 <RCCEx_PLLSAI1_Config>
 80066d0:	4603      	mov	r3, r0
 80066d2:	74fb      	strb	r3, [r7, #19]
 80066d4:	7cfb      	ldrb	r3, [r7, #19]
 80066d6:	2b00      	cmp	r3, #0
 80066d8:	d001      	beq.n	80066de <HAL_RCCEx_PeriphCLKConfig+0x44a>
 80066da:	7cfb      	ldrb	r3, [r7, #19]
 80066dc:	74bb      	strb	r3, [r7, #18]
 80066de:	687b      	ldr	r3, [r7, #4]
 80066e0:	681b      	ldr	r3, [r3, #0]
 80066e2:	f403 2300 	and.w	r3, r3, #524288	; 0x80000
 80066e6:	2b00      	cmp	r3, #0
 80066e8:	d028      	beq.n	800673c <HAL_RCCEx_PeriphCLKConfig+0x4a8>
 80066ea:	4b23      	ldr	r3, [pc, #140]	; (8006778 <HAL_RCCEx_PeriphCLKConfig+0x4e4>)
 80066ec:	f8d3 3088 	ldr.w	r3, [r3, #136]	; 0x88
 80066f0:	f023 6240 	bic.w	r2, r3, #201326592	; 0xc000000
 80066f4:	687b      	ldr	r3, [r7, #4]
 80066f6:	6f1b      	ldr	r3, [r3, #112]	; 0x70
 80066f8:	491f      	ldr	r1, [pc, #124]	; (8006778 <HAL_RCCEx_PeriphCLKConfig+0x4e4>)
 80066fa:	4313      	orrs	r3, r2
 80066fc:	f8c1 3088 	str.w	r3, [r1, #136]	; 0x88
 8006700:	687b      	ldr	r3, [r7, #4]
 8006702:	6f1b      	ldr	r3, [r3, #112]	; 0x70
 8006704:	f1b3 6f00 	cmp.w	r3, #134217728	; 0x8000000
 8006708:	d106      	bne.n	8006718 <HAL_RCCEx_PeriphCLKConfig+0x484>
 800670a:	4b1b      	ldr	r3, [pc, #108]	; (8006778 <HAL_RCCEx_PeriphCLKConfig+0x4e4>)
 800670c:	68db      	ldr	r3, [r3, #12]
 800670e:	4a1a      	ldr	r2, [pc, #104]	; (8006778 <HAL_RCCEx_PeriphCLKConfig+0x4e4>)
 8006710:	f443 1380 	orr.w	r3, r3, #1048576	; 0x100000
 8006714:	60d3      	str	r3, [r2, #12]
 8006716:	e011      	b.n	800673c <HAL_RCCEx_PeriphCLKConfig+0x4a8>
 8006718:	687b      	ldr	r3, [r7, #4]
 800671a:	6f1b      	ldr	r3, [r3, #112]	; 0x70
 800671c:	f1b3 6f80 	cmp.w	r3, #67108864	; 0x4000000
 8006720:	d10c      	bne.n	800673c <HAL_RCCEx_PeriphCLKConfig+0x4a8>
 8006722:	687b      	ldr	r3, [r7, #4]
 8006724:	3304      	adds	r3, #4
 8006726:	2101      	movs	r1, #1
 8006728:	4618      	mov	r0, r3
 800672a:	f000 fd21 	bl	8007170 <RCCEx_PLLSAI1_Config>
 800672e:	4603      	mov	r3, r0
 8006730:	74fb      	strb	r3, [r7, #19]
 8006732:	7cfb      	ldrb	r3, [r7, #19]
 8006734:	2b00      	cmp	r3, #0
 8006736:	d001      	beq.n	800673c <HAL_RCCEx_PeriphCLKConfig+0x4a8>
 8006738:	7cfb      	ldrb	r3, [r7, #19]
 800673a:	74bb      	strb	r3, [r7, #18]
 800673c:	687b      	ldr	r3, [r7, #4]
 800673e:	681b      	ldr	r3, [r3, #0]
 8006740:	f403 2380 	and.w	r3, r3, #262144	; 0x40000
 8006744:	2b00      	cmp	r3, #0
 8006746:	d02b      	beq.n	80067a0 <HAL_RCCEx_PeriphCLKConfig+0x50c>
 8006748:	4b0b      	ldr	r3, [pc, #44]	; (8006778 <HAL_RCCEx_PeriphCLKConfig+0x4e4>)
 800674a:	f8d3 3088 	ldr.w	r3, [r3, #136]	; 0x88
 800674e:	f023 6240 	bic.w	r2, r3, #201326592	; 0xc000000
 8006752:	687b      	ldr	r3, [r7, #4]
 8006754:	6f5b      	ldr	r3, [r3, #116]	; 0x74
 8006756:	4908      	ldr	r1, [pc, #32]	; (8006778 <HAL_RCCEx_PeriphCLKConfig+0x4e4>)
 8006758:	4313      	orrs	r3, r2
 800675a:	f8c1 3088 	str.w	r3, [r1, #136]	; 0x88
 800675e:	687b      	ldr	r3, [r7, #4]
 8006760:	6f5b      	ldr	r3, [r3, #116]	; 0x74
 8006762:	f1b3 6f00 	cmp.w	r3, #134217728	; 0x8000000
 8006766:	d109      	bne.n	800677c <HAL_RCCEx_PeriphCLKConfig+0x4e8>
 8006768:	4b03      	ldr	r3, [pc, #12]	; (8006778 <HAL_RCCEx_PeriphCLKConfig+0x4e4>)
 800676a:	68db      	ldr	r3, [r3, #12]
 800676c:	4a02      	ldr	r2, [pc, #8]	; (8006778 <HAL_RCCEx_PeriphCLKConfig+0x4e4>)
 800676e:	f443 1380 	orr.w	r3, r3, #1048576	; 0x100000
 8006772:	60d3      	str	r3, [r2, #12]
 8006774:	e014      	b.n	80067a0 <HAL_RCCEx_PeriphCLKConfig+0x50c>
 8006776:	bf00      	nop
 8006778:	40021000 	.word	0x40021000
 800677c:	687b      	ldr	r3, [r7, #4]
 800677e:	6f5b      	ldr	r3, [r3, #116]	; 0x74
 8006780:	f1b3 6f80 	cmp.w	r3, #67108864	; 0x4000000
 8006784:	d10c      	bne.n	80067a0 <HAL_RCCEx_PeriphCLKConfig+0x50c>
 8006786:	687b      	ldr	r3, [r7, #4]
 8006788:	3304      	adds	r3, #4
 800678a:	2101      	movs	r1, #1
 800678c:	4618      	mov	r0, r3
 800678e:	f000 fcef 	bl	8007170 <RCCEx_PLLSAI1_Config>
 8006792:	4603      	mov	r3, r0
 8006794:	74fb      	strb	r3, [r7, #19]
 8006796:	7cfb      	ldrb	r3, [r7, #19]
 8006798:	2b00      	cmp	r3, #0
 800679a:	d001      	beq.n	80067a0 <HAL_RCCEx_PeriphCLKConfig+0x50c>
 800679c:	7cfb      	ldrb	r3, [r7, #19]
 800679e:	74bb      	strb	r3, [r7, #18]
 80067a0:	687b      	ldr	r3, [r7, #4]
 80067a2:	681b      	ldr	r3, [r3, #0]
 80067a4:	f403 4380 	and.w	r3, r3, #16384	; 0x4000
 80067a8:	2b00      	cmp	r3, #0
 80067aa:	d02f      	beq.n	800680c <HAL_RCCEx_PeriphCLKConfig+0x578>
 80067ac:	4b2b      	ldr	r3, [pc, #172]	; (800685c <HAL_RCCEx_PeriphCLKConfig+0x5c8>)
 80067ae:	f8d3 3088 	ldr.w	r3, [r3, #136]	; 0x88
 80067b2:	f023 5240 	bic.w	r2, r3, #805306368	; 0x30000000
 80067b6:	687b      	ldr	r3, [r7, #4]
 80067b8:	6f9b      	ldr	r3, [r3, #120]	; 0x78
 80067ba:	4928      	ldr	r1, [pc, #160]	; (800685c <HAL_RCCEx_PeriphCLKConfig+0x5c8>)
 80067bc:	4313      	orrs	r3, r2
 80067be:	f8c1 3088 	str.w	r3, [r1, #136]	; 0x88
 80067c2:	687b      	ldr	r3, [r7, #4]
 80067c4:	6f9b      	ldr	r3, [r3, #120]	; 0x78
 80067c6:	f1b3 5f80 	cmp.w	r3, #268435456	; 0x10000000
 80067ca:	d10d      	bne.n	80067e8 <HAL_RCCEx_PeriphCLKConfig+0x554>
 80067cc:	687b      	ldr	r3, [r7, #4]
 80067ce:	3304      	adds	r3, #4
 80067d0:	2102      	movs	r1, #2
 80067d2:	4618      	mov	r0, r3
 80067d4:	f000 fccc 	bl	8007170 <RCCEx_PLLSAI1_Config>
 80067d8:	4603      	mov	r3, r0
 80067da:	74fb      	strb	r3, [r7, #19]
 80067dc:	7cfb      	ldrb	r3, [r7, #19]
 80067de:	2b00      	cmp	r3, #0
 80067e0:	d014      	beq.n	800680c <HAL_RCCEx_PeriphCLKConfig+0x578>
 80067e2:	7cfb      	ldrb	r3, [r7, #19]
 80067e4:	74bb      	strb	r3, [r7, #18]
 80067e6:	e011      	b.n	800680c <HAL_RCCEx_PeriphCLKConfig+0x578>
 80067e8:	687b      	ldr	r3, [r7, #4]
 80067ea:	6f9b      	ldr	r3, [r3, #120]	; 0x78
 80067ec:	f1b3 5f00 	cmp.w	r3, #536870912	; 0x20000000
 80067f0:	d10c      	bne.n	800680c <HAL_RCCEx_PeriphCLKConfig+0x578>
 80067f2:	687b      	ldr	r3, [r7, #4]
 80067f4:	3320      	adds	r3, #32
 80067f6:	2102      	movs	r1, #2
 80067f8:	4618      	mov	r0, r3
 80067fa:	f000 fda9 	bl	8007350 <RCCEx_PLLSAI2_Config>
 80067fe:	4603      	mov	r3, r0
 8006800:	74fb      	strb	r3, [r7, #19]
 8006802:	7cfb      	ldrb	r3, [r7, #19]
 8006804:	2b00      	cmp	r3, #0
 8006806:	d001      	beq.n	800680c <HAL_RCCEx_PeriphCLKConfig+0x578>
 8006808:	7cfb      	ldrb	r3, [r7, #19]
 800680a:	74bb      	strb	r3, [r7, #18]
 800680c:	687b      	ldr	r3, [r7, #4]
 800680e:	681b      	ldr	r3, [r3, #0]
 8006810:	f403 4300 	and.w	r3, r3, #32768	; 0x8000
 8006814:	2b00      	cmp	r3, #0
 8006816:	d00a      	beq.n	800682e <HAL_RCCEx_PeriphCLKConfig+0x59a>
 8006818:	4b10      	ldr	r3, [pc, #64]	; (800685c <HAL_RCCEx_PeriphCLKConfig+0x5c8>)
 800681a:	f8d3 3088 	ldr.w	r3, [r3, #136]	; 0x88
 800681e:	f023 4280 	bic.w	r2, r3, #1073741824	; 0x40000000
 8006822:	687b      	ldr	r3, [r7, #4]
 8006824:	6fdb      	ldr	r3, [r3, #124]	; 0x7c
 8006826:	490d      	ldr	r1, [pc, #52]	; (800685c <HAL_RCCEx_PeriphCLKConfig+0x5c8>)
 8006828:	4313      	orrs	r3, r2
 800682a:	f8c1 3088 	str.w	r3, [r1, #136]	; 0x88
 800682e:	687b      	ldr	r3, [r7, #4]
 8006830:	681b      	ldr	r3, [r3, #0]
 8006832:	f403 3380 	and.w	r3, r3, #65536	; 0x10000
 8006836:	2b00      	cmp	r3, #0
 8006838:	d00b      	beq.n	8006852 <HAL_RCCEx_PeriphCLKConfig+0x5be>
 800683a:	4b08      	ldr	r3, [pc, #32]	; (800685c <HAL_RCCEx_PeriphCLKConfig+0x5c8>)
 800683c:	f8d3 3088 	ldr.w	r3, [r3, #136]	; 0x88
 8006840:	f023 4200 	bic.w	r2, r3, #2147483648	; 0x80000000
 8006844:	687b      	ldr	r3, [r7, #4]
 8006846:	f8d3 3080 	ldr.w	r3, [r3, #128]	; 0x80
 800684a:	4904      	ldr	r1, [pc, #16]	; (800685c <HAL_RCCEx_PeriphCLKConfig+0x5c8>)
 800684c:	4313      	orrs	r3, r2
 800684e:	f8c1 3088 	str.w	r3, [r1, #136]	; 0x88
 8006852:	7cbb      	ldrb	r3, [r7, #18]
 8006854:	4618      	mov	r0, r3
 8006856:	3718      	adds	r7, #24
 8006858:	46bd      	mov	sp, r7
 800685a:	bd80      	pop	{r7, pc}
 800685c:	40021000 	.word	0x40021000

08006860 <HAL_RCCEx_GetPeriphCLKFreq>:
 8006860:	b580      	push	{r7, lr}
 8006862:	b088      	sub	sp, #32
 8006864:	af00      	add	r7, sp, #0
 8006866:	6078      	str	r0, [r7, #4]
 8006868:	2300      	movs	r3, #0
 800686a:	61fb      	str	r3, [r7, #28]
 800686c:	687b      	ldr	r3, [r7, #4]
 800686e:	f5b3 3f00 	cmp.w	r3, #131072	; 0x20000
 8006872:	d137      	bne.n	80068e4 <HAL_RCCEx_GetPeriphCLKFreq+0x84>
 8006874:	4bb8      	ldr	r3, [pc, #736]	; (8006b58 <HAL_RCCEx_GetPeriphCLKFreq+0x2f8>)
 8006876:	f8d3 3090 	ldr.w	r3, [r3, #144]	; 0x90
 800687a:	f403 7340 	and.w	r3, r3, #768	; 0x300
 800687e:	613b      	str	r3, [r7, #16]
 8006880:	693b      	ldr	r3, [r7, #16]
 8006882:	f5b3 7f00 	cmp.w	r3, #512	; 0x200
 8006886:	d014      	beq.n	80068b2 <HAL_RCCEx_GetPeriphCLKFreq+0x52>
 8006888:	f5b3 7f40 	cmp.w	r3, #768	; 0x300
 800688c:	d01e      	beq.n	80068cc <HAL_RCCEx_GetPeriphCLKFreq+0x6c>
 800688e:	f5b3 7f80 	cmp.w	r3, #256	; 0x100
 8006892:	d001      	beq.n	8006898 <HAL_RCCEx_GetPeriphCLKFreq+0x38>
 8006894:	f000 bc53 	b.w	800713e <HAL_RCCEx_GetPeriphCLKFreq+0x8de>
 8006898:	4baf      	ldr	r3, [pc, #700]	; (8006b58 <HAL_RCCEx_GetPeriphCLKFreq+0x2f8>)
 800689a:	f8d3 3090 	ldr.w	r3, [r3, #144]	; 0x90
 800689e:	f003 0302 	and.w	r3, r3, #2
 80068a2:	2b02      	cmp	r3, #2
 80068a4:	f040 8446 	bne.w	8007134 <HAL_RCCEx_GetPeriphCLKFreq+0x8d4>
 80068a8:	f44f 4300 	mov.w	r3, #32768	; 0x8000
 80068ac:	61fb      	str	r3, [r7, #28]
 80068ae:	f000 bc41 	b.w	8007134 <HAL_RCCEx_GetPeriphCLKFreq+0x8d4>
 80068b2:	4ba9      	ldr	r3, [pc, #676]	; (8006b58 <HAL_RCCEx_GetPeriphCLKFreq+0x2f8>)
 80068b4:	f8d3 3094 	ldr.w	r3, [r3, #148]	; 0x94
 80068b8:	f003 0302 	and.w	r3, r3, #2
 80068bc:	2b02      	cmp	r3, #2
 80068be:	f040 843b 	bne.w	8007138 <HAL_RCCEx_GetPeriphCLKFreq+0x8d8>
 80068c2:	f44f 43fa 	mov.w	r3, #32000	; 0x7d00
 80068c6:	61fb      	str	r3, [r7, #28]
 80068c8:	f000 bc36 	b.w	8007138 <HAL_RCCEx_GetPeriphCLKFreq+0x8d8>
 80068cc:	4ba2      	ldr	r3, [pc, #648]	; (8006b58 <HAL_RCCEx_GetPeriphCLKFreq+0x2f8>)
 80068ce:	681b      	ldr	r3, [r3, #0]
 80068d0:	f403 3300 	and.w	r3, r3, #131072	; 0x20000
 80068d4:	f5b3 3f00 	cmp.w	r3, #131072	; 0x20000
 80068d8:	f040 8430 	bne.w	800713c <HAL_RCCEx_GetPeriphCLKFreq+0x8dc>
 80068dc:	4b9f      	ldr	r3, [pc, #636]	; (8006b5c <HAL_RCCEx_GetPeriphCLKFreq+0x2fc>)
 80068de:	61fb      	str	r3, [r7, #28]
 80068e0:	f000 bc2c 	b.w	800713c <HAL_RCCEx_GetPeriphCLKFreq+0x8dc>
 80068e4:	4b9c      	ldr	r3, [pc, #624]	; (8006b58 <HAL_RCCEx_GetPeriphCLKFreq+0x2f8>)
 80068e6:	68db      	ldr	r3, [r3, #12]
 80068e8:	f003 0303 	and.w	r3, r3, #3
 80068ec:	617b      	str	r3, [r7, #20]
 80068ee:	697b      	ldr	r3, [r7, #20]
 80068f0:	2b02      	cmp	r3, #2
 80068f2:	d023      	beq.n	800693c <HAL_RCCEx_GetPeriphCLKFreq+0xdc>
 80068f4:	2b03      	cmp	r3, #3
 80068f6:	d02e      	beq.n	8006956 <HAL_RCCEx_GetPeriphCLKFreq+0xf6>
 80068f8:	2b01      	cmp	r3, #1
 80068fa:	d139      	bne.n	8006970 <HAL_RCCEx_GetPeriphCLKFreq+0x110>
 80068fc:	4b96      	ldr	r3, [pc, #600]	; (8006b58 <HAL_RCCEx_GetPeriphCLKFreq+0x2f8>)
 80068fe:	681b      	ldr	r3, [r3, #0]
 8006900:	f003 0302 	and.w	r3, r3, #2
 8006904:	2b02      	cmp	r3, #2
 8006906:	d116      	bne.n	8006936 <HAL_RCCEx_GetPeriphCLKFreq+0xd6>
 8006908:	4b93      	ldr	r3, [pc, #588]	; (8006b58 <HAL_RCCEx_GetPeriphCLKFreq+0x2f8>)
 800690a:	681b      	ldr	r3, [r3, #0]
 800690c:	f003 0308 	and.w	r3, r3, #8
 8006910:	2b00      	cmp	r3, #0
 8006912:	d005      	beq.n	8006920 <HAL_RCCEx_GetPeriphCLKFreq+0xc0>
 8006914:	4b90      	ldr	r3, [pc, #576]	; (8006b58 <HAL_RCCEx_GetPeriphCLKFreq+0x2f8>)
 8006916:	681b      	ldr	r3, [r3, #0]
 8006918:	091b      	lsrs	r3, r3, #4
 800691a:	f003 030f 	and.w	r3, r3, #15
 800691e:	e005      	b.n	800692c <HAL_RCCEx_GetPeriphCLKFreq+0xcc>
 8006920:	4b8d      	ldr	r3, [pc, #564]	; (8006b58 <HAL_RCCEx_GetPeriphCLKFreq+0x2f8>)
 8006922:	f8d3 3094 	ldr.w	r3, [r3, #148]	; 0x94
 8006926:	0a1b      	lsrs	r3, r3, #8
 8006928:	f003 030f 	and.w	r3, r3, #15
 800692c:	4a8c      	ldr	r2, [pc, #560]	; (8006b60 <HAL_RCCEx_GetPeriphCLKFreq+0x300>)
 800692e:	f852 3023 	ldr.w	r3, [r2, r3, lsl #2]
 8006932:	61bb      	str	r3, [r7, #24]
 8006934:	e01f      	b.n	8006976 <HAL_RCCEx_GetPeriphCLKFreq+0x116>
 8006936:	2300      	movs	r3, #0
 8006938:	61bb      	str	r3, [r7, #24]
 800693a:	e01c      	b.n	8006976 <HAL_RCCEx_GetPeriphCLKFreq+0x116>
 800693c:	4b86      	ldr	r3, [pc, #536]	; (8006b58 <HAL_RCCEx_GetPeriphCLKFreq+0x2f8>)
 800693e:	681b      	ldr	r3, [r3, #0]
 8006940:	f403 6380 	and.w	r3, r3, #1024	; 0x400
 8006944:	f5b3 6f80 	cmp.w	r3, #1024	; 0x400
 8006948:	d102      	bne.n	8006950 <HAL_RCCEx_GetPeriphCLKFreq+0xf0>
 800694a:	4b86      	ldr	r3, [pc, #536]	; (8006b64 <HAL_RCCEx_GetPeriphCLKFreq+0x304>)
 800694c:	61bb      	str	r3, [r7, #24]
 800694e:	e012      	b.n	8006976 <HAL_RCCEx_GetPeriphCLKFreq+0x116>
 8006950:	2300      	movs	r3, #0
 8006952:	61bb      	str	r3, [r7, #24]
 8006954:	e00f      	b.n	8006976 <HAL_RCCEx_GetPeriphCLKFreq+0x116>
 8006956:	4b80      	ldr	r3, [pc, #512]	; (8006b58 <HAL_RCCEx_GetPeriphCLKFreq+0x2f8>)
 8006958:	681b      	ldr	r3, [r3, #0]
 800695a:	f403 3300 	and.w	r3, r3, #131072	; 0x20000
 800695e:	f5b3 3f00 	cmp.w	r3, #131072	; 0x20000
 8006962:	d102      	bne.n	800696a <HAL_RCCEx_GetPeriphCLKFreq+0x10a>
 8006964:	4b80      	ldr	r3, [pc, #512]	; (8006b68 <HAL_RCCEx_GetPeriphCLKFreq+0x308>)
 8006966:	61bb      	str	r3, [r7, #24]
 8006968:	e005      	b.n	8006976 <HAL_RCCEx_GetPeriphCLKFreq+0x116>
 800696a:	2300      	movs	r3, #0
 800696c:	61bb      	str	r3, [r7, #24]
 800696e:	e002      	b.n	8006976 <HAL_RCCEx_GetPeriphCLKFreq+0x116>
 8006970:	2300      	movs	r3, #0
 8006972:	61bb      	str	r3, [r7, #24]
 8006974:	bf00      	nop
 8006976:	687b      	ldr	r3, [r7, #4]
 8006978:	f5b3 7f00 	cmp.w	r3, #512	; 0x200
 800697c:	f000 8337 	beq.w	8006fee <HAL_RCCEx_GetPeriphCLKFreq+0x78e>
 8006980:	f5b3 7f00 	cmp.w	r3, #512	; 0x200
 8006984:	d825      	bhi.n	80069d2 <HAL_RCCEx_GetPeriphCLKFreq+0x172>
 8006986:	2b10      	cmp	r3, #16
 8006988:	f000 81df 	beq.w	8006d4a <HAL_RCCEx_GetPeriphCLKFreq+0x4ea>
 800698c:	2b10      	cmp	r3, #16
 800698e:	d80f      	bhi.n	80069b0 <HAL_RCCEx_GetPeriphCLKFreq+0x150>
 8006990:	2b02      	cmp	r3, #2
 8006992:	f000 8128 	beq.w	8006be6 <HAL_RCCEx_GetPeriphCLKFreq+0x386>
 8006996:	2b02      	cmp	r3, #2
 8006998:	d803      	bhi.n	80069a2 <HAL_RCCEx_GetPeriphCLKFreq+0x142>
 800699a:	2b01      	cmp	r3, #1
 800699c:	f000 80ec 	beq.w	8006b78 <HAL_RCCEx_GetPeriphCLKFreq+0x318>
 80069a0:	e3cd      	b.n	800713e <HAL_RCCEx_GetPeriphCLKFreq+0x8de>
 80069a2:	2b04      	cmp	r3, #4
 80069a4:	f000 8169 	beq.w	8006c7a <HAL_RCCEx_GetPeriphCLKFreq+0x41a>
 80069a8:	2b08      	cmp	r3, #8
 80069aa:	f000 819a 	beq.w	8006ce2 <HAL_RCCEx_GetPeriphCLKFreq+0x482>
 80069ae:	e3c6      	b.n	800713e <HAL_RCCEx_GetPeriphCLKFreq+0x8de>
 80069b0:	2b40      	cmp	r3, #64	; 0x40
 80069b2:	f000 82b3 	beq.w	8006f1c <HAL_RCCEx_GetPeriphCLKFreq+0x6bc>
 80069b6:	2b40      	cmp	r3, #64	; 0x40
 80069b8:	d803      	bhi.n	80069c2 <HAL_RCCEx_GetPeriphCLKFreq+0x162>
 80069ba:	2b20      	cmp	r3, #32
 80069bc:	f000 81fd 	beq.w	8006dba <HAL_RCCEx_GetPeriphCLKFreq+0x55a>
 80069c0:	e3bd      	b.n	800713e <HAL_RCCEx_GetPeriphCLKFreq+0x8de>
 80069c2:	2b80      	cmp	r3, #128	; 0x80
 80069c4:	f000 82cd 	beq.w	8006f62 <HAL_RCCEx_GetPeriphCLKFreq+0x702>
 80069c8:	f5b3 7f80 	cmp.w	r3, #256	; 0x100
 80069cc:	f000 82ec 	beq.w	8006fa8 <HAL_RCCEx_GetPeriphCLKFreq+0x748>
 80069d0:	e3b5      	b.n	800713e <HAL_RCCEx_GetPeriphCLKFreq+0x8de>
 80069d2:	f5b3 4f80 	cmp.w	r3, #16384	; 0x4000
 80069d6:	f000 822d 	beq.w	8006e34 <HAL_RCCEx_GetPeriphCLKFreq+0x5d4>
 80069da:	f5b3 4f80 	cmp.w	r3, #16384	; 0x4000
 80069de:	d811      	bhi.n	8006a04 <HAL_RCCEx_GetPeriphCLKFreq+0x1a4>
 80069e0:	f5b3 6f00 	cmp.w	r3, #2048	; 0x800
 80069e4:	d021      	beq.n	8006a2a <HAL_RCCEx_GetPeriphCLKFreq+0x1ca>
 80069e6:	f5b3 6f00 	cmp.w	r3, #2048	; 0x800
 80069ea:	d804      	bhi.n	80069f6 <HAL_RCCEx_GetPeriphCLKFreq+0x196>
 80069ec:	f5b3 6f80 	cmp.w	r3, #1024	; 0x400
 80069f0:	f000 833e 	beq.w	8007070 <HAL_RCCEx_GetPeriphCLKFreq+0x810>
 80069f4:	e3a3      	b.n	800713e <HAL_RCCEx_GetPeriphCLKFreq+0x8de>
 80069f6:	f5b3 5f80 	cmp.w	r3, #4096	; 0x1000
 80069fa:	d01d      	beq.n	8006a38 <HAL_RCCEx_GetPeriphCLKFreq+0x1d8>
 80069fc:	f5b3 5f00 	cmp.w	r3, #8192	; 0x2000
 8006a00:	d021      	beq.n	8006a46 <HAL_RCCEx_GetPeriphCLKFreq+0x1e6>
 8006a02:	e39c      	b.n	800713e <HAL_RCCEx_GetPeriphCLKFreq+0x8de>
 8006a04:	f5b3 3f80 	cmp.w	r3, #65536	; 0x10000
 8006a08:	f000 8277 	beq.w	8006efa <HAL_RCCEx_GetPeriphCLKFreq+0x69a>
 8006a0c:	f5b3 3f80 	cmp.w	r3, #65536	; 0x10000
 8006a10:	d804      	bhi.n	8006a1c <HAL_RCCEx_GetPeriphCLKFreq+0x1bc>
 8006a12:	f5b3 4f00 	cmp.w	r3, #32768	; 0x8000
 8006a16:	f000 8371 	beq.w	80070fc <HAL_RCCEx_GetPeriphCLKFreq+0x89c>
 8006a1a:	e390      	b.n	800713e <HAL_RCCEx_GetPeriphCLKFreq+0x8de>
 8006a1c:	f5b3 2f80 	cmp.w	r3, #262144	; 0x40000
 8006a20:	d011      	beq.n	8006a46 <HAL_RCCEx_GetPeriphCLKFreq+0x1e6>
 8006a22:	f5b3 2f00 	cmp.w	r3, #524288	; 0x80000
 8006a26:	d00e      	beq.n	8006a46 <HAL_RCCEx_GetPeriphCLKFreq+0x1e6>
 8006a28:	e389      	b.n	800713e <HAL_RCCEx_GetPeriphCLKFreq+0x8de>
 8006a2a:	69b9      	ldr	r1, [r7, #24]
 8006a2c:	f44f 6000 	mov.w	r0, #2048	; 0x800
 8006a30:	f000 fd68 	bl	8007504 <RCCEx_GetSAIxPeriphCLKFreq>
 8006a34:	61f8      	str	r0, [r7, #28]
 8006a36:	e382      	b.n	800713e <HAL_RCCEx_GetPeriphCLKFreq+0x8de>
 8006a38:	69b9      	ldr	r1, [r7, #24]
 8006a3a:	f44f 5080 	mov.w	r0, #4096	; 0x1000
 8006a3e:	f000 fd61 	bl	8007504 <RCCEx_GetSAIxPeriphCLKFreq>
 8006a42:	61f8      	str	r0, [r7, #28]
 8006a44:	e37b      	b.n	800713e <HAL_RCCEx_GetPeriphCLKFreq+0x8de>
 8006a46:	4b44      	ldr	r3, [pc, #272]	; (8006b58 <HAL_RCCEx_GetPeriphCLKFreq+0x2f8>)
 8006a48:	f8d3 3088 	ldr.w	r3, [r3, #136]	; 0x88
 8006a4c:	f003 6340 	and.w	r3, r3, #201326592	; 0xc000000
 8006a50:	613b      	str	r3, [r7, #16]
 8006a52:	693b      	ldr	r3, [r7, #16]
 8006a54:	f1b3 6f00 	cmp.w	r3, #134217728	; 0x8000000
 8006a58:	d023      	beq.n	8006aa2 <HAL_RCCEx_GetPeriphCLKFreq+0x242>
 8006a5a:	f1b3 6f40 	cmp.w	r3, #201326592	; 0xc000000
 8006a5e:	d003      	beq.n	8006a68 <HAL_RCCEx_GetPeriphCLKFreq+0x208>
 8006a60:	f1b3 6f80 	cmp.w	r3, #67108864	; 0x4000000
 8006a64:	d04a      	beq.n	8006afc <HAL_RCCEx_GetPeriphCLKFreq+0x29c>
 8006a66:	e086      	b.n	8006b76 <HAL_RCCEx_GetPeriphCLKFreq+0x316>
 8006a68:	4b3b      	ldr	r3, [pc, #236]	; (8006b58 <HAL_RCCEx_GetPeriphCLKFreq+0x2f8>)
 8006a6a:	681b      	ldr	r3, [r3, #0]
 8006a6c:	f003 0302 	and.w	r3, r3, #2
 8006a70:	2b02      	cmp	r3, #2
 8006a72:	d17b      	bne.n	8006b6c <HAL_RCCEx_GetPeriphCLKFreq+0x30c>
 8006a74:	4b38      	ldr	r3, [pc, #224]	; (8006b58 <HAL_RCCEx_GetPeriphCLKFreq+0x2f8>)
 8006a76:	681b      	ldr	r3, [r3, #0]
 8006a78:	f003 0308 	and.w	r3, r3, #8
 8006a7c:	2b00      	cmp	r3, #0
 8006a7e:	d005      	beq.n	8006a8c <HAL_RCCEx_GetPeriphCLKFreq+0x22c>
 8006a80:	4b35      	ldr	r3, [pc, #212]	; (8006b58 <HAL_RCCEx_GetPeriphCLKFreq+0x2f8>)
 8006a82:	681b      	ldr	r3, [r3, #0]
 8006a84:	091b      	lsrs	r3, r3, #4
 8006a86:	f003 030f 	and.w	r3, r3, #15
 8006a8a:	e005      	b.n	8006a98 <HAL_RCCEx_GetPeriphCLKFreq+0x238>
 8006a8c:	4b32      	ldr	r3, [pc, #200]	; (8006b58 <HAL_RCCEx_GetPeriphCLKFreq+0x2f8>)
 8006a8e:	f8d3 3094 	ldr.w	r3, [r3, #148]	; 0x94
 8006a92:	0a1b      	lsrs	r3, r3, #8
 8006a94:	f003 030f 	and.w	r3, r3, #15
 8006a98:	4a31      	ldr	r2, [pc, #196]	; (8006b60 <HAL_RCCEx_GetPeriphCLKFreq+0x300>)
 8006a9a:	f852 3023 	ldr.w	r3, [r2, r3, lsl #2]
 8006a9e:	61fb      	str	r3, [r7, #28]
 8006aa0:	e064      	b.n	8006b6c <HAL_RCCEx_GetPeriphCLKFreq+0x30c>
 8006aa2:	4b2d      	ldr	r3, [pc, #180]	; (8006b58 <HAL_RCCEx_GetPeriphCLKFreq+0x2f8>)
 8006aa4:	681b      	ldr	r3, [r3, #0]
 8006aa6:	f003 7300 	and.w	r3, r3, #33554432	; 0x2000000
 8006aaa:	f1b3 7f00 	cmp.w	r3, #33554432	; 0x2000000
 8006aae:	d15f      	bne.n	8006b70 <HAL_RCCEx_GetPeriphCLKFreq+0x310>
 8006ab0:	4b29      	ldr	r3, [pc, #164]	; (8006b58 <HAL_RCCEx_GetPeriphCLKFreq+0x2f8>)
 8006ab2:	68db      	ldr	r3, [r3, #12]
 8006ab4:	f403 1380 	and.w	r3, r3, #1048576	; 0x100000
 8006ab8:	f5b3 1f80 	cmp.w	r3, #1048576	; 0x100000
 8006abc:	d158      	bne.n	8006b70 <HAL_RCCEx_GetPeriphCLKFreq+0x310>
 8006abe:	4b26      	ldr	r3, [pc, #152]	; (8006b58 <HAL_RCCEx_GetPeriphCLKFreq+0x2f8>)
 8006ac0:	68db      	ldr	r3, [r3, #12]
 8006ac2:	0a1b      	lsrs	r3, r3, #8
 8006ac4:	f003 037f 	and.w	r3, r3, #127	; 0x7f
 8006ac8:	60fb      	str	r3, [r7, #12]
 8006aca:	69bb      	ldr	r3, [r7, #24]
 8006acc:	68fa      	ldr	r2, [r7, #12]
 8006ace:	fb02 f203 	mul.w	r2, r2, r3
 8006ad2:	4b21      	ldr	r3, [pc, #132]	; (8006b58 <HAL_RCCEx_GetPeriphCLKFreq+0x2f8>)
 8006ad4:	68db      	ldr	r3, [r3, #12]
 8006ad6:	091b      	lsrs	r3, r3, #4
 8006ad8:	f003 0307 	and.w	r3, r3, #7
 8006adc:	3301      	adds	r3, #1
 8006ade:	fbb2 f3f3 	udiv	r3, r2, r3
 8006ae2:	61bb      	str	r3, [r7, #24]
 8006ae4:	4b1c      	ldr	r3, [pc, #112]	; (8006b58 <HAL_RCCEx_GetPeriphCLKFreq+0x2f8>)
 8006ae6:	68db      	ldr	r3, [r3, #12]
 8006ae8:	0d5b      	lsrs	r3, r3, #21
 8006aea:	f003 0303 	and.w	r3, r3, #3
 8006aee:	3301      	adds	r3, #1
 8006af0:	005b      	lsls	r3, r3, #1
 8006af2:	69ba      	ldr	r2, [r7, #24]
 8006af4:	fbb2 f3f3 	udiv	r3, r2, r3
 8006af8:	61fb      	str	r3, [r7, #28]
 8006afa:	e039      	b.n	8006b70 <HAL_RCCEx_GetPeriphCLKFreq+0x310>
 8006afc:	4b16      	ldr	r3, [pc, #88]	; (8006b58 <HAL_RCCEx_GetPeriphCLKFreq+0x2f8>)
 8006afe:	681b      	ldr	r3, [r3, #0]
 8006b00:	f003 6300 	and.w	r3, r3, #134217728	; 0x8000000
 8006b04:	f1b3 6f00 	cmp.w	r3, #134217728	; 0x8000000
 8006b08:	d134      	bne.n	8006b74 <HAL_RCCEx_GetPeriphCLKFreq+0x314>
 8006b0a:	4b13      	ldr	r3, [pc, #76]	; (8006b58 <HAL_RCCEx_GetPeriphCLKFreq+0x2f8>)
 8006b0c:	691b      	ldr	r3, [r3, #16]
 8006b0e:	f403 1380 	and.w	r3, r3, #1048576	; 0x100000
 8006b12:	f5b3 1f80 	cmp.w	r3, #1048576	; 0x100000
 8006b16:	d12d      	bne.n	8006b74 <HAL_RCCEx_GetPeriphCLKFreq+0x314>
 8006b18:	4b0f      	ldr	r3, [pc, #60]	; (8006b58 <HAL_RCCEx_GetPeriphCLKFreq+0x2f8>)
 8006b1a:	691b      	ldr	r3, [r3, #16]
 8006b1c:	0a1b      	lsrs	r3, r3, #8
 8006b1e:	f003 037f 	and.w	r3, r3, #127	; 0x7f
 8006b22:	60fb      	str	r3, [r7, #12]
 8006b24:	69bb      	ldr	r3, [r7, #24]
 8006b26:	68fa      	ldr	r2, [r7, #12]
 8006b28:	fb02 f203 	mul.w	r2, r2, r3
 8006b2c:	4b0a      	ldr	r3, [pc, #40]	; (8006b58 <HAL_RCCEx_GetPeriphCLKFreq+0x2f8>)
 8006b2e:	68db      	ldr	r3, [r3, #12]
 8006b30:	091b      	lsrs	r3, r3, #4
 8006b32:	f003 0307 	and.w	r3, r3, #7
 8006b36:	3301      	adds	r3, #1
 8006b38:	fbb2 f3f3 	udiv	r3, r2, r3
 8006b3c:	61bb      	str	r3, [r7, #24]
 8006b3e:	4b06      	ldr	r3, [pc, #24]	; (8006b58 <HAL_RCCEx_GetPeriphCLKFreq+0x2f8>)
 8006b40:	691b      	ldr	r3, [r3, #16]
 8006b42:	0d5b      	lsrs	r3, r3, #21
 8006b44:	f003 0303 	and.w	r3, r3, #3
 8006b48:	3301      	adds	r3, #1
 8006b4a:	005b      	lsls	r3, r3, #1
 8006b4c:	69ba      	ldr	r2, [r7, #24]
 8006b4e:	fbb2 f3f3 	udiv	r3, r2, r3
 8006b52:	61fb      	str	r3, [r7, #28]
 8006b54:	e00e      	b.n	8006b74 <HAL_RCCEx_GetPeriphCLKFreq+0x314>
 8006b56:	bf00      	nop
 8006b58:	40021000 	.word	0x40021000
 8006b5c:	0003d090 	.word	0x0003d090
 8006b60:	0800aad4 	.word	0x0800aad4
 8006b64:	00f42400 	.word	0x00f42400
 8006b68:	007a1200 	.word	0x007a1200
 8006b6c:	bf00      	nop
 8006b6e:	e2e6      	b.n	800713e <HAL_RCCEx_GetPeriphCLKFreq+0x8de>
 8006b70:	bf00      	nop
 8006b72:	e2e4      	b.n	800713e <HAL_RCCEx_GetPeriphCLKFreq+0x8de>
 8006b74:	bf00      	nop
 8006b76:	e2e2      	b.n	800713e <HAL_RCCEx_GetPeriphCLKFreq+0x8de>
 8006b78:	4bac      	ldr	r3, [pc, #688]	; (8006e2c <HAL_RCCEx_GetPeriphCLKFreq+0x5cc>)
 8006b7a:	f8d3 3088 	ldr.w	r3, [r3, #136]	; 0x88
 8006b7e:	f003 0303 	and.w	r3, r3, #3
 8006b82:	613b      	str	r3, [r7, #16]
 8006b84:	693b      	ldr	r3, [r7, #16]
 8006b86:	2b03      	cmp	r3, #3
 8006b88:	d827      	bhi.n	8006bda <HAL_RCCEx_GetPeriphCLKFreq+0x37a>
 8006b8a:	a201      	add	r2, pc, #4	; (adr r2, 8006b90 <HAL_RCCEx_GetPeriphCLKFreq+0x330>)
 8006b8c:	f852 f023 	ldr.w	pc, [r2, r3, lsl #2]
 8006b90:	08006ba1 	.word	0x08006ba1
 8006b94:	08006ba9 	.word	0x08006ba9
 8006b98:	08006bb1 	.word	0x08006bb1
 8006b9c:	08006bc5 	.word	0x08006bc5
 8006ba0:	f7ff fb02 	bl	80061a8 <HAL_RCC_GetPCLK2Freq>
 8006ba4:	61f8      	str	r0, [r7, #28]
 8006ba6:	e01d      	b.n	8006be4 <HAL_RCCEx_GetPeriphCLKFreq+0x384>
 8006ba8:	f7ff fa52 	bl	8006050 <HAL_RCC_GetSysClockFreq>
 8006bac:	61f8      	str	r0, [r7, #28]
 8006bae:	e019      	b.n	8006be4 <HAL_RCCEx_GetPeriphCLKFreq+0x384>
 8006bb0:	4b9e      	ldr	r3, [pc, #632]	; (8006e2c <HAL_RCCEx_GetPeriphCLKFreq+0x5cc>)
 8006bb2:	681b      	ldr	r3, [r3, #0]
 8006bb4:	f403 6380 	and.w	r3, r3, #1024	; 0x400
 8006bb8:	f5b3 6f80 	cmp.w	r3, #1024	; 0x400
 8006bbc:	d10f      	bne.n	8006bde <HAL_RCCEx_GetPeriphCLKFreq+0x37e>
 8006bbe:	4b9c      	ldr	r3, [pc, #624]	; (8006e30 <HAL_RCCEx_GetPeriphCLKFreq+0x5d0>)
 8006bc0:	61fb      	str	r3, [r7, #28]
 8006bc2:	e00c      	b.n	8006bde <HAL_RCCEx_GetPeriphCLKFreq+0x37e>
 8006bc4:	4b99      	ldr	r3, [pc, #612]	; (8006e2c <HAL_RCCEx_GetPeriphCLKFreq+0x5cc>)
 8006bc6:	f8d3 3090 	ldr.w	r3, [r3, #144]	; 0x90
 8006bca:	f003 0302 	and.w	r3, r3, #2
 8006bce:	2b02      	cmp	r3, #2
 8006bd0:	d107      	bne.n	8006be2 <HAL_RCCEx_GetPeriphCLKFreq+0x382>
 8006bd2:	f44f 4300 	mov.w	r3, #32768	; 0x8000
 8006bd6:	61fb      	str	r3, [r7, #28]
 8006bd8:	e003      	b.n	8006be2 <HAL_RCCEx_GetPeriphCLKFreq+0x382>
 8006bda:	bf00      	nop
 8006bdc:	e2af      	b.n	800713e <HAL_RCCEx_GetPeriphCLKFreq+0x8de>
 8006bde:	bf00      	nop
 8006be0:	e2ad      	b.n	800713e <HAL_RCCEx_GetPeriphCLKFreq+0x8de>
 8006be2:	bf00      	nop
 8006be4:	e2ab      	b.n	800713e <HAL_RCCEx_GetPeriphCLKFreq+0x8de>
 8006be6:	4b91      	ldr	r3, [pc, #580]	; (8006e2c <HAL_RCCEx_GetPeriphCLKFreq+0x5cc>)
 8006be8:	f8d3 3088 	ldr.w	r3, [r3, #136]	; 0x88
 8006bec:	f003 030c 	and.w	r3, r3, #12
 8006bf0:	613b      	str	r3, [r7, #16]
 8006bf2:	693b      	ldr	r3, [r7, #16]
 8006bf4:	2b0c      	cmp	r3, #12
 8006bf6:	d83a      	bhi.n	8006c6e <HAL_RCCEx_GetPeriphCLKFreq+0x40e>
 8006bf8:	a201      	add	r2, pc, #4	; (adr r2, 8006c00 <HAL_RCCEx_GetPeriphCLKFreq+0x3a0>)
 8006bfa:	f852 f023 	ldr.w	pc, [r2, r3, lsl #2]
 8006bfe:	bf00      	nop
 8006c00:	08006c35 	.word	0x08006c35
 8006c04:	08006c6f 	.word	0x08006c6f
 8006c08:	08006c6f 	.word	0x08006c6f
 8006c0c:	08006c6f 	.word	0x08006c6f
 8006c10:	08006c3d 	.word	0x08006c3d
 8006c14:	08006c6f 	.word	0x08006c6f
 8006c18:	08006c6f 	.word	0x08006c6f
 8006c1c:	08006c6f 	.word	0x08006c6f
 8006c20:	08006c45 	.word	0x08006c45
 8006c24:	08006c6f 	.word	0x08006c6f
 8006c28:	08006c6f 	.word	0x08006c6f
 8006c2c:	08006c6f 	.word	0x08006c6f
 8006c30:	08006c59 	.word	0x08006c59
 8006c34:	f7ff faa2 	bl	800617c <HAL_RCC_GetPCLK1Freq>
 8006c38:	61f8      	str	r0, [r7, #28]
 8006c3a:	e01d      	b.n	8006c78 <HAL_RCCEx_GetPeriphCLKFreq+0x418>
 8006c3c:	f7ff fa08 	bl	8006050 <HAL_RCC_GetSysClockFreq>
 8006c40:	61f8      	str	r0, [r7, #28]
 8006c42:	e019      	b.n	8006c78 <HAL_RCCEx_GetPeriphCLKFreq+0x418>
 8006c44:	4b79      	ldr	r3, [pc, #484]	; (8006e2c <HAL_RCCEx_GetPeriphCLKFreq+0x5cc>)
 8006c46:	681b      	ldr	r3, [r3, #0]
 8006c48:	f403 6380 	and.w	r3, r3, #1024	; 0x400
 8006c4c:	f5b3 6f80 	cmp.w	r3, #1024	; 0x400
 8006c50:	d10f      	bne.n	8006c72 <HAL_RCCEx_GetPeriphCLKFreq+0x412>
 8006c52:	4b77      	ldr	r3, [pc, #476]	; (8006e30 <HAL_RCCEx_GetPeriphCLKFreq+0x5d0>)
 8006c54:	61fb      	str	r3, [r7, #28]
 8006c56:	e00c      	b.n	8006c72 <HAL_RCCEx_GetPeriphCLKFreq+0x412>
 8006c58:	4b74      	ldr	r3, [pc, #464]	; (8006e2c <HAL_RCCEx_GetPeriphCLKFreq+0x5cc>)
 8006c5a:	f8d3 3090 	ldr.w	r3, [r3, #144]	; 0x90
 8006c5e:	f003 0302 	and.w	r3, r3, #2
 8006c62:	2b02      	cmp	r3, #2
 8006c64:	d107      	bne.n	8006c76 <HAL_RCCEx_GetPeriphCLKFreq+0x416>
 8006c66:	f44f 4300 	mov.w	r3, #32768	; 0x8000
 8006c6a:	61fb      	str	r3, [r7, #28]
 8006c6c:	e003      	b.n	8006c76 <HAL_RCCEx_GetPeriphCLKFreq+0x416>
 8006c6e:	bf00      	nop
 8006c70:	e265      	b.n	800713e <HAL_RCCEx_GetPeriphCLKFreq+0x8de>
 8006c72:	bf00      	nop
 8006c74:	e263      	b.n	800713e <HAL_RCCEx_GetPeriphCLKFreq+0x8de>
 8006c76:	bf00      	nop
 8006c78:	e261      	b.n	800713e <HAL_RCCEx_GetPeriphCLKFreq+0x8de>
 8006c7a:	4b6c      	ldr	r3, [pc, #432]	; (8006e2c <HAL_RCCEx_GetPeriphCLKFreq+0x5cc>)
 8006c7c:	f8d3 3088 	ldr.w	r3, [r3, #136]	; 0x88
 8006c80:	f003 0330 	and.w	r3, r3, #48	; 0x30
 8006c84:	613b      	str	r3, [r7, #16]
 8006c86:	693b      	ldr	r3, [r7, #16]
 8006c88:	2b10      	cmp	r3, #16
 8006c8a:	d00d      	beq.n	8006ca8 <HAL_RCCEx_GetPeriphCLKFreq+0x448>
 8006c8c:	2b10      	cmp	r3, #16
 8006c8e:	d802      	bhi.n	8006c96 <HAL_RCCEx_GetPeriphCLKFreq+0x436>
 8006c90:	2b00      	cmp	r3, #0
 8006c92:	d005      	beq.n	8006ca0 <HAL_RCCEx_GetPeriphCLKFreq+0x440>
 8006c94:	e024      	b.n	8006ce0 <HAL_RCCEx_GetPeriphCLKFreq+0x480>
 8006c96:	2b20      	cmp	r3, #32
 8006c98:	d00a      	beq.n	8006cb0 <HAL_RCCEx_GetPeriphCLKFreq+0x450>
 8006c9a:	2b30      	cmp	r3, #48	; 0x30
 8006c9c:	d012      	beq.n	8006cc4 <HAL_RCCEx_GetPeriphCLKFreq+0x464>
 8006c9e:	e01f      	b.n	8006ce0 <HAL_RCCEx_GetPeriphCLKFreq+0x480>
 8006ca0:	f7ff fa6c 	bl	800617c <HAL_RCC_GetPCLK1Freq>
 8006ca4:	61f8      	str	r0, [r7, #28]
 8006ca6:	e01b      	b.n	8006ce0 <HAL_RCCEx_GetPeriphCLKFreq+0x480>
 8006ca8:	f7ff f9d2 	bl	8006050 <HAL_RCC_GetSysClockFreq>
 8006cac:	61f8      	str	r0, [r7, #28]
 8006cae:	e017      	b.n	8006ce0 <HAL_RCCEx_GetPeriphCLKFreq+0x480>
 8006cb0:	4b5e      	ldr	r3, [pc, #376]	; (8006e2c <HAL_RCCEx_GetPeriphCLKFreq+0x5cc>)
 8006cb2:	681b      	ldr	r3, [r3, #0]
 8006cb4:	f403 6380 	and.w	r3, r3, #1024	; 0x400
 8006cb8:	f5b3 6f80 	cmp.w	r3, #1024	; 0x400
 8006cbc:	d10d      	bne.n	8006cda <HAL_RCCEx_GetPeriphCLKFreq+0x47a>
 8006cbe:	4b5c      	ldr	r3, [pc, #368]	; (8006e30 <HAL_RCCEx_GetPeriphCLKFreq+0x5d0>)
 8006cc0:	61fb      	str	r3, [r7, #28]
 8006cc2:	e00a      	b.n	8006cda <HAL_RCCEx_GetPeriphCLKFreq+0x47a>
 8006cc4:	4b59      	ldr	r3, [pc, #356]	; (8006e2c <HAL_RCCEx_GetPeriphCLKFreq+0x5cc>)
 8006cc6:	f8d3 3090 	ldr.w	r3, [r3, #144]	; 0x90
 8006cca:	f003 0302 	and.w	r3, r3, #2
 8006cce:	2b02      	cmp	r3, #2
 8006cd0:	d105      	bne.n	8006cde <HAL_RCCEx_GetPeriphCLKFreq+0x47e>
 8006cd2:	f44f 4300 	mov.w	r3, #32768	; 0x8000
 8006cd6:	61fb      	str	r3, [r7, #28]
 8006cd8:	e001      	b.n	8006cde <HAL_RCCEx_GetPeriphCLKFreq+0x47e>
 8006cda:	bf00      	nop
 8006cdc:	e22f      	b.n	800713e <HAL_RCCEx_GetPeriphCLKFreq+0x8de>
 8006cde:	bf00      	nop
 8006ce0:	e22d      	b.n	800713e <HAL_RCCEx_GetPeriphCLKFreq+0x8de>
 8006ce2:	4b52      	ldr	r3, [pc, #328]	; (8006e2c <HAL_RCCEx_GetPeriphCLKFreq+0x5cc>)
 8006ce4:	f8d3 3088 	ldr.w	r3, [r3, #136]	; 0x88
 8006ce8:	f003 03c0 	and.w	r3, r3, #192	; 0xc0
 8006cec:	613b      	str	r3, [r7, #16]
 8006cee:	693b      	ldr	r3, [r7, #16]
 8006cf0:	2b40      	cmp	r3, #64	; 0x40
 8006cf2:	d00d      	beq.n	8006d10 <HAL_RCCEx_GetPeriphCLKFreq+0x4b0>
 8006cf4:	2b40      	cmp	r3, #64	; 0x40
 8006cf6:	d802      	bhi.n	8006cfe <HAL_RCCEx_GetPeriphCLKFreq+0x49e>
 8006cf8:	2b00      	cmp	r3, #0
 8006cfa:	d005      	beq.n	8006d08 <HAL_RCCEx_GetPeriphCLKFreq+0x4a8>
 8006cfc:	e024      	b.n	8006d48 <HAL_RCCEx_GetPeriphCLKFreq+0x4e8>
 8006cfe:	2b80      	cmp	r3, #128	; 0x80
 8006d00:	d00a      	beq.n	8006d18 <HAL_RCCEx_GetPeriphCLKFreq+0x4b8>
 8006d02:	2bc0      	cmp	r3, #192	; 0xc0
 8006d04:	d012      	beq.n	8006d2c <HAL_RCCEx_GetPeriphCLKFreq+0x4cc>
 8006d06:	e01f      	b.n	8006d48 <HAL_RCCEx_GetPeriphCLKFreq+0x4e8>
 8006d08:	f7ff fa38 	bl	800617c <HAL_RCC_GetPCLK1Freq>
 8006d0c:	61f8      	str	r0, [r7, #28]
 8006d0e:	e01b      	b.n	8006d48 <HAL_RCCEx_GetPeriphCLKFreq+0x4e8>
 8006d10:	f7ff f99e 	bl	8006050 <HAL_RCC_GetSysClockFreq>
 8006d14:	61f8      	str	r0, [r7, #28]
 8006d16:	e017      	b.n	8006d48 <HAL_RCCEx_GetPeriphCLKFreq+0x4e8>
 8006d18:	4b44      	ldr	r3, [pc, #272]	; (8006e2c <HAL_RCCEx_GetPeriphCLKFreq+0x5cc>)
 8006d1a:	681b      	ldr	r3, [r3, #0]
 8006d1c:	f403 6380 	and.w	r3, r3, #1024	; 0x400
 8006d20:	f5b3 6f80 	cmp.w	r3, #1024	; 0x400
 8006d24:	d10d      	bne.n	8006d42 <HAL_RCCEx_GetPeriphCLKFreq+0x4e2>
 8006d26:	4b42      	ldr	r3, [pc, #264]	; (8006e30 <HAL_RCCEx_GetPeriphCLKFreq+0x5d0>)
 8006d28:	61fb      	str	r3, [r7, #28]
 8006d2a:	e00a      	b.n	8006d42 <HAL_RCCEx_GetPeriphCLKFreq+0x4e2>
 8006d2c:	4b3f      	ldr	r3, [pc, #252]	; (8006e2c <HAL_RCCEx_GetPeriphCLKFreq+0x5cc>)
 8006d2e:	f8d3 3090 	ldr.w	r3, [r3, #144]	; 0x90
 8006d32:	f003 0302 	and.w	r3, r3, #2
 8006d36:	2b02      	cmp	r3, #2
 8006d38:	d105      	bne.n	8006d46 <HAL_RCCEx_GetPeriphCLKFreq+0x4e6>
 8006d3a:	f44f 4300 	mov.w	r3, #32768	; 0x8000
 8006d3e:	61fb      	str	r3, [r7, #28]
 8006d40:	e001      	b.n	8006d46 <HAL_RCCEx_GetPeriphCLKFreq+0x4e6>
 8006d42:	bf00      	nop
 8006d44:	e1fb      	b.n	800713e <HAL_RCCEx_GetPeriphCLKFreq+0x8de>
 8006d46:	bf00      	nop
 8006d48:	e1f9      	b.n	800713e <HAL_RCCEx_GetPeriphCLKFreq+0x8de>
 8006d4a:	4b38      	ldr	r3, [pc, #224]	; (8006e2c <HAL_RCCEx_GetPeriphCLKFreq+0x5cc>)
 8006d4c:	f8d3 3088 	ldr.w	r3, [r3, #136]	; 0x88
 8006d50:	f403 7340 	and.w	r3, r3, #768	; 0x300
 8006d54:	613b      	str	r3, [r7, #16]
 8006d56:	693b      	ldr	r3, [r7, #16]
 8006d58:	f5b3 7f80 	cmp.w	r3, #256	; 0x100
 8006d5c:	d010      	beq.n	8006d80 <HAL_RCCEx_GetPeriphCLKFreq+0x520>
 8006d5e:	f5b3 7f80 	cmp.w	r3, #256	; 0x100
 8006d62:	d802      	bhi.n	8006d6a <HAL_RCCEx_GetPeriphCLKFreq+0x50a>
 8006d64:	2b00      	cmp	r3, #0
 8006d66:	d007      	beq.n	8006d78 <HAL_RCCEx_GetPeriphCLKFreq+0x518>
 8006d68:	e026      	b.n	8006db8 <HAL_RCCEx_GetPeriphCLKFreq+0x558>
 8006d6a:	f5b3 7f00 	cmp.w	r3, #512	; 0x200
 8006d6e:	d00b      	beq.n	8006d88 <HAL_RCCEx_GetPeriphCLKFreq+0x528>
 8006d70:	f5b3 7f40 	cmp.w	r3, #768	; 0x300
 8006d74:	d012      	beq.n	8006d9c <HAL_RCCEx_GetPeriphCLKFreq+0x53c>
 8006d76:	e01f      	b.n	8006db8 <HAL_RCCEx_GetPeriphCLKFreq+0x558>
 8006d78:	f7ff fa00 	bl	800617c <HAL_RCC_GetPCLK1Freq>
 8006d7c:	61f8      	str	r0, [r7, #28]
 8006d7e:	e01b      	b.n	8006db8 <HAL_RCCEx_GetPeriphCLKFreq+0x558>
 8006d80:	f7ff f966 	bl	8006050 <HAL_RCC_GetSysClockFreq>
 8006d84:	61f8      	str	r0, [r7, #28]
 8006d86:	e017      	b.n	8006db8 <HAL_RCCEx_GetPeriphCLKFreq+0x558>
 8006d88:	4b28      	ldr	r3, [pc, #160]	; (8006e2c <HAL_RCCEx_GetPeriphCLKFreq+0x5cc>)
 8006d8a:	681b      	ldr	r3, [r3, #0]
 8006d8c:	f403 6380 	and.w	r3, r3, #1024	; 0x400
 8006d90:	f5b3 6f80 	cmp.w	r3, #1024	; 0x400
 8006d94:	d10d      	bne.n	8006db2 <HAL_RCCEx_GetPeriphCLKFreq+0x552>
 8006d96:	4b26      	ldr	r3, [pc, #152]	; (8006e30 <HAL_RCCEx_GetPeriphCLKFreq+0x5d0>)
 8006d98:	61fb      	str	r3, [r7, #28]
 8006d9a:	e00a      	b.n	8006db2 <HAL_RCCEx_GetPeriphCLKFreq+0x552>
 8006d9c:	4b23      	ldr	r3, [pc, #140]	; (8006e2c <HAL_RCCEx_GetPeriphCLKFreq+0x5cc>)
 8006d9e:	f8d3 3090 	ldr.w	r3, [r3, #144]	; 0x90
 8006da2:	f003 0302 	and.w	r3, r3, #2
 8006da6:	2b02      	cmp	r3, #2
 8006da8:	d105      	bne.n	8006db6 <HAL_RCCEx_GetPeriphCLKFreq+0x556>
 8006daa:	f44f 4300 	mov.w	r3, #32768	; 0x8000
 8006dae:	61fb      	str	r3, [r7, #28]
 8006db0:	e001      	b.n	8006db6 <HAL_RCCEx_GetPeriphCLKFreq+0x556>
 8006db2:	bf00      	nop
 8006db4:	e1c3      	b.n	800713e <HAL_RCCEx_GetPeriphCLKFreq+0x8de>
 8006db6:	bf00      	nop
 8006db8:	e1c1      	b.n	800713e <HAL_RCCEx_GetPeriphCLKFreq+0x8de>
 8006dba:	4b1c      	ldr	r3, [pc, #112]	; (8006e2c <HAL_RCCEx_GetPeriphCLKFreq+0x5cc>)
 8006dbc:	f8d3 3088 	ldr.w	r3, [r3, #136]	; 0x88
 8006dc0:	f403 6340 	and.w	r3, r3, #3072	; 0xc00
 8006dc4:	613b      	str	r3, [r7, #16]
 8006dc6:	693b      	ldr	r3, [r7, #16]
 8006dc8:	f5b3 6f80 	cmp.w	r3, #1024	; 0x400
 8006dcc:	d010      	beq.n	8006df0 <HAL_RCCEx_GetPeriphCLKFreq+0x590>
 8006dce:	f5b3 6f80 	cmp.w	r3, #1024	; 0x400
 8006dd2:	d802      	bhi.n	8006dda <HAL_RCCEx_GetPeriphCLKFreq+0x57a>
 8006dd4:	2b00      	cmp	r3, #0
 8006dd6:	d007      	beq.n	8006de8 <HAL_RCCEx_GetPeriphCLKFreq+0x588>
 8006dd8:	e026      	b.n	8006e28 <HAL_RCCEx_GetPeriphCLKFreq+0x5c8>
 8006dda:	f5b3 6f00 	cmp.w	r3, #2048	; 0x800
 8006dde:	d00b      	beq.n	8006df8 <HAL_RCCEx_GetPeriphCLKFreq+0x598>
 8006de0:	f5b3 6f40 	cmp.w	r3, #3072	; 0xc00
 8006de4:	d012      	beq.n	8006e0c <HAL_RCCEx_GetPeriphCLKFreq+0x5ac>
 8006de6:	e01f      	b.n	8006e28 <HAL_RCCEx_GetPeriphCLKFreq+0x5c8>
 8006de8:	f7ff f9c8 	bl	800617c <HAL_RCC_GetPCLK1Freq>
 8006dec:	61f8      	str	r0, [r7, #28]
 8006dee:	e01b      	b.n	8006e28 <HAL_RCCEx_GetPeriphCLKFreq+0x5c8>
 8006df0:	f7ff f92e 	bl	8006050 <HAL_RCC_GetSysClockFreq>
 8006df4:	61f8      	str	r0, [r7, #28]
 8006df6:	e017      	b.n	8006e28 <HAL_RCCEx_GetPeriphCLKFreq+0x5c8>
 8006df8:	4b0c      	ldr	r3, [pc, #48]	; (8006e2c <HAL_RCCEx_GetPeriphCLKFreq+0x5cc>)
 8006dfa:	681b      	ldr	r3, [r3, #0]
 8006dfc:	f403 6380 	and.w	r3, r3, #1024	; 0x400
 8006e00:	f5b3 6f80 	cmp.w	r3, #1024	; 0x400
 8006e04:	d10d      	bne.n	8006e22 <HAL_RCCEx_GetPeriphCLKFreq+0x5c2>
 8006e06:	4b0a      	ldr	r3, [pc, #40]	; (8006e30 <HAL_RCCEx_GetPeriphCLKFreq+0x5d0>)
 8006e08:	61fb      	str	r3, [r7, #28]
 8006e0a:	e00a      	b.n	8006e22 <HAL_RCCEx_GetPeriphCLKFreq+0x5c2>
 8006e0c:	4b07      	ldr	r3, [pc, #28]	; (8006e2c <HAL_RCCEx_GetPeriphCLKFreq+0x5cc>)
 8006e0e:	f8d3 3090 	ldr.w	r3, [r3, #144]	; 0x90
 8006e12:	f003 0302 	and.w	r3, r3, #2
 8006e16:	2b02      	cmp	r3, #2
 8006e18:	d105      	bne.n	8006e26 <HAL_RCCEx_GetPeriphCLKFreq+0x5c6>
 8006e1a:	f44f 4300 	mov.w	r3, #32768	; 0x8000
 8006e1e:	61fb      	str	r3, [r7, #28]
 8006e20:	e001      	b.n	8006e26 <HAL_RCCEx_GetPeriphCLKFreq+0x5c6>
 8006e22:	bf00      	nop
 8006e24:	e18b      	b.n	800713e <HAL_RCCEx_GetPeriphCLKFreq+0x8de>
 8006e26:	bf00      	nop
 8006e28:	e189      	b.n	800713e <HAL_RCCEx_GetPeriphCLKFreq+0x8de>
 8006e2a:	bf00      	nop
 8006e2c:	40021000 	.word	0x40021000
 8006e30:	00f42400 	.word	0x00f42400
 8006e34:	4bae      	ldr	r3, [pc, #696]	; (80070f0 <HAL_RCCEx_GetPeriphCLKFreq+0x890>)
 8006e36:	f8d3 3088 	ldr.w	r3, [r3, #136]	; 0x88
 8006e3a:	f003 5340 	and.w	r3, r3, #805306368	; 0x30000000
 8006e3e:	613b      	str	r3, [r7, #16]
 8006e40:	693b      	ldr	r3, [r7, #16]
 8006e42:	f1b3 5f00 	cmp.w	r3, #536870912	; 0x20000000
 8006e46:	d02f      	beq.n	8006ea8 <HAL_RCCEx_GetPeriphCLKFreq+0x648>
 8006e48:	f1b3 5f40 	cmp.w	r3, #805306368	; 0x30000000
 8006e4c:	d003      	beq.n	8006e56 <HAL_RCCEx_GetPeriphCLKFreq+0x5f6>
 8006e4e:	f1b3 5f80 	cmp.w	r3, #268435456	; 0x10000000
 8006e52:	d004      	beq.n	8006e5e <HAL_RCCEx_GetPeriphCLKFreq+0x5fe>
 8006e54:	e050      	b.n	8006ef8 <HAL_RCCEx_GetPeriphCLKFreq+0x698>
 8006e56:	f7ff f8fb 	bl	8006050 <HAL_RCC_GetSysClockFreq>
 8006e5a:	61f8      	str	r0, [r7, #28]
 8006e5c:	e04c      	b.n	8006ef8 <HAL_RCCEx_GetPeriphCLKFreq+0x698>
 8006e5e:	4ba4      	ldr	r3, [pc, #656]	; (80070f0 <HAL_RCCEx_GetPeriphCLKFreq+0x890>)
 8006e60:	691b      	ldr	r3, [r3, #16]
 8006e62:	f003 7380 	and.w	r3, r3, #16777216	; 0x1000000
 8006e66:	2b00      	cmp	r3, #0
 8006e68:	d043      	beq.n	8006ef2 <HAL_RCCEx_GetPeriphCLKFreq+0x692>
 8006e6a:	4ba1      	ldr	r3, [pc, #644]	; (80070f0 <HAL_RCCEx_GetPeriphCLKFreq+0x890>)
 8006e6c:	691b      	ldr	r3, [r3, #16]
 8006e6e:	0a1b      	lsrs	r3, r3, #8
 8006e70:	f003 037f 	and.w	r3, r3, #127	; 0x7f
 8006e74:	60fb      	str	r3, [r7, #12]
 8006e76:	69bb      	ldr	r3, [r7, #24]
 8006e78:	68fa      	ldr	r2, [r7, #12]
 8006e7a:	fb02 f203 	mul.w	r2, r2, r3
 8006e7e:	4b9c      	ldr	r3, [pc, #624]	; (80070f0 <HAL_RCCEx_GetPeriphCLKFreq+0x890>)
 8006e80:	68db      	ldr	r3, [r3, #12]
 8006e82:	091b      	lsrs	r3, r3, #4
 8006e84:	f003 0307 	and.w	r3, r3, #7
 8006e88:	3301      	adds	r3, #1
 8006e8a:	fbb2 f3f3 	udiv	r3, r2, r3
 8006e8e:	61bb      	str	r3, [r7, #24]
 8006e90:	4b97      	ldr	r3, [pc, #604]	; (80070f0 <HAL_RCCEx_GetPeriphCLKFreq+0x890>)
 8006e92:	691b      	ldr	r3, [r3, #16]
 8006e94:	0e5b      	lsrs	r3, r3, #25
 8006e96:	f003 0303 	and.w	r3, r3, #3
 8006e9a:	3301      	adds	r3, #1
 8006e9c:	005b      	lsls	r3, r3, #1
 8006e9e:	69ba      	ldr	r2, [r7, #24]
 8006ea0:	fbb2 f3f3 	udiv	r3, r2, r3
 8006ea4:	61fb      	str	r3, [r7, #28]
 8006ea6:	e024      	b.n	8006ef2 <HAL_RCCEx_GetPeriphCLKFreq+0x692>
 8006ea8:	4b91      	ldr	r3, [pc, #580]	; (80070f0 <HAL_RCCEx_GetPeriphCLKFreq+0x890>)
 8006eaa:	695b      	ldr	r3, [r3, #20]
 8006eac:	f003 7380 	and.w	r3, r3, #16777216	; 0x1000000
 8006eb0:	2b00      	cmp	r3, #0
 8006eb2:	d020      	beq.n	8006ef6 <HAL_RCCEx_GetPeriphCLKFreq+0x696>
 8006eb4:	4b8e      	ldr	r3, [pc, #568]	; (80070f0 <HAL_RCCEx_GetPeriphCLKFreq+0x890>)
 8006eb6:	695b      	ldr	r3, [r3, #20]
 8006eb8:	0a1b      	lsrs	r3, r3, #8
 8006eba:	f003 037f 	and.w	r3, r3, #127	; 0x7f
 8006ebe:	60fb      	str	r3, [r7, #12]
 8006ec0:	69bb      	ldr	r3, [r7, #24]
 8006ec2:	68fa      	ldr	r2, [r7, #12]
 8006ec4:	fb02 f203 	mul.w	r2, r2, r3
 8006ec8:	4b89      	ldr	r3, [pc, #548]	; (80070f0 <HAL_RCCEx_GetPeriphCLKFreq+0x890>)
 8006eca:	68db      	ldr	r3, [r3, #12]
 8006ecc:	091b      	lsrs	r3, r3, #4
 8006ece:	f003 0307 	and.w	r3, r3, #7
 8006ed2:	3301      	adds	r3, #1
 8006ed4:	fbb2 f3f3 	udiv	r3, r2, r3
 8006ed8:	61bb      	str	r3, [r7, #24]
 8006eda:	4b85      	ldr	r3, [pc, #532]	; (80070f0 <HAL_RCCEx_GetPeriphCLKFreq+0x890>)
 8006edc:	695b      	ldr	r3, [r3, #20]
 8006ede:	0e5b      	lsrs	r3, r3, #25
 8006ee0:	f003 0303 	and.w	r3, r3, #3
 8006ee4:	3301      	adds	r3, #1
 8006ee6:	005b      	lsls	r3, r3, #1
 8006ee8:	69ba      	ldr	r2, [r7, #24]
 8006eea:	fbb2 f3f3 	udiv	r3, r2, r3
 8006eee:	61fb      	str	r3, [r7, #28]
 8006ef0:	e001      	b.n	8006ef6 <HAL_RCCEx_GetPeriphCLKFreq+0x696>
 8006ef2:	bf00      	nop
 8006ef4:	e123      	b.n	800713e <HAL_RCCEx_GetPeriphCLKFreq+0x8de>
 8006ef6:	bf00      	nop
 8006ef8:	e121      	b.n	800713e <HAL_RCCEx_GetPeriphCLKFreq+0x8de>
 8006efa:	4b7d      	ldr	r3, [pc, #500]	; (80070f0 <HAL_RCCEx_GetPeriphCLKFreq+0x890>)
 8006efc:	f8d3 3088 	ldr.w	r3, [r3, #136]	; 0x88
 8006f00:	f003 4300 	and.w	r3, r3, #2147483648	; 0x80000000
 8006f04:	613b      	str	r3, [r7, #16]
 8006f06:	693b      	ldr	r3, [r7, #16]
 8006f08:	2b00      	cmp	r3, #0
 8006f0a:	d103      	bne.n	8006f14 <HAL_RCCEx_GetPeriphCLKFreq+0x6b4>
 8006f0c:	f7ff f94c 	bl	80061a8 <HAL_RCC_GetPCLK2Freq>
 8006f10:	61f8      	str	r0, [r7, #28]
 8006f12:	e114      	b.n	800713e <HAL_RCCEx_GetPeriphCLKFreq+0x8de>
 8006f14:	f7ff f89c 	bl	8006050 <HAL_RCC_GetSysClockFreq>
 8006f18:	61f8      	str	r0, [r7, #28]
 8006f1a:	e110      	b.n	800713e <HAL_RCCEx_GetPeriphCLKFreq+0x8de>
 8006f1c:	4b74      	ldr	r3, [pc, #464]	; (80070f0 <HAL_RCCEx_GetPeriphCLKFreq+0x890>)
 8006f1e:	f8d3 3088 	ldr.w	r3, [r3, #136]	; 0x88
 8006f22:	f403 5340 	and.w	r3, r3, #12288	; 0x3000
 8006f26:	613b      	str	r3, [r7, #16]
 8006f28:	693b      	ldr	r3, [r7, #16]
 8006f2a:	f5b3 5f80 	cmp.w	r3, #4096	; 0x1000
 8006f2e:	d009      	beq.n	8006f44 <HAL_RCCEx_GetPeriphCLKFreq+0x6e4>
 8006f30:	f5b3 5f00 	cmp.w	r3, #8192	; 0x2000
 8006f34:	d00a      	beq.n	8006f4c <HAL_RCCEx_GetPeriphCLKFreq+0x6ec>
 8006f36:	2b00      	cmp	r3, #0
 8006f38:	d000      	beq.n	8006f3c <HAL_RCCEx_GetPeriphCLKFreq+0x6dc>
 8006f3a:	e011      	b.n	8006f60 <HAL_RCCEx_GetPeriphCLKFreq+0x700>
 8006f3c:	f7ff f91e 	bl	800617c <HAL_RCC_GetPCLK1Freq>
 8006f40:	61f8      	str	r0, [r7, #28]
 8006f42:	e00d      	b.n	8006f60 <HAL_RCCEx_GetPeriphCLKFreq+0x700>
 8006f44:	f7ff f884 	bl	8006050 <HAL_RCC_GetSysClockFreq>
 8006f48:	61f8      	str	r0, [r7, #28]
 8006f4a:	e009      	b.n	8006f60 <HAL_RCCEx_GetPeriphCLKFreq+0x700>
 8006f4c:	4b68      	ldr	r3, [pc, #416]	; (80070f0 <HAL_RCCEx_GetPeriphCLKFreq+0x890>)
 8006f4e:	681b      	ldr	r3, [r3, #0]
 8006f50:	f403 6380 	and.w	r3, r3, #1024	; 0x400
 8006f54:	f5b3 6f80 	cmp.w	r3, #1024	; 0x400
 8006f58:	d101      	bne.n	8006f5e <HAL_RCCEx_GetPeriphCLKFreq+0x6fe>
 8006f5a:	4b66      	ldr	r3, [pc, #408]	; (80070f4 <HAL_RCCEx_GetPeriphCLKFreq+0x894>)
 8006f5c:	61fb      	str	r3, [r7, #28]
 8006f5e:	bf00      	nop
 8006f60:	e0ed      	b.n	800713e <HAL_RCCEx_GetPeriphCLKFreq+0x8de>
 8006f62:	4b63      	ldr	r3, [pc, #396]	; (80070f0 <HAL_RCCEx_GetPeriphCLKFreq+0x890>)
 8006f64:	f8d3 3088 	ldr.w	r3, [r3, #136]	; 0x88
 8006f68:	f403 4340 	and.w	r3, r3, #49152	; 0xc000
 8006f6c:	613b      	str	r3, [r7, #16]
 8006f6e:	693b      	ldr	r3, [r7, #16]
 8006f70:	f5b3 4f80 	cmp.w	r3, #16384	; 0x4000
 8006f74:	d009      	beq.n	8006f8a <HAL_RCCEx_GetPeriphCLKFreq+0x72a>
 8006f76:	f5b3 4f00 	cmp.w	r3, #32768	; 0x8000
 8006f7a:	d00a      	beq.n	8006f92 <HAL_RCCEx_GetPeriphCLKFreq+0x732>
 8006f7c:	2b00      	cmp	r3, #0
 8006f7e:	d000      	beq.n	8006f82 <HAL_RCCEx_GetPeriphCLKFreq+0x722>
 8006f80:	e011      	b.n	8006fa6 <HAL_RCCEx_GetPeriphCLKFreq+0x746>
 8006f82:	f7ff f8fb 	bl	800617c <HAL_RCC_GetPCLK1Freq>
 8006f86:	61f8      	str	r0, [r7, #28]
 8006f88:	e00d      	b.n	8006fa6 <HAL_RCCEx_GetPeriphCLKFreq+0x746>
 8006f8a:	f7ff f861 	bl	8006050 <HAL_RCC_GetSysClockFreq>
 8006f8e:	61f8      	str	r0, [r7, #28]
 8006f90:	e009      	b.n	8006fa6 <HAL_RCCEx_GetPeriphCLKFreq+0x746>
 8006f92:	4b57      	ldr	r3, [pc, #348]	; (80070f0 <HAL_RCCEx_GetPeriphCLKFreq+0x890>)
 8006f94:	681b      	ldr	r3, [r3, #0]
 8006f96:	f403 6380 	and.w	r3, r3, #1024	; 0x400
 8006f9a:	f5b3 6f80 	cmp.w	r3, #1024	; 0x400
 8006f9e:	d101      	bne.n	8006fa4 <HAL_RCCEx_GetPeriphCLKFreq+0x744>
 8006fa0:	4b54      	ldr	r3, [pc, #336]	; (80070f4 <HAL_RCCEx_GetPeriphCLKFreq+0x894>)
 8006fa2:	61fb      	str	r3, [r7, #28]
 8006fa4:	bf00      	nop
 8006fa6:	e0ca      	b.n	800713e <HAL_RCCEx_GetPeriphCLKFreq+0x8de>
 8006fa8:	4b51      	ldr	r3, [pc, #324]	; (80070f0 <HAL_RCCEx_GetPeriphCLKFreq+0x890>)
 8006faa:	f8d3 3088 	ldr.w	r3, [r3, #136]	; 0x88
 8006fae:	f403 3340 	and.w	r3, r3, #196608	; 0x30000
 8006fb2:	613b      	str	r3, [r7, #16]
 8006fb4:	693b      	ldr	r3, [r7, #16]
 8006fb6:	f5b3 3f80 	cmp.w	r3, #65536	; 0x10000
 8006fba:	d009      	beq.n	8006fd0 <HAL_RCCEx_GetPeriphCLKFreq+0x770>
 8006fbc:	f5b3 3f00 	cmp.w	r3, #131072	; 0x20000
 8006fc0:	d00a      	beq.n	8006fd8 <HAL_RCCEx_GetPeriphCLKFreq+0x778>
 8006fc2:	2b00      	cmp	r3, #0
 8006fc4:	d000      	beq.n	8006fc8 <HAL_RCCEx_GetPeriphCLKFreq+0x768>
 8006fc6:	e011      	b.n	8006fec <HAL_RCCEx_GetPeriphCLKFreq+0x78c>
 8006fc8:	f7ff f8d8 	bl	800617c <HAL_RCC_GetPCLK1Freq>
 8006fcc:	61f8      	str	r0, [r7, #28]
 8006fce:	e00d      	b.n	8006fec <HAL_RCCEx_GetPeriphCLKFreq+0x78c>
 8006fd0:	f7ff f83e 	bl	8006050 <HAL_RCC_GetSysClockFreq>
 8006fd4:	61f8      	str	r0, [r7, #28]
 8006fd6:	e009      	b.n	8006fec <HAL_RCCEx_GetPeriphCLKFreq+0x78c>
 8006fd8:	4b45      	ldr	r3, [pc, #276]	; (80070f0 <HAL_RCCEx_GetPeriphCLKFreq+0x890>)
 8006fda:	681b      	ldr	r3, [r3, #0]
 8006fdc:	f403 6380 	and.w	r3, r3, #1024	; 0x400
 8006fe0:	f5b3 6f80 	cmp.w	r3, #1024	; 0x400
 8006fe4:	d101      	bne.n	8006fea <HAL_RCCEx_GetPeriphCLKFreq+0x78a>
 8006fe6:	4b43      	ldr	r3, [pc, #268]	; (80070f4 <HAL_RCCEx_GetPeriphCLKFreq+0x894>)
 8006fe8:	61fb      	str	r3, [r7, #28]
 8006fea:	bf00      	nop
 8006fec:	e0a7      	b.n	800713e <HAL_RCCEx_GetPeriphCLKFreq+0x8de>
 8006fee:	4b40      	ldr	r3, [pc, #256]	; (80070f0 <HAL_RCCEx_GetPeriphCLKFreq+0x890>)
 8006ff0:	f8d3 3088 	ldr.w	r3, [r3, #136]	; 0x88
 8006ff4:	f403 2340 	and.w	r3, r3, #786432	; 0xc0000
 8006ff8:	613b      	str	r3, [r7, #16]
 8006ffa:	693b      	ldr	r3, [r7, #16]
 8006ffc:	f5b3 2f80 	cmp.w	r3, #262144	; 0x40000
 8007000:	d010      	beq.n	8007024 <HAL_RCCEx_GetPeriphCLKFreq+0x7c4>
 8007002:	f5b3 2f80 	cmp.w	r3, #262144	; 0x40000
 8007006:	d802      	bhi.n	800700e <HAL_RCCEx_GetPeriphCLKFreq+0x7ae>
 8007008:	2b00      	cmp	r3, #0
 800700a:	d007      	beq.n	800701c <HAL_RCCEx_GetPeriphCLKFreq+0x7bc>
 800700c:	e02f      	b.n	800706e <HAL_RCCEx_GetPeriphCLKFreq+0x80e>
 800700e:	f5b3 2f00 	cmp.w	r3, #524288	; 0x80000
 8007012:	d012      	beq.n	800703a <HAL_RCCEx_GetPeriphCLKFreq+0x7da>
 8007014:	f5b3 2f40 	cmp.w	r3, #786432	; 0xc0000
 8007018:	d019      	beq.n	800704e <HAL_RCCEx_GetPeriphCLKFreq+0x7ee>
 800701a:	e028      	b.n	800706e <HAL_RCCEx_GetPeriphCLKFreq+0x80e>
 800701c:	f7ff f8ae 	bl	800617c <HAL_RCC_GetPCLK1Freq>
 8007020:	61f8      	str	r0, [r7, #28]
 8007022:	e024      	b.n	800706e <HAL_RCCEx_GetPeriphCLKFreq+0x80e>
 8007024:	4b32      	ldr	r3, [pc, #200]	; (80070f0 <HAL_RCCEx_GetPeriphCLKFreq+0x890>)
 8007026:	f8d3 3094 	ldr.w	r3, [r3, #148]	; 0x94
 800702a:	f003 0302 	and.w	r3, r3, #2
 800702e:	2b02      	cmp	r3, #2
 8007030:	d118      	bne.n	8007064 <HAL_RCCEx_GetPeriphCLKFreq+0x804>
 8007032:	f44f 43fa 	mov.w	r3, #32000	; 0x7d00
 8007036:	61fb      	str	r3, [r7, #28]
 8007038:	e014      	b.n	8007064 <HAL_RCCEx_GetPeriphCLKFreq+0x804>
 800703a:	4b2d      	ldr	r3, [pc, #180]	; (80070f0 <HAL_RCCEx_GetPeriphCLKFreq+0x890>)
 800703c:	681b      	ldr	r3, [r3, #0]
 800703e:	f403 6380 	and.w	r3, r3, #1024	; 0x400
 8007042:	f5b3 6f80 	cmp.w	r3, #1024	; 0x400
 8007046:	d10f      	bne.n	8007068 <HAL_RCCEx_GetPeriphCLKFreq+0x808>
 8007048:	4b2a      	ldr	r3, [pc, #168]	; (80070f4 <HAL_RCCEx_GetPeriphCLKFreq+0x894>)
 800704a:	61fb      	str	r3, [r7, #28]
 800704c:	e00c      	b.n	8007068 <HAL_RCCEx_GetPeriphCLKFreq+0x808>
 800704e:	4b28      	ldr	r3, [pc, #160]	; (80070f0 <HAL_RCCEx_GetPeriphCLKFreq+0x890>)
 8007050:	f8d3 3090 	ldr.w	r3, [r3, #144]	; 0x90
 8007054:	f003 0302 	and.w	r3, r3, #2
 8007058:	2b02      	cmp	r3, #2
 800705a:	d107      	bne.n	800706c <HAL_RCCEx_GetPeriphCLKFreq+0x80c>
 800705c:	f44f 4300 	mov.w	r3, #32768	; 0x8000
 8007060:	61fb      	str	r3, [r7, #28]
 8007062:	e003      	b.n	800706c <HAL_RCCEx_GetPeriphCLKFreq+0x80c>
 8007064:	bf00      	nop
 8007066:	e06a      	b.n	800713e <HAL_RCCEx_GetPeriphCLKFreq+0x8de>
 8007068:	bf00      	nop
 800706a:	e068      	b.n	800713e <HAL_RCCEx_GetPeriphCLKFreq+0x8de>
 800706c:	bf00      	nop
 800706e:	e066      	b.n	800713e <HAL_RCCEx_GetPeriphCLKFreq+0x8de>
 8007070:	4b1f      	ldr	r3, [pc, #124]	; (80070f0 <HAL_RCCEx_GetPeriphCLKFreq+0x890>)
 8007072:	f8d3 3088 	ldr.w	r3, [r3, #136]	; 0x88
 8007076:	f403 1340 	and.w	r3, r3, #3145728	; 0x300000
 800707a:	613b      	str	r3, [r7, #16]
 800707c:	693b      	ldr	r3, [r7, #16]
 800707e:	f5b3 1f80 	cmp.w	r3, #1048576	; 0x100000
 8007082:	d010      	beq.n	80070a6 <HAL_RCCEx_GetPeriphCLKFreq+0x846>
 8007084:	f5b3 1f80 	cmp.w	r3, #1048576	; 0x100000
 8007088:	d802      	bhi.n	8007090 <HAL_RCCEx_GetPeriphCLKFreq+0x830>
 800708a:	2b00      	cmp	r3, #0
 800708c:	d007      	beq.n	800709e <HAL_RCCEx_GetPeriphCLKFreq+0x83e>
 800708e:	e034      	b.n	80070fa <HAL_RCCEx_GetPeriphCLKFreq+0x89a>
 8007090:	f5b3 1f00 	cmp.w	r3, #2097152	; 0x200000
 8007094:	d012      	beq.n	80070bc <HAL_RCCEx_GetPeriphCLKFreq+0x85c>
 8007096:	f5b3 1f40 	cmp.w	r3, #3145728	; 0x300000
 800709a:	d019      	beq.n	80070d0 <HAL_RCCEx_GetPeriphCLKFreq+0x870>
 800709c:	e02d      	b.n	80070fa <HAL_RCCEx_GetPeriphCLKFreq+0x89a>
 800709e:	f7ff f86d 	bl	800617c <HAL_RCC_GetPCLK1Freq>
 80070a2:	61f8      	str	r0, [r7, #28]
 80070a4:	e029      	b.n	80070fa <HAL_RCCEx_GetPeriphCLKFreq+0x89a>
 80070a6:	4b12      	ldr	r3, [pc, #72]	; (80070f0 <HAL_RCCEx_GetPeriphCLKFreq+0x890>)
 80070a8:	f8d3 3094 	ldr.w	r3, [r3, #148]	; 0x94
 80070ac:	f003 0302 	and.w	r3, r3, #2
 80070b0:	2b02      	cmp	r3, #2
 80070b2:	d118      	bne.n	80070e6 <HAL_RCCEx_GetPeriphCLKFreq+0x886>
 80070b4:	f44f 43fa 	mov.w	r3, #32000	; 0x7d00
 80070b8:	61fb      	str	r3, [r7, #28]
 80070ba:	e014      	b.n	80070e6 <HAL_RCCEx_GetPeriphCLKFreq+0x886>
 80070bc:	4b0c      	ldr	r3, [pc, #48]	; (80070f0 <HAL_RCCEx_GetPeriphCLKFreq+0x890>)
 80070be:	681b      	ldr	r3, [r3, #0]
 80070c0:	f403 6380 	and.w	r3, r3, #1024	; 0x400
 80070c4:	f5b3 6f80 	cmp.w	r3, #1024	; 0x400
 80070c8:	d10f      	bne.n	80070ea <HAL_RCCEx_GetPeriphCLKFreq+0x88a>
 80070ca:	4b0a      	ldr	r3, [pc, #40]	; (80070f4 <HAL_RCCEx_GetPeriphCLKFreq+0x894>)
 80070cc:	61fb      	str	r3, [r7, #28]
 80070ce:	e00c      	b.n	80070ea <HAL_RCCEx_GetPeriphCLKFreq+0x88a>
 80070d0:	4b07      	ldr	r3, [pc, #28]	; (80070f0 <HAL_RCCEx_GetPeriphCLKFreq+0x890>)
 80070d2:	f8d3 3090 	ldr.w	r3, [r3, #144]	; 0x90
 80070d6:	f003 0302 	and.w	r3, r3, #2
 80070da:	2b02      	cmp	r3, #2
 80070dc:	d10c      	bne.n	80070f8 <HAL_RCCEx_GetPeriphCLKFreq+0x898>
 80070de:	f44f 4300 	mov.w	r3, #32768	; 0x8000
 80070e2:	61fb      	str	r3, [r7, #28]
 80070e4:	e008      	b.n	80070f8 <HAL_RCCEx_GetPeriphCLKFreq+0x898>
 80070e6:	bf00      	nop
 80070e8:	e029      	b.n	800713e <HAL_RCCEx_GetPeriphCLKFreq+0x8de>
 80070ea:	bf00      	nop
 80070ec:	e027      	b.n	800713e <HAL_RCCEx_GetPeriphCLKFreq+0x8de>
 80070ee:	bf00      	nop
 80070f0:	40021000 	.word	0x40021000
 80070f4:	00f42400 	.word	0x00f42400
 80070f8:	bf00      	nop
 80070fa:	e020      	b.n	800713e <HAL_RCCEx_GetPeriphCLKFreq+0x8de>
 80070fc:	4b12      	ldr	r3, [pc, #72]	; (8007148 <HAL_RCCEx_GetPeriphCLKFreq+0x8e8>)
 80070fe:	f8d3 3088 	ldr.w	r3, [r3, #136]	; 0x88
 8007102:	f003 4380 	and.w	r3, r3, #1073741824	; 0x40000000
 8007106:	613b      	str	r3, [r7, #16]
 8007108:	693b      	ldr	r3, [r7, #16]
 800710a:	2b00      	cmp	r3, #0
 800710c:	d003      	beq.n	8007116 <HAL_RCCEx_GetPeriphCLKFreq+0x8b6>
 800710e:	f1b3 4f80 	cmp.w	r3, #1073741824	; 0x40000000
 8007112:	d004      	beq.n	800711e <HAL_RCCEx_GetPeriphCLKFreq+0x8be>
 8007114:	e00d      	b.n	8007132 <HAL_RCCEx_GetPeriphCLKFreq+0x8d2>
 8007116:	f7ff f831 	bl	800617c <HAL_RCC_GetPCLK1Freq>
 800711a:	61f8      	str	r0, [r7, #28]
 800711c:	e009      	b.n	8007132 <HAL_RCCEx_GetPeriphCLKFreq+0x8d2>
 800711e:	4b0a      	ldr	r3, [pc, #40]	; (8007148 <HAL_RCCEx_GetPeriphCLKFreq+0x8e8>)
 8007120:	681b      	ldr	r3, [r3, #0]
 8007122:	f403 6380 	and.w	r3, r3, #1024	; 0x400
 8007126:	f5b3 6f80 	cmp.w	r3, #1024	; 0x400
 800712a:	d101      	bne.n	8007130 <HAL_RCCEx_GetPeriphCLKFreq+0x8d0>
 800712c:	4b07      	ldr	r3, [pc, #28]	; (800714c <HAL_RCCEx_GetPeriphCLKFreq+0x8ec>)
 800712e:	61fb      	str	r3, [r7, #28]
 8007130:	bf00      	nop
 8007132:	e004      	b.n	800713e <HAL_RCCEx_GetPeriphCLKFreq+0x8de>
 8007134:	bf00      	nop
 8007136:	e002      	b.n	800713e <HAL_RCCEx_GetPeriphCLKFreq+0x8de>
 8007138:	bf00      	nop
 800713a:	e000      	b.n	800713e <HAL_RCCEx_GetPeriphCLKFreq+0x8de>
 800713c:	bf00      	nop
 800713e:	69fb      	ldr	r3, [r7, #28]
 8007140:	4618      	mov	r0, r3
 8007142:	3720      	adds	r7, #32
 8007144:	46bd      	mov	sp, r7
 8007146:	bd80      	pop	{r7, pc}
 8007148:	40021000 	.word	0x40021000
 800714c:	00f42400 	.word	0x00f42400

08007150 <HAL_RCCEx_EnableMSIPLLMode>:
 8007150:	b480      	push	{r7}
 8007152:	af00      	add	r7, sp, #0
 8007154:	4b05      	ldr	r3, [pc, #20]	; (800716c <HAL_RCCEx_EnableMSIPLLMode+0x1c>)
 8007156:	681b      	ldr	r3, [r3, #0]
 8007158:	4a04      	ldr	r2, [pc, #16]	; (800716c <HAL_RCCEx_EnableMSIPLLMode+0x1c>)
 800715a:	f043 0304 	orr.w	r3, r3, #4
 800715e:	6013      	str	r3, [r2, #0]
 8007160:	bf00      	nop
 8007162:	46bd      	mov	sp, r7
 8007164:	f85d 7b04 	ldr.w	r7, [sp], #4
 8007168:	4770      	bx	lr
 800716a:	bf00      	nop
 800716c:	40021000 	.word	0x40021000

08007170 <RCCEx_PLLSAI1_Config>:
 8007170:	b580      	push	{r7, lr}
 8007172:	b084      	sub	sp, #16
 8007174:	af00      	add	r7, sp, #0
 8007176:	6078      	str	r0, [r7, #4]
 8007178:	6039      	str	r1, [r7, #0]
 800717a:	2300      	movs	r3, #0
 800717c:	73fb      	strb	r3, [r7, #15]
 800717e:	4b73      	ldr	r3, [pc, #460]	; (800734c <RCCEx_PLLSAI1_Config+0x1dc>)
 8007180:	68db      	ldr	r3, [r3, #12]
 8007182:	f003 0303 	and.w	r3, r3, #3
 8007186:	2b00      	cmp	r3, #0
 8007188:	d018      	beq.n	80071bc <RCCEx_PLLSAI1_Config+0x4c>
 800718a:	4b70      	ldr	r3, [pc, #448]	; (800734c <RCCEx_PLLSAI1_Config+0x1dc>)
 800718c:	68db      	ldr	r3, [r3, #12]
 800718e:	f003 0203 	and.w	r2, r3, #3
 8007192:	687b      	ldr	r3, [r7, #4]
 8007194:	681b      	ldr	r3, [r3, #0]
 8007196:	429a      	cmp	r2, r3
 8007198:	d10d      	bne.n	80071b6 <RCCEx_PLLSAI1_Config+0x46>
 800719a:	687b      	ldr	r3, [r7, #4]
 800719c:	681b      	ldr	r3, [r3, #0]
 800719e:	2b00      	cmp	r3, #0
 80071a0:	d009      	beq.n	80071b6 <RCCEx_PLLSAI1_Config+0x46>
 80071a2:	4b6a      	ldr	r3, [pc, #424]	; (800734c <RCCEx_PLLSAI1_Config+0x1dc>)
 80071a4:	68db      	ldr	r3, [r3, #12]
 80071a6:	091b      	lsrs	r3, r3, #4
 80071a8:	f003 0307 	and.w	r3, r3, #7
 80071ac:	1c5a      	adds	r2, r3, #1
 80071ae:	687b      	ldr	r3, [r7, #4]
 80071b0:	685b      	ldr	r3, [r3, #4]
 80071b2:	429a      	cmp	r2, r3
 80071b4:	d044      	beq.n	8007240 <RCCEx_PLLSAI1_Config+0xd0>
 80071b6:	2301      	movs	r3, #1
 80071b8:	73fb      	strb	r3, [r7, #15]
 80071ba:	e041      	b.n	8007240 <RCCEx_PLLSAI1_Config+0xd0>
 80071bc:	687b      	ldr	r3, [r7, #4]
 80071be:	681b      	ldr	r3, [r3, #0]
 80071c0:	2b02      	cmp	r3, #2
 80071c2:	d00c      	beq.n	80071de <RCCEx_PLLSAI1_Config+0x6e>
 80071c4:	2b03      	cmp	r3, #3
 80071c6:	d013      	beq.n	80071f0 <RCCEx_PLLSAI1_Config+0x80>
 80071c8:	2b01      	cmp	r3, #1
 80071ca:	d120      	bne.n	800720e <RCCEx_PLLSAI1_Config+0x9e>
 80071cc:	4b5f      	ldr	r3, [pc, #380]	; (800734c <RCCEx_PLLSAI1_Config+0x1dc>)
 80071ce:	681b      	ldr	r3, [r3, #0]
 80071d0:	f003 0302 	and.w	r3, r3, #2
 80071d4:	2b00      	cmp	r3, #0
 80071d6:	d11d      	bne.n	8007214 <RCCEx_PLLSAI1_Config+0xa4>
 80071d8:	2301      	movs	r3, #1
 80071da:	73fb      	strb	r3, [r7, #15]
 80071dc:	e01a      	b.n	8007214 <RCCEx_PLLSAI1_Config+0xa4>
 80071de:	4b5b      	ldr	r3, [pc, #364]	; (800734c <RCCEx_PLLSAI1_Config+0x1dc>)
 80071e0:	681b      	ldr	r3, [r3, #0]
 80071e2:	f403 6380 	and.w	r3, r3, #1024	; 0x400
 80071e6:	2b00      	cmp	r3, #0
 80071e8:	d116      	bne.n	8007218 <RCCEx_PLLSAI1_Config+0xa8>
 80071ea:	2301      	movs	r3, #1
 80071ec:	73fb      	strb	r3, [r7, #15]
 80071ee:	e013      	b.n	8007218 <RCCEx_PLLSAI1_Config+0xa8>
 80071f0:	4b56      	ldr	r3, [pc, #344]	; (800734c <RCCEx_PLLSAI1_Config+0x1dc>)
 80071f2:	681b      	ldr	r3, [r3, #0]
 80071f4:	f403 3300 	and.w	r3, r3, #131072	; 0x20000
 80071f8:	2b00      	cmp	r3, #0
 80071fa:	d10f      	bne.n	800721c <RCCEx_PLLSAI1_Config+0xac>
 80071fc:	4b53      	ldr	r3, [pc, #332]	; (800734c <RCCEx_PLLSAI1_Config+0x1dc>)
 80071fe:	681b      	ldr	r3, [r3, #0]
 8007200:	f403 2380 	and.w	r3, r3, #262144	; 0x40000
 8007204:	2b00      	cmp	r3, #0
 8007206:	d109      	bne.n	800721c <RCCEx_PLLSAI1_Config+0xac>
 8007208:	2301      	movs	r3, #1
 800720a:	73fb      	strb	r3, [r7, #15]
 800720c:	e006      	b.n	800721c <RCCEx_PLLSAI1_Config+0xac>
 800720e:	2301      	movs	r3, #1
 8007210:	73fb      	strb	r3, [r7, #15]
 8007212:	e004      	b.n	800721e <RCCEx_PLLSAI1_Config+0xae>
 8007214:	bf00      	nop
 8007216:	e002      	b.n	800721e <RCCEx_PLLSAI1_Config+0xae>
 8007218:	bf00      	nop
 800721a:	e000      	b.n	800721e <RCCEx_PLLSAI1_Config+0xae>
 800721c:	bf00      	nop
 800721e:	7bfb      	ldrb	r3, [r7, #15]
 8007220:	2b00      	cmp	r3, #0
 8007222:	d10d      	bne.n	8007240 <RCCEx_PLLSAI1_Config+0xd0>
 8007224:	4b49      	ldr	r3, [pc, #292]	; (800734c <RCCEx_PLLSAI1_Config+0x1dc>)
 8007226:	68db      	ldr	r3, [r3, #12]
 8007228:	f023 0273 	bic.w	r2, r3, #115	; 0x73
 800722c:	687b      	ldr	r3, [r7, #4]
 800722e:	6819      	ldr	r1, [r3, #0]
 8007230:	687b      	ldr	r3, [r7, #4]
 8007232:	685b      	ldr	r3, [r3, #4]
 8007234:	3b01      	subs	r3, #1
 8007236:	011b      	lsls	r3, r3, #4
 8007238:	430b      	orrs	r3, r1
 800723a:	4944      	ldr	r1, [pc, #272]	; (800734c <RCCEx_PLLSAI1_Config+0x1dc>)
 800723c:	4313      	orrs	r3, r2
 800723e:	60cb      	str	r3, [r1, #12]
 8007240:	7bfb      	ldrb	r3, [r7, #15]
 8007242:	2b00      	cmp	r3, #0
 8007244:	d17d      	bne.n	8007342 <RCCEx_PLLSAI1_Config+0x1d2>
 8007246:	4b41      	ldr	r3, [pc, #260]	; (800734c <RCCEx_PLLSAI1_Config+0x1dc>)
 8007248:	681b      	ldr	r3, [r3, #0]
 800724a:	4a40      	ldr	r2, [pc, #256]	; (800734c <RCCEx_PLLSAI1_Config+0x1dc>)
 800724c:	f023 6380 	bic.w	r3, r3, #67108864	; 0x4000000
 8007250:	6013      	str	r3, [r2, #0]
 8007252:	f7fa fa9d 	bl	8001790 <HAL_GetTick>
 8007256:	60b8      	str	r0, [r7, #8]
 8007258:	e009      	b.n	800726e <RCCEx_PLLSAI1_Config+0xfe>
 800725a:	f7fa fa99 	bl	8001790 <HAL_GetTick>
 800725e:	4602      	mov	r2, r0
 8007260:	68bb      	ldr	r3, [r7, #8]
 8007262:	1ad3      	subs	r3, r2, r3
 8007264:	2b02      	cmp	r3, #2
 8007266:	d902      	bls.n	800726e <RCCEx_PLLSAI1_Config+0xfe>
 8007268:	2303      	movs	r3, #3
 800726a:	73fb      	strb	r3, [r7, #15]
 800726c:	e005      	b.n	800727a <RCCEx_PLLSAI1_Config+0x10a>
 800726e:	4b37      	ldr	r3, [pc, #220]	; (800734c <RCCEx_PLLSAI1_Config+0x1dc>)
 8007270:	681b      	ldr	r3, [r3, #0]
 8007272:	f003 6300 	and.w	r3, r3, #134217728	; 0x8000000
 8007276:	2b00      	cmp	r3, #0
 8007278:	d1ef      	bne.n	800725a <RCCEx_PLLSAI1_Config+0xea>
 800727a:	7bfb      	ldrb	r3, [r7, #15]
 800727c:	2b00      	cmp	r3, #0
 800727e:	d160      	bne.n	8007342 <RCCEx_PLLSAI1_Config+0x1d2>
 8007280:	683b      	ldr	r3, [r7, #0]
 8007282:	2b00      	cmp	r3, #0
 8007284:	d111      	bne.n	80072aa <RCCEx_PLLSAI1_Config+0x13a>
 8007286:	4b31      	ldr	r3, [pc, #196]	; (800734c <RCCEx_PLLSAI1_Config+0x1dc>)
 8007288:	691b      	ldr	r3, [r3, #16]
 800728a:	f423 331f 	bic.w	r3, r3, #162816	; 0x27c00
 800728e:	f423 7340 	bic.w	r3, r3, #768	; 0x300
 8007292:	687a      	ldr	r2, [r7, #4]
 8007294:	6892      	ldr	r2, [r2, #8]
 8007296:	0211      	lsls	r1, r2, #8
 8007298:	687a      	ldr	r2, [r7, #4]
 800729a:	68d2      	ldr	r2, [r2, #12]
 800729c:	0912      	lsrs	r2, r2, #4
 800729e:	0452      	lsls	r2, r2, #17
 80072a0:	430a      	orrs	r2, r1
 80072a2:	492a      	ldr	r1, [pc, #168]	; (800734c <RCCEx_PLLSAI1_Config+0x1dc>)
 80072a4:	4313      	orrs	r3, r2
 80072a6:	610b      	str	r3, [r1, #16]
 80072a8:	e027      	b.n	80072fa <RCCEx_PLLSAI1_Config+0x18a>
 80072aa:	683b      	ldr	r3, [r7, #0]
 80072ac:	2b01      	cmp	r3, #1
 80072ae:	d112      	bne.n	80072d6 <RCCEx_PLLSAI1_Config+0x166>
 80072b0:	4b26      	ldr	r3, [pc, #152]	; (800734c <RCCEx_PLLSAI1_Config+0x1dc>)
 80072b2:	691b      	ldr	r3, [r3, #16]
 80072b4:	f423 03c0 	bic.w	r3, r3, #6291456	; 0x600000
 80072b8:	f423 43fe 	bic.w	r3, r3, #32512	; 0x7f00
 80072bc:	687a      	ldr	r2, [r7, #4]
 80072be:	6892      	ldr	r2, [r2, #8]
 80072c0:	0211      	lsls	r1, r2, #8
 80072c2:	687a      	ldr	r2, [r7, #4]
 80072c4:	6912      	ldr	r2, [r2, #16]
 80072c6:	0852      	lsrs	r2, r2, #1
 80072c8:	3a01      	subs	r2, #1
 80072ca:	0552      	lsls	r2, r2, #21
 80072cc:	430a      	orrs	r2, r1
 80072ce:	491f      	ldr	r1, [pc, #124]	; (800734c <RCCEx_PLLSAI1_Config+0x1dc>)
 80072d0:	4313      	orrs	r3, r2
 80072d2:	610b      	str	r3, [r1, #16]
 80072d4:	e011      	b.n	80072fa <RCCEx_PLLSAI1_Config+0x18a>
 80072d6:	4b1d      	ldr	r3, [pc, #116]	; (800734c <RCCEx_PLLSAI1_Config+0x1dc>)
 80072d8:	691b      	ldr	r3, [r3, #16]
 80072da:	f023 63c0 	bic.w	r3, r3, #100663296	; 0x6000000
 80072de:	f423 43fe 	bic.w	r3, r3, #32512	; 0x7f00
 80072e2:	687a      	ldr	r2, [r7, #4]
 80072e4:	6892      	ldr	r2, [r2, #8]
 80072e6:	0211      	lsls	r1, r2, #8
 80072e8:	687a      	ldr	r2, [r7, #4]
 80072ea:	6952      	ldr	r2, [r2, #20]
 80072ec:	0852      	lsrs	r2, r2, #1
 80072ee:	3a01      	subs	r2, #1
 80072f0:	0652      	lsls	r2, r2, #25
 80072f2:	430a      	orrs	r2, r1
 80072f4:	4915      	ldr	r1, [pc, #84]	; (800734c <RCCEx_PLLSAI1_Config+0x1dc>)
 80072f6:	4313      	orrs	r3, r2
 80072f8:	610b      	str	r3, [r1, #16]
 80072fa:	4b14      	ldr	r3, [pc, #80]	; (800734c <RCCEx_PLLSAI1_Config+0x1dc>)
 80072fc:	681b      	ldr	r3, [r3, #0]
 80072fe:	4a13      	ldr	r2, [pc, #76]	; (800734c <RCCEx_PLLSAI1_Config+0x1dc>)
 8007300:	f043 6380 	orr.w	r3, r3, #67108864	; 0x4000000
 8007304:	6013      	str	r3, [r2, #0]
 8007306:	f7fa fa43 	bl	8001790 <HAL_GetTick>
 800730a:	60b8      	str	r0, [r7, #8]
 800730c:	e009      	b.n	8007322 <RCCEx_PLLSAI1_Config+0x1b2>
 800730e:	f7fa fa3f 	bl	8001790 <HAL_GetTick>
 8007312:	4602      	mov	r2, r0
 8007314:	68bb      	ldr	r3, [r7, #8]
 8007316:	1ad3      	subs	r3, r2, r3
 8007318:	2b02      	cmp	r3, #2
 800731a:	d902      	bls.n	8007322 <RCCEx_PLLSAI1_Config+0x1b2>
 800731c:	2303      	movs	r3, #3
 800731e:	73fb      	strb	r3, [r7, #15]
 8007320:	e005      	b.n	800732e <RCCEx_PLLSAI1_Config+0x1be>
 8007322:	4b0a      	ldr	r3, [pc, #40]	; (800734c <RCCEx_PLLSAI1_Config+0x1dc>)
 8007324:	681b      	ldr	r3, [r3, #0]
 8007326:	f003 6300 	and.w	r3, r3, #134217728	; 0x8000000
 800732a:	2b00      	cmp	r3, #0
 800732c:	d0ef      	beq.n	800730e <RCCEx_PLLSAI1_Config+0x19e>
 800732e:	7bfb      	ldrb	r3, [r7, #15]
 8007330:	2b00      	cmp	r3, #0
 8007332:	d106      	bne.n	8007342 <RCCEx_PLLSAI1_Config+0x1d2>
 8007334:	4b05      	ldr	r3, [pc, #20]	; (800734c <RCCEx_PLLSAI1_Config+0x1dc>)
 8007336:	691a      	ldr	r2, [r3, #16]
 8007338:	687b      	ldr	r3, [r7, #4]
 800733a:	699b      	ldr	r3, [r3, #24]
 800733c:	4903      	ldr	r1, [pc, #12]	; (800734c <RCCEx_PLLSAI1_Config+0x1dc>)
 800733e:	4313      	orrs	r3, r2
 8007340:	610b      	str	r3, [r1, #16]
 8007342:	7bfb      	ldrb	r3, [r7, #15]
 8007344:	4618      	mov	r0, r3
 8007346:	3710      	adds	r7, #16
 8007348:	46bd      	mov	sp, r7
 800734a:	bd80      	pop	{r7, pc}
 800734c:	40021000 	.word	0x40021000

08007350 <RCCEx_PLLSAI2_Config>:
 8007350:	b580      	push	{r7, lr}
 8007352:	b084      	sub	sp, #16
 8007354:	af00      	add	r7, sp, #0
 8007356:	6078      	str	r0, [r7, #4]
 8007358:	6039      	str	r1, [r7, #0]
 800735a:	2300      	movs	r3, #0
 800735c:	73fb      	strb	r3, [r7, #15]
 800735e:	4b68      	ldr	r3, [pc, #416]	; (8007500 <RCCEx_PLLSAI2_Config+0x1b0>)
 8007360:	68db      	ldr	r3, [r3, #12]
 8007362:	f003 0303 	and.w	r3, r3, #3
 8007366:	2b00      	cmp	r3, #0
 8007368:	d018      	beq.n	800739c <RCCEx_PLLSAI2_Config+0x4c>
 800736a:	4b65      	ldr	r3, [pc, #404]	; (8007500 <RCCEx_PLLSAI2_Config+0x1b0>)
 800736c:	68db      	ldr	r3, [r3, #12]
 800736e:	f003 0203 	and.w	r2, r3, #3
 8007372:	687b      	ldr	r3, [r7, #4]
 8007374:	681b      	ldr	r3, [r3, #0]
 8007376:	429a      	cmp	r2, r3
 8007378:	d10d      	bne.n	8007396 <RCCEx_PLLSAI2_Config+0x46>
 800737a:	687b      	ldr	r3, [r7, #4]
 800737c:	681b      	ldr	r3, [r3, #0]
 800737e:	2b00      	cmp	r3, #0
 8007380:	d009      	beq.n	8007396 <RCCEx_PLLSAI2_Config+0x46>
 8007382:	4b5f      	ldr	r3, [pc, #380]	; (8007500 <RCCEx_PLLSAI2_Config+0x1b0>)
 8007384:	68db      	ldr	r3, [r3, #12]
 8007386:	091b      	lsrs	r3, r3, #4
 8007388:	f003 0307 	and.w	r3, r3, #7
 800738c:	1c5a      	adds	r2, r3, #1
 800738e:	687b      	ldr	r3, [r7, #4]
 8007390:	685b      	ldr	r3, [r3, #4]
 8007392:	429a      	cmp	r2, r3
 8007394:	d044      	beq.n	8007420 <RCCEx_PLLSAI2_Config+0xd0>
 8007396:	2301      	movs	r3, #1
 8007398:	73fb      	strb	r3, [r7, #15]
 800739a:	e041      	b.n	8007420 <RCCEx_PLLSAI2_Config+0xd0>
 800739c:	687b      	ldr	r3, [r7, #4]
 800739e:	681b      	ldr	r3, [r3, #0]
 80073a0:	2b02      	cmp	r3, #2
 80073a2:	d00c      	beq.n	80073be <RCCEx_PLLSAI2_Config+0x6e>
 80073a4:	2b03      	cmp	r3, #3
 80073a6:	d013      	beq.n	80073d0 <RCCEx_PLLSAI2_Config+0x80>
 80073a8:	2b01      	cmp	r3, #1
 80073aa:	d120      	bne.n	80073ee <RCCEx_PLLSAI2_Config+0x9e>
 80073ac:	4b54      	ldr	r3, [pc, #336]	; (8007500 <RCCEx_PLLSAI2_Config+0x1b0>)
 80073ae:	681b      	ldr	r3, [r3, #0]
 80073b0:	f003 0302 	and.w	r3, r3, #2
 80073b4:	2b00      	cmp	r3, #0
 80073b6:	d11d      	bne.n	80073f4 <RCCEx_PLLSAI2_Config+0xa4>
 80073b8:	2301      	movs	r3, #1
 80073ba:	73fb      	strb	r3, [r7, #15]
 80073bc:	e01a      	b.n	80073f4 <RCCEx_PLLSAI2_Config+0xa4>
 80073be:	4b50      	ldr	r3, [pc, #320]	; (8007500 <RCCEx_PLLSAI2_Config+0x1b0>)
 80073c0:	681b      	ldr	r3, [r3, #0]
 80073c2:	f403 6380 	and.w	r3, r3, #1024	; 0x400
 80073c6:	2b00      	cmp	r3, #0
 80073c8:	d116      	bne.n	80073f8 <RCCEx_PLLSAI2_Config+0xa8>
 80073ca:	2301      	movs	r3, #1
 80073cc:	73fb      	strb	r3, [r7, #15]
 80073ce:	e013      	b.n	80073f8 <RCCEx_PLLSAI2_Config+0xa8>
 80073d0:	4b4b      	ldr	r3, [pc, #300]	; (8007500 <RCCEx_PLLSAI2_Config+0x1b0>)
 80073d2:	681b      	ldr	r3, [r3, #0]
 80073d4:	f403 3300 	and.w	r3, r3, #131072	; 0x20000
 80073d8:	2b00      	cmp	r3, #0
 80073da:	d10f      	bne.n	80073fc <RCCEx_PLLSAI2_Config+0xac>
 80073dc:	4b48      	ldr	r3, [pc, #288]	; (8007500 <RCCEx_PLLSAI2_Config+0x1b0>)
 80073de:	681b      	ldr	r3, [r3, #0]
 80073e0:	f403 2380 	and.w	r3, r3, #262144	; 0x40000
 80073e4:	2b00      	cmp	r3, #0
 80073e6:	d109      	bne.n	80073fc <RCCEx_PLLSAI2_Config+0xac>
 80073e8:	2301      	movs	r3, #1
 80073ea:	73fb      	strb	r3, [r7, #15]
 80073ec:	e006      	b.n	80073fc <RCCEx_PLLSAI2_Config+0xac>
 80073ee:	2301      	movs	r3, #1
 80073f0:	73fb      	strb	r3, [r7, #15]
 80073f2:	e004      	b.n	80073fe <RCCEx_PLLSAI2_Config+0xae>
 80073f4:	bf00      	nop
 80073f6:	e002      	b.n	80073fe <RCCEx_PLLSAI2_Config+0xae>
 80073f8:	bf00      	nop
 80073fa:	e000      	b.n	80073fe <RCCEx_PLLSAI2_Config+0xae>
 80073fc:	bf00      	nop
 80073fe:	7bfb      	ldrb	r3, [r7, #15]
 8007400:	2b00      	cmp	r3, #0
 8007402:	d10d      	bne.n	8007420 <RCCEx_PLLSAI2_Config+0xd0>
 8007404:	4b3e      	ldr	r3, [pc, #248]	; (8007500 <RCCEx_PLLSAI2_Config+0x1b0>)
 8007406:	68db      	ldr	r3, [r3, #12]
 8007408:	f023 0273 	bic.w	r2, r3, #115	; 0x73
 800740c:	687b      	ldr	r3, [r7, #4]
 800740e:	6819      	ldr	r1, [r3, #0]
 8007410:	687b      	ldr	r3, [r7, #4]
 8007412:	685b      	ldr	r3, [r3, #4]
 8007414:	3b01      	subs	r3, #1
 8007416:	011b      	lsls	r3, r3, #4
 8007418:	430b      	orrs	r3, r1
 800741a:	4939      	ldr	r1, [pc, #228]	; (8007500 <RCCEx_PLLSAI2_Config+0x1b0>)
 800741c:	4313      	orrs	r3, r2
 800741e:	60cb      	str	r3, [r1, #12]
 8007420:	7bfb      	ldrb	r3, [r7, #15]
 8007422:	2b00      	cmp	r3, #0
 8007424:	d167      	bne.n	80074f6 <RCCEx_PLLSAI2_Config+0x1a6>
 8007426:	4b36      	ldr	r3, [pc, #216]	; (8007500 <RCCEx_PLLSAI2_Config+0x1b0>)
 8007428:	681b      	ldr	r3, [r3, #0]
 800742a:	4a35      	ldr	r2, [pc, #212]	; (8007500 <RCCEx_PLLSAI2_Config+0x1b0>)
 800742c:	f023 5380 	bic.w	r3, r3, #268435456	; 0x10000000
 8007430:	6013      	str	r3, [r2, #0]
 8007432:	f7fa f9ad 	bl	8001790 <HAL_GetTick>
 8007436:	60b8      	str	r0, [r7, #8]
 8007438:	e009      	b.n	800744e <RCCEx_PLLSAI2_Config+0xfe>
 800743a:	f7fa f9a9 	bl	8001790 <HAL_GetTick>
 800743e:	4602      	mov	r2, r0
 8007440:	68bb      	ldr	r3, [r7, #8]
 8007442:	1ad3      	subs	r3, r2, r3
 8007444:	2b02      	cmp	r3, #2
 8007446:	d902      	bls.n	800744e <RCCEx_PLLSAI2_Config+0xfe>
 8007448:	2303      	movs	r3, #3
 800744a:	73fb      	strb	r3, [r7, #15]
 800744c:	e005      	b.n	800745a <RCCEx_PLLSAI2_Config+0x10a>
 800744e:	4b2c      	ldr	r3, [pc, #176]	; (8007500 <RCCEx_PLLSAI2_Config+0x1b0>)
 8007450:	681b      	ldr	r3, [r3, #0]
 8007452:	f003 5300 	and.w	r3, r3, #536870912	; 0x20000000
 8007456:	2b00      	cmp	r3, #0
 8007458:	d1ef      	bne.n	800743a <RCCEx_PLLSAI2_Config+0xea>
 800745a:	7bfb      	ldrb	r3, [r7, #15]
 800745c:	2b00      	cmp	r3, #0
 800745e:	d14a      	bne.n	80074f6 <RCCEx_PLLSAI2_Config+0x1a6>
 8007460:	683b      	ldr	r3, [r7, #0]
 8007462:	2b00      	cmp	r3, #0
 8007464:	d111      	bne.n	800748a <RCCEx_PLLSAI2_Config+0x13a>
 8007466:	4b26      	ldr	r3, [pc, #152]	; (8007500 <RCCEx_PLLSAI2_Config+0x1b0>)
 8007468:	695b      	ldr	r3, [r3, #20]
 800746a:	f423 331f 	bic.w	r3, r3, #162816	; 0x27c00
 800746e:	f423 7340 	bic.w	r3, r3, #768	; 0x300
 8007472:	687a      	ldr	r2, [r7, #4]
 8007474:	6892      	ldr	r2, [r2, #8]
 8007476:	0211      	lsls	r1, r2, #8
 8007478:	687a      	ldr	r2, [r7, #4]
 800747a:	68d2      	ldr	r2, [r2, #12]
 800747c:	0912      	lsrs	r2, r2, #4
 800747e:	0452      	lsls	r2, r2, #17
 8007480:	430a      	orrs	r2, r1
 8007482:	491f      	ldr	r1, [pc, #124]	; (8007500 <RCCEx_PLLSAI2_Config+0x1b0>)
 8007484:	4313      	orrs	r3, r2
 8007486:	614b      	str	r3, [r1, #20]
 8007488:	e011      	b.n	80074ae <RCCEx_PLLSAI2_Config+0x15e>
 800748a:	4b1d      	ldr	r3, [pc, #116]	; (8007500 <RCCEx_PLLSAI2_Config+0x1b0>)
 800748c:	695b      	ldr	r3, [r3, #20]
 800748e:	f023 63c0 	bic.w	r3, r3, #100663296	; 0x6000000
 8007492:	f423 43fe 	bic.w	r3, r3, #32512	; 0x7f00
 8007496:	687a      	ldr	r2, [r7, #4]
 8007498:	6892      	ldr	r2, [r2, #8]
 800749a:	0211      	lsls	r1, r2, #8
 800749c:	687a      	ldr	r2, [r7, #4]
 800749e:	6912      	ldr	r2, [r2, #16]
 80074a0:	0852      	lsrs	r2, r2, #1
 80074a2:	3a01      	subs	r2, #1
 80074a4:	0652      	lsls	r2, r2, #25
 80074a6:	430a      	orrs	r2, r1
 80074a8:	4915      	ldr	r1, [pc, #84]	; (8007500 <RCCEx_PLLSAI2_Config+0x1b0>)
 80074aa:	4313      	orrs	r3, r2
 80074ac:	614b      	str	r3, [r1, #20]
 80074ae:	4b14      	ldr	r3, [pc, #80]	; (8007500 <RCCEx_PLLSAI2_Config+0x1b0>)
 80074b0:	681b      	ldr	r3, [r3, #0]
 80074b2:	4a13      	ldr	r2, [pc, #76]	; (8007500 <RCCEx_PLLSAI2_Config+0x1b0>)
 80074b4:	f043 5380 	orr.w	r3, r3, #268435456	; 0x10000000
 80074b8:	6013      	str	r3, [r2, #0]
 80074ba:	f7fa f969 	bl	8001790 <HAL_GetTick>
 80074be:	60b8      	str	r0, [r7, #8]
 80074c0:	e009      	b.n	80074d6 <RCCEx_PLLSAI2_Config+0x186>
 80074c2:	f7fa f965 	bl	8001790 <HAL_GetTick>
 80074c6:	4602      	mov	r2, r0
 80074c8:	68bb      	ldr	r3, [r7, #8]
 80074ca:	1ad3      	subs	r3, r2, r3
 80074cc:	2b02      	cmp	r3, #2
 80074ce:	d902      	bls.n	80074d6 <RCCEx_PLLSAI2_Config+0x186>
 80074d0:	2303      	movs	r3, #3
 80074d2:	73fb      	strb	r3, [r7, #15]
 80074d4:	e005      	b.n	80074e2 <RCCEx_PLLSAI2_Config+0x192>
 80074d6:	4b0a      	ldr	r3, [pc, #40]	; (8007500 <RCCEx_PLLSAI2_Config+0x1b0>)
 80074d8:	681b      	ldr	r3, [r3, #0]
 80074da:	f003 5300 	and.w	r3, r3, #536870912	; 0x20000000
 80074de:	2b00      	cmp	r3, #0
 80074e0:	d0ef      	beq.n	80074c2 <RCCEx_PLLSAI2_Config+0x172>
 80074e2:	7bfb      	ldrb	r3, [r7, #15]
 80074e4:	2b00      	cmp	r3, #0
 80074e6:	d106      	bne.n	80074f6 <RCCEx_PLLSAI2_Config+0x1a6>
 80074e8:	4b05      	ldr	r3, [pc, #20]	; (8007500 <RCCEx_PLLSAI2_Config+0x1b0>)
 80074ea:	695a      	ldr	r2, [r3, #20]
 80074ec:	687b      	ldr	r3, [r7, #4]
 80074ee:	695b      	ldr	r3, [r3, #20]
 80074f0:	4903      	ldr	r1, [pc, #12]	; (8007500 <RCCEx_PLLSAI2_Config+0x1b0>)
 80074f2:	4313      	orrs	r3, r2
 80074f4:	614b      	str	r3, [r1, #20]
 80074f6:	7bfb      	ldrb	r3, [r7, #15]
 80074f8:	4618      	mov	r0, r3
 80074fa:	3710      	adds	r7, #16
 80074fc:	46bd      	mov	sp, r7
 80074fe:	bd80      	pop	{r7, pc}
 8007500:	40021000 	.word	0x40021000

08007504 <RCCEx_GetSAIxPeriphCLKFreq>:
 8007504:	b480      	push	{r7}
 8007506:	b089      	sub	sp, #36	; 0x24
 8007508:	af00      	add	r7, sp, #0
 800750a:	6078      	str	r0, [r7, #4]
 800750c:	6039      	str	r1, [r7, #0]
 800750e:	2300      	movs	r3, #0
 8007510:	61fb      	str	r3, [r7, #28]
 8007512:	2300      	movs	r3, #0
 8007514:	61bb      	str	r3, [r7, #24]
 8007516:	2300      	movs	r3, #0
 8007518:	617b      	str	r3, [r7, #20]
 800751a:	687b      	ldr	r3, [r7, #4]
 800751c:	f5b3 6f00 	cmp.w	r3, #2048	; 0x800
 8007520:	d10c      	bne.n	800753c <RCCEx_GetSAIxPeriphCLKFreq+0x38>
 8007522:	4b62      	ldr	r3, [pc, #392]	; (80076ac <RCCEx_GetSAIxPeriphCLKFreq+0x1a8>)
 8007524:	f8d3 3088 	ldr.w	r3, [r3, #136]	; 0x88
 8007528:	f403 0340 	and.w	r3, r3, #12582912	; 0xc00000
 800752c:	61bb      	str	r3, [r7, #24]
 800752e:	69bb      	ldr	r3, [r7, #24]
 8007530:	f5b3 0f40 	cmp.w	r3, #12582912	; 0xc00000
 8007534:	d112      	bne.n	800755c <RCCEx_GetSAIxPeriphCLKFreq+0x58>
 8007536:	4b5e      	ldr	r3, [pc, #376]	; (80076b0 <RCCEx_GetSAIxPeriphCLKFreq+0x1ac>)
 8007538:	61fb      	str	r3, [r7, #28]
 800753a:	e00f      	b.n	800755c <RCCEx_GetSAIxPeriphCLKFreq+0x58>
 800753c:	687b      	ldr	r3, [r7, #4]
 800753e:	f5b3 5f80 	cmp.w	r3, #4096	; 0x1000
 8007542:	d10b      	bne.n	800755c <RCCEx_GetSAIxPeriphCLKFreq+0x58>
 8007544:	4b59      	ldr	r3, [pc, #356]	; (80076ac <RCCEx_GetSAIxPeriphCLKFreq+0x1a8>)
 8007546:	f8d3 3088 	ldr.w	r3, [r3, #136]	; 0x88
 800754a:	f003 7340 	and.w	r3, r3, #50331648	; 0x3000000
 800754e:	61bb      	str	r3, [r7, #24]
 8007550:	69bb      	ldr	r3, [r7, #24]
 8007552:	f1b3 7f40 	cmp.w	r3, #50331648	; 0x3000000
 8007556:	d101      	bne.n	800755c <RCCEx_GetSAIxPeriphCLKFreq+0x58>
 8007558:	4b55      	ldr	r3, [pc, #340]	; (80076b0 <RCCEx_GetSAIxPeriphCLKFreq+0x1ac>)
 800755a:	61fb      	str	r3, [r7, #28]
 800755c:	69fb      	ldr	r3, [r7, #28]
 800755e:	2b00      	cmp	r3, #0
 8007560:	f040 809c 	bne.w	800769c <RCCEx_GetSAIxPeriphCLKFreq+0x198>
 8007564:	683b      	ldr	r3, [r7, #0]
 8007566:	613b      	str	r3, [r7, #16]
 8007568:	69bb      	ldr	r3, [r7, #24]
 800756a:	f5b3 0f00 	cmp.w	r3, #8388608	; 0x800000
 800756e:	d003      	beq.n	8007578 <RCCEx_GetSAIxPeriphCLKFreq+0x74>
 8007570:	69bb      	ldr	r3, [r7, #24]
 8007572:	f1b3 7f00 	cmp.w	r3, #33554432	; 0x2000000
 8007576:	d12d      	bne.n	80075d4 <RCCEx_GetSAIxPeriphCLKFreq+0xd0>
 8007578:	4b4c      	ldr	r3, [pc, #304]	; (80076ac <RCCEx_GetSAIxPeriphCLKFreq+0x1a8>)
 800757a:	68db      	ldr	r3, [r3, #12]
 800757c:	f403 3380 	and.w	r3, r3, #65536	; 0x10000
 8007580:	2b00      	cmp	r3, #0
 8007582:	f000 808b 	beq.w	800769c <RCCEx_GetSAIxPeriphCLKFreq+0x198>
 8007586:	4b49      	ldr	r3, [pc, #292]	; (80076ac <RCCEx_GetSAIxPeriphCLKFreq+0x1a8>)
 8007588:	68db      	ldr	r3, [r3, #12]
 800758a:	091b      	lsrs	r3, r3, #4
 800758c:	f003 0307 	and.w	r3, r3, #7
 8007590:	3301      	adds	r3, #1
 8007592:	693a      	ldr	r2, [r7, #16]
 8007594:	fbb2 f3f3 	udiv	r3, r2, r3
 8007598:	613b      	str	r3, [r7, #16]
 800759a:	4b44      	ldr	r3, [pc, #272]	; (80076ac <RCCEx_GetSAIxPeriphCLKFreq+0x1a8>)
 800759c:	68db      	ldr	r3, [r3, #12]
 800759e:	0a1b      	lsrs	r3, r3, #8
 80075a0:	f003 037f 	and.w	r3, r3, #127	; 0x7f
 80075a4:	60fb      	str	r3, [r7, #12]
 80075a6:	697b      	ldr	r3, [r7, #20]
 80075a8:	2b00      	cmp	r3, #0
 80075aa:	d10a      	bne.n	80075c2 <RCCEx_GetSAIxPeriphCLKFreq+0xbe>
 80075ac:	4b3f      	ldr	r3, [pc, #252]	; (80076ac <RCCEx_GetSAIxPeriphCLKFreq+0x1a8>)
 80075ae:	68db      	ldr	r3, [r3, #12]
 80075b0:	f403 3300 	and.w	r3, r3, #131072	; 0x20000
 80075b4:	2b00      	cmp	r3, #0
 80075b6:	d002      	beq.n	80075be <RCCEx_GetSAIxPeriphCLKFreq+0xba>
 80075b8:	2311      	movs	r3, #17
 80075ba:	617b      	str	r3, [r7, #20]
 80075bc:	e001      	b.n	80075c2 <RCCEx_GetSAIxPeriphCLKFreq+0xbe>
 80075be:	2307      	movs	r3, #7
 80075c0:	617b      	str	r3, [r7, #20]
 80075c2:	693b      	ldr	r3, [r7, #16]
 80075c4:	68fa      	ldr	r2, [r7, #12]
 80075c6:	fb02 f203 	mul.w	r2, r2, r3
 80075ca:	697b      	ldr	r3, [r7, #20]
 80075cc:	fbb2 f3f3 	udiv	r3, r2, r3
 80075d0:	61fb      	str	r3, [r7, #28]
 80075d2:	e063      	b.n	800769c <RCCEx_GetSAIxPeriphCLKFreq+0x198>
 80075d4:	69bb      	ldr	r3, [r7, #24]
 80075d6:	2b00      	cmp	r3, #0
 80075d8:	d12c      	bne.n	8007634 <RCCEx_GetSAIxPeriphCLKFreq+0x130>
 80075da:	4b34      	ldr	r3, [pc, #208]	; (80076ac <RCCEx_GetSAIxPeriphCLKFreq+0x1a8>)
 80075dc:	691b      	ldr	r3, [r3, #16]
 80075de:	f403 3380 	and.w	r3, r3, #65536	; 0x10000
 80075e2:	2b00      	cmp	r3, #0
 80075e4:	d05a      	beq.n	800769c <RCCEx_GetSAIxPeriphCLKFreq+0x198>
 80075e6:	4b31      	ldr	r3, [pc, #196]	; (80076ac <RCCEx_GetSAIxPeriphCLKFreq+0x1a8>)
 80075e8:	68db      	ldr	r3, [r3, #12]
 80075ea:	091b      	lsrs	r3, r3, #4
 80075ec:	f003 0307 	and.w	r3, r3, #7
 80075f0:	3301      	adds	r3, #1
 80075f2:	693a      	ldr	r2, [r7, #16]
 80075f4:	fbb2 f3f3 	udiv	r3, r2, r3
 80075f8:	613b      	str	r3, [r7, #16]
 80075fa:	4b2c      	ldr	r3, [pc, #176]	; (80076ac <RCCEx_GetSAIxPeriphCLKFreq+0x1a8>)
 80075fc:	691b      	ldr	r3, [r3, #16]
 80075fe:	0a1b      	lsrs	r3, r3, #8
 8007600:	f003 037f 	and.w	r3, r3, #127	; 0x7f
 8007604:	60fb      	str	r3, [r7, #12]
 8007606:	697b      	ldr	r3, [r7, #20]
 8007608:	2b00      	cmp	r3, #0
 800760a:	d10a      	bne.n	8007622 <RCCEx_GetSAIxPeriphCLKFreq+0x11e>
 800760c:	4b27      	ldr	r3, [pc, #156]	; (80076ac <RCCEx_GetSAIxPeriphCLKFreq+0x1a8>)
 800760e:	691b      	ldr	r3, [r3, #16]
 8007610:	f403 3300 	and.w	r3, r3, #131072	; 0x20000
 8007614:	2b00      	cmp	r3, #0
 8007616:	d002      	beq.n	800761e <RCCEx_GetSAIxPeriphCLKFreq+0x11a>
 8007618:	2311      	movs	r3, #17
 800761a:	617b      	str	r3, [r7, #20]
 800761c:	e001      	b.n	8007622 <RCCEx_GetSAIxPeriphCLKFreq+0x11e>
 800761e:	2307      	movs	r3, #7
 8007620:	617b      	str	r3, [r7, #20]
 8007622:	693b      	ldr	r3, [r7, #16]
 8007624:	68fa      	ldr	r2, [r7, #12]
 8007626:	fb02 f203 	mul.w	r2, r2, r3
 800762a:	697b      	ldr	r3, [r7, #20]
 800762c:	fbb2 f3f3 	udiv	r3, r2, r3
 8007630:	61fb      	str	r3, [r7, #28]
 8007632:	e033      	b.n	800769c <RCCEx_GetSAIxPeriphCLKFreq+0x198>
 8007634:	69bb      	ldr	r3, [r7, #24]
 8007636:	f5b3 0f80 	cmp.w	r3, #4194304	; 0x400000
 800763a:	d003      	beq.n	8007644 <RCCEx_GetSAIxPeriphCLKFreq+0x140>
 800763c:	69bb      	ldr	r3, [r7, #24]
 800763e:	f1b3 7f80 	cmp.w	r3, #16777216	; 0x1000000
 8007642:	d12b      	bne.n	800769c <RCCEx_GetSAIxPeriphCLKFreq+0x198>
 8007644:	4b19      	ldr	r3, [pc, #100]	; (80076ac <RCCEx_GetSAIxPeriphCLKFreq+0x1a8>)
 8007646:	695b      	ldr	r3, [r3, #20]
 8007648:	f403 3380 	and.w	r3, r3, #65536	; 0x10000
 800764c:	2b00      	cmp	r3, #0
 800764e:	d025      	beq.n	800769c <RCCEx_GetSAIxPeriphCLKFreq+0x198>
 8007650:	4b16      	ldr	r3, [pc, #88]	; (80076ac <RCCEx_GetSAIxPeriphCLKFreq+0x1a8>)
 8007652:	68db      	ldr	r3, [r3, #12]
 8007654:	091b      	lsrs	r3, r3, #4
 8007656:	f003 0307 	and.w	r3, r3, #7
 800765a:	3301      	adds	r3, #1
 800765c:	693a      	ldr	r2, [r7, #16]
 800765e:	fbb2 f3f3 	udiv	r3, r2, r3
 8007662:	613b      	str	r3, [r7, #16]
 8007664:	4b11      	ldr	r3, [pc, #68]	; (80076ac <RCCEx_GetSAIxPeriphCLKFreq+0x1a8>)
 8007666:	695b      	ldr	r3, [r3, #20]
 8007668:	0a1b      	lsrs	r3, r3, #8
 800766a:	f003 037f 	and.w	r3, r3, #127	; 0x7f
 800766e:	60fb      	str	r3, [r7, #12]
 8007670:	697b      	ldr	r3, [r7, #20]
 8007672:	2b00      	cmp	r3, #0
 8007674:	d10a      	bne.n	800768c <RCCEx_GetSAIxPeriphCLKFreq+0x188>
 8007676:	4b0d      	ldr	r3, [pc, #52]	; (80076ac <RCCEx_GetSAIxPeriphCLKFreq+0x1a8>)
 8007678:	695b      	ldr	r3, [r3, #20]
 800767a:	f403 3300 	and.w	r3, r3, #131072	; 0x20000
 800767e:	2b00      	cmp	r3, #0
 8007680:	d002      	beq.n	8007688 <RCCEx_GetSAIxPeriphCLKFreq+0x184>
 8007682:	2311      	movs	r3, #17
 8007684:	617b      	str	r3, [r7, #20]
 8007686:	e001      	b.n	800768c <RCCEx_GetSAIxPeriphCLKFreq+0x188>
 8007688:	2307      	movs	r3, #7
 800768a:	617b      	str	r3, [r7, #20]
 800768c:	693b      	ldr	r3, [r7, #16]
 800768e:	68fa      	ldr	r2, [r7, #12]
 8007690:	fb02 f203 	mul.w	r2, r2, r3
 8007694:	697b      	ldr	r3, [r7, #20]
 8007696:	fbb2 f3f3 	udiv	r3, r2, r3
 800769a:	61fb      	str	r3, [r7, #28]
 800769c:	69fb      	ldr	r3, [r7, #28]
 800769e:	4618      	mov	r0, r3
 80076a0:	3724      	adds	r7, #36	; 0x24
 80076a2:	46bd      	mov	sp, r7
 80076a4:	f85d 7b04 	ldr.w	r7, [sp], #4
 80076a8:	4770      	bx	lr
 80076aa:	bf00      	nop
 80076ac:	40021000 	.word	0x40021000
 80076b0:	001fff68 	.word	0x001fff68

080076b4 <HAL_SAI_Init>:
 80076b4:	b580      	push	{r7, lr}
 80076b6:	b088      	sub	sp, #32
 80076b8:	af00      	add	r7, sp, #0
 80076ba:	6078      	str	r0, [r7, #4]
 80076bc:	687b      	ldr	r3, [r7, #4]
 80076be:	2b00      	cmp	r3, #0
 80076c0:	d101      	bne.n	80076c6 <HAL_SAI_Init+0x12>
 80076c2:	2301      	movs	r3, #1
 80076c4:	e14a      	b.n	800795c <HAL_SAI_Init+0x2a8>
 80076c6:	687b      	ldr	r3, [r7, #4]
 80076c8:	f893 307d 	ldrb.w	r3, [r3, #125]	; 0x7d
 80076cc:	b2db      	uxtb	r3, r3
 80076ce:	2b00      	cmp	r3, #0
 80076d0:	d106      	bne.n	80076e0 <HAL_SAI_Init+0x2c>
 80076d2:	687b      	ldr	r3, [r7, #4]
 80076d4:	2200      	movs	r2, #0
 80076d6:	f883 207c 	strb.w	r2, [r3, #124]	; 0x7c
 80076da:	6878      	ldr	r0, [r7, #4]
 80076dc:	f7f9 fea6 	bl	800142c <HAL_SAI_MspInit>
 80076e0:	6878      	ldr	r0, [r7, #4]
 80076e2:	f000 f94d 	bl	8007980 <SAI_Disable>
 80076e6:	4603      	mov	r3, r0
 80076e8:	2b00      	cmp	r3, #0
 80076ea:	d001      	beq.n	80076f0 <HAL_SAI_Init+0x3c>
 80076ec:	2301      	movs	r3, #1
 80076ee:	e135      	b.n	800795c <HAL_SAI_Init+0x2a8>
 80076f0:	687b      	ldr	r3, [r7, #4]
 80076f2:	2202      	movs	r2, #2
 80076f4:	f883 207d 	strb.w	r2, [r3, #125]	; 0x7d
 80076f8:	687b      	ldr	r3, [r7, #4]
 80076fa:	68db      	ldr	r3, [r3, #12]
 80076fc:	2b01      	cmp	r3, #1
 80076fe:	d007      	beq.n	8007710 <HAL_SAI_Init+0x5c>
 8007700:	2b01      	cmp	r3, #1
 8007702:	d302      	bcc.n	800770a <HAL_SAI_Init+0x56>
 8007704:	2b02      	cmp	r3, #2
 8007706:	d006      	beq.n	8007716 <HAL_SAI_Init+0x62>
 8007708:	e008      	b.n	800771c <HAL_SAI_Init+0x68>
 800770a:	2300      	movs	r3, #0
 800770c:	61fb      	str	r3, [r7, #28]
 800770e:	e008      	b.n	8007722 <HAL_SAI_Init+0x6e>
 8007710:	2310      	movs	r3, #16
 8007712:	61fb      	str	r3, [r7, #28]
 8007714:	e005      	b.n	8007722 <HAL_SAI_Init+0x6e>
 8007716:	2320      	movs	r3, #32
 8007718:	61fb      	str	r3, [r7, #28]
 800771a:	e002      	b.n	8007722 <HAL_SAI_Init+0x6e>
 800771c:	2300      	movs	r3, #0
 800771e:	61fb      	str	r3, [r7, #28]
 8007720:	bf00      	nop
 8007722:	687b      	ldr	r3, [r7, #4]
 8007724:	689b      	ldr	r3, [r3, #8]
 8007726:	2b03      	cmp	r3, #3
 8007728:	d81d      	bhi.n	8007766 <HAL_SAI_Init+0xb2>
 800772a:	a201      	add	r2, pc, #4	; (adr r2, 8007730 <HAL_SAI_Init+0x7c>)
 800772c:	f852 f023 	ldr.w	pc, [r2, r3, lsl #2]
 8007730:	08007741 	.word	0x08007741
 8007734:	08007747 	.word	0x08007747
 8007738:	0800774f 	.word	0x0800774f
 800773c:	08007757 	.word	0x08007757
 8007740:	2300      	movs	r3, #0
 8007742:	617b      	str	r3, [r7, #20]
 8007744:	e012      	b.n	800776c <HAL_SAI_Init+0xb8>
 8007746:	f44f 6380 	mov.w	r3, #1024	; 0x400
 800774a:	617b      	str	r3, [r7, #20]
 800774c:	e00e      	b.n	800776c <HAL_SAI_Init+0xb8>
 800774e:	f44f 6300 	mov.w	r3, #2048	; 0x800
 8007752:	617b      	str	r3, [r7, #20]
 8007754:	e00a      	b.n	800776c <HAL_SAI_Init+0xb8>
 8007756:	f44f 6300 	mov.w	r3, #2048	; 0x800
 800775a:	617b      	str	r3, [r7, #20]
 800775c:	69fb      	ldr	r3, [r7, #28]
 800775e:	f043 0301 	orr.w	r3, r3, #1
 8007762:	61fb      	str	r3, [r7, #28]
 8007764:	e002      	b.n	800776c <HAL_SAI_Init+0xb8>
 8007766:	2300      	movs	r3, #0
 8007768:	617b      	str	r3, [r7, #20]
 800776a:	bf00      	nop
 800776c:	687b      	ldr	r3, [r7, #4]
 800776e:	681b      	ldr	r3, [r3, #0]
 8007770:	4a7c      	ldr	r2, [pc, #496]	; (8007964 <HAL_SAI_Init+0x2b0>)
 8007772:	4293      	cmp	r3, r2
 8007774:	d004      	beq.n	8007780 <HAL_SAI_Init+0xcc>
 8007776:	687b      	ldr	r3, [r7, #4]
 8007778:	681b      	ldr	r3, [r3, #0]
 800777a:	4a7b      	ldr	r2, [pc, #492]	; (8007968 <HAL_SAI_Init+0x2b4>)
 800777c:	4293      	cmp	r3, r2
 800777e:	d103      	bne.n	8007788 <HAL_SAI_Init+0xd4>
 8007780:	4a7a      	ldr	r2, [pc, #488]	; (800796c <HAL_SAI_Init+0x2b8>)
 8007782:	69fb      	ldr	r3, [r7, #28]
 8007784:	6013      	str	r3, [r2, #0]
 8007786:	e002      	b.n	800778e <HAL_SAI_Init+0xda>
 8007788:	4a79      	ldr	r2, [pc, #484]	; (8007970 <HAL_SAI_Init+0x2bc>)
 800778a:	69fb      	ldr	r3, [r7, #28]
 800778c:	6013      	str	r3, [r2, #0]
 800778e:	687b      	ldr	r3, [r7, #4]
 8007790:	69db      	ldr	r3, [r3, #28]
 8007792:	2b00      	cmp	r3, #0
 8007794:	d038      	beq.n	8007808 <HAL_SAI_Init+0x154>
 8007796:	687b      	ldr	r3, [r7, #4]
 8007798:	681b      	ldr	r3, [r3, #0]
 800779a:	4a72      	ldr	r2, [pc, #456]	; (8007964 <HAL_SAI_Init+0x2b0>)
 800779c:	4293      	cmp	r3, r2
 800779e:	d004      	beq.n	80077aa <HAL_SAI_Init+0xf6>
 80077a0:	687b      	ldr	r3, [r7, #4]
 80077a2:	681b      	ldr	r3, [r3, #0]
 80077a4:	4a70      	ldr	r2, [pc, #448]	; (8007968 <HAL_SAI_Init+0x2b4>)
 80077a6:	4293      	cmp	r3, r2
 80077a8:	d105      	bne.n	80077b6 <HAL_SAI_Init+0x102>
 80077aa:	f44f 6000 	mov.w	r0, #2048	; 0x800
 80077ae:	f7ff f857 	bl	8006860 <HAL_RCCEx_GetPeriphCLKFreq>
 80077b2:	6138      	str	r0, [r7, #16]
 80077b4:	e004      	b.n	80077c0 <HAL_SAI_Init+0x10c>
 80077b6:	f44f 5080 	mov.w	r0, #4096	; 0x1000
 80077ba:	f7ff f851 	bl	8006860 <HAL_RCCEx_GetPeriphCLKFreq>
 80077be:	6138      	str	r0, [r7, #16]
 80077c0:	693a      	ldr	r2, [r7, #16]
 80077c2:	4613      	mov	r3, r2
 80077c4:	009b      	lsls	r3, r3, #2
 80077c6:	4413      	add	r3, r2
 80077c8:	005b      	lsls	r3, r3, #1
 80077ca:	461a      	mov	r2, r3
 80077cc:	687b      	ldr	r3, [r7, #4]
 80077ce:	69db      	ldr	r3, [r3, #28]
 80077d0:	025b      	lsls	r3, r3, #9
 80077d2:	fbb2 f3f3 	udiv	r3, r2, r3
 80077d6:	60fb      	str	r3, [r7, #12]
 80077d8:	68fb      	ldr	r3, [r7, #12]
 80077da:	4a66      	ldr	r2, [pc, #408]	; (8007974 <HAL_SAI_Init+0x2c0>)
 80077dc:	fba2 2303 	umull	r2, r3, r2, r3
 80077e0:	08da      	lsrs	r2, r3, #3
 80077e2:	687b      	ldr	r3, [r7, #4]
 80077e4:	621a      	str	r2, [r3, #32]
 80077e6:	68f9      	ldr	r1, [r7, #12]
 80077e8:	4b62      	ldr	r3, [pc, #392]	; (8007974 <HAL_SAI_Init+0x2c0>)
 80077ea:	fba3 2301 	umull	r2, r3, r3, r1
 80077ee:	08da      	lsrs	r2, r3, #3
 80077f0:	4613      	mov	r3, r2
 80077f2:	009b      	lsls	r3, r3, #2
 80077f4:	4413      	add	r3, r2
 80077f6:	005b      	lsls	r3, r3, #1
 80077f8:	1aca      	subs	r2, r1, r3
 80077fa:	2a08      	cmp	r2, #8
 80077fc:	d904      	bls.n	8007808 <HAL_SAI_Init+0x154>
 80077fe:	687b      	ldr	r3, [r7, #4]
 8007800:	6a1b      	ldr	r3, [r3, #32]
 8007802:	1c5a      	adds	r2, r3, #1
 8007804:	687b      	ldr	r3, [r7, #4]
 8007806:	621a      	str	r2, [r3, #32]
 8007808:	687b      	ldr	r3, [r7, #4]
 800780a:	685b      	ldr	r3, [r3, #4]
 800780c:	2b00      	cmp	r3, #0
 800780e:	d003      	beq.n	8007818 <HAL_SAI_Init+0x164>
 8007810:	687b      	ldr	r3, [r7, #4]
 8007812:	685b      	ldr	r3, [r3, #4]
 8007814:	2b02      	cmp	r3, #2
 8007816:	d109      	bne.n	800782c <HAL_SAI_Init+0x178>
 8007818:	687b      	ldr	r3, [r7, #4]
 800781a:	6bdb      	ldr	r3, [r3, #60]	; 0x3c
 800781c:	2b01      	cmp	r3, #1
 800781e:	d101      	bne.n	8007824 <HAL_SAI_Init+0x170>
 8007820:	2300      	movs	r3, #0
 8007822:	e001      	b.n	8007828 <HAL_SAI_Init+0x174>
 8007824:	f44f 7300 	mov.w	r3, #512	; 0x200
 8007828:	61bb      	str	r3, [r7, #24]
 800782a:	e008      	b.n	800783e <HAL_SAI_Init+0x18a>
 800782c:	687b      	ldr	r3, [r7, #4]
 800782e:	6bdb      	ldr	r3, [r3, #60]	; 0x3c
 8007830:	2b01      	cmp	r3, #1
 8007832:	d102      	bne.n	800783a <HAL_SAI_Init+0x186>
 8007834:	f44f 7300 	mov.w	r3, #512	; 0x200
 8007838:	e000      	b.n	800783c <HAL_SAI_Init+0x188>
 800783a:	2300      	movs	r3, #0
 800783c:	61bb      	str	r3, [r7, #24]
 800783e:	687b      	ldr	r3, [r7, #4]
 8007840:	681b      	ldr	r3, [r3, #0]
 8007842:	6819      	ldr	r1, [r3, #0]
 8007844:	687b      	ldr	r3, [r7, #4]
 8007846:	681a      	ldr	r2, [r3, #0]
 8007848:	4b4b      	ldr	r3, [pc, #300]	; (8007978 <HAL_SAI_Init+0x2c4>)
 800784a:	400b      	ands	r3, r1
 800784c:	6013      	str	r3, [r2, #0]
 800784e:	687b      	ldr	r3, [r7, #4]
 8007850:	681b      	ldr	r3, [r3, #0]
 8007852:	6819      	ldr	r1, [r3, #0]
 8007854:	687b      	ldr	r3, [r7, #4]
 8007856:	685a      	ldr	r2, [r3, #4]
 8007858:	687b      	ldr	r3, [r7, #4]
 800785a:	6b1b      	ldr	r3, [r3, #48]	; 0x30
 800785c:	431a      	orrs	r2, r3
 800785e:	687b      	ldr	r3, [r7, #4]
 8007860:	6b5b      	ldr	r3, [r3, #52]	; 0x34
 8007862:	431a      	orrs	r2, r3
 8007864:	687b      	ldr	r3, [r7, #4]
 8007866:	6b9b      	ldr	r3, [r3, #56]	; 0x38
 8007868:	431a      	orrs	r2, r3
 800786a:	69bb      	ldr	r3, [r7, #24]
 800786c:	431a      	orrs	r2, r3
 800786e:	697b      	ldr	r3, [r7, #20]
 8007870:	431a      	orrs	r2, r3
 8007872:	687b      	ldr	r3, [r7, #4]
 8007874:	6a5b      	ldr	r3, [r3, #36]	; 0x24
 8007876:	431a      	orrs	r2, r3
 8007878:	687b      	ldr	r3, [r7, #4]
 800787a:	691b      	ldr	r3, [r3, #16]
 800787c:	431a      	orrs	r2, r3
 800787e:	687b      	ldr	r3, [r7, #4]
 8007880:	695b      	ldr	r3, [r3, #20]
 8007882:	431a      	orrs	r2, r3
 8007884:	687b      	ldr	r3, [r7, #4]
 8007886:	6a1b      	ldr	r3, [r3, #32]
 8007888:	051b      	lsls	r3, r3, #20
 800788a:	431a      	orrs	r2, r3
 800788c:	687b      	ldr	r3, [r7, #4]
 800788e:	681b      	ldr	r3, [r3, #0]
 8007890:	430a      	orrs	r2, r1
 8007892:	601a      	str	r2, [r3, #0]
 8007894:	687b      	ldr	r3, [r7, #4]
 8007896:	681b      	ldr	r3, [r3, #0]
 8007898:	685b      	ldr	r3, [r3, #4]
 800789a:	687a      	ldr	r2, [r7, #4]
 800789c:	6812      	ldr	r2, [r2, #0]
 800789e:	f423 4360 	bic.w	r3, r3, #57344	; 0xe000
 80078a2:	f023 030f 	bic.w	r3, r3, #15
 80078a6:	6053      	str	r3, [r2, #4]
 80078a8:	687b      	ldr	r3, [r7, #4]
 80078aa:	681b      	ldr	r3, [r3, #0]
 80078ac:	6859      	ldr	r1, [r3, #4]
 80078ae:	687b      	ldr	r3, [r7, #4]
 80078b0:	699a      	ldr	r2, [r3, #24]
 80078b2:	687b      	ldr	r3, [r7, #4]
 80078b4:	6a9b      	ldr	r3, [r3, #40]	; 0x28
 80078b6:	431a      	orrs	r2, r3
 80078b8:	687b      	ldr	r3, [r7, #4]
 80078ba:	6adb      	ldr	r3, [r3, #44]	; 0x2c
 80078bc:	431a      	orrs	r2, r3
 80078be:	687b      	ldr	r3, [r7, #4]
 80078c0:	681b      	ldr	r3, [r3, #0]
 80078c2:	430a      	orrs	r2, r1
 80078c4:	605a      	str	r2, [r3, #4]
 80078c6:	687b      	ldr	r3, [r7, #4]
 80078c8:	681b      	ldr	r3, [r3, #0]
 80078ca:	6899      	ldr	r1, [r3, #8]
 80078cc:	687b      	ldr	r3, [r7, #4]
 80078ce:	681a      	ldr	r2, [r3, #0]
 80078d0:	4b2a      	ldr	r3, [pc, #168]	; (800797c <HAL_SAI_Init+0x2c8>)
 80078d2:	400b      	ands	r3, r1
 80078d4:	6093      	str	r3, [r2, #8]
 80078d6:	687b      	ldr	r3, [r7, #4]
 80078d8:	681b      	ldr	r3, [r3, #0]
 80078da:	6899      	ldr	r1, [r3, #8]
 80078dc:	687b      	ldr	r3, [r7, #4]
 80078de:	6c1b      	ldr	r3, [r3, #64]	; 0x40
 80078e0:	1e5a      	subs	r2, r3, #1
 80078e2:	687b      	ldr	r3, [r7, #4]
 80078e4:	6d1b      	ldr	r3, [r3, #80]	; 0x50
 80078e6:	431a      	orrs	r2, r3
 80078e8:	687b      	ldr	r3, [r7, #4]
 80078ea:	6c9b      	ldr	r3, [r3, #72]	; 0x48
 80078ec:	431a      	orrs	r2, r3
 80078ee:	687b      	ldr	r3, [r7, #4]
 80078f0:	6cdb      	ldr	r3, [r3, #76]	; 0x4c
 80078f2:	431a      	orrs	r2, r3
 80078f4:	687b      	ldr	r3, [r7, #4]
 80078f6:	6c5b      	ldr	r3, [r3, #68]	; 0x44
 80078f8:	3b01      	subs	r3, #1
 80078fa:	021b      	lsls	r3, r3, #8
 80078fc:	431a      	orrs	r2, r3
 80078fe:	687b      	ldr	r3, [r7, #4]
 8007900:	681b      	ldr	r3, [r3, #0]
 8007902:	430a      	orrs	r2, r1
 8007904:	609a      	str	r2, [r3, #8]
 8007906:	687b      	ldr	r3, [r7, #4]
 8007908:	681b      	ldr	r3, [r3, #0]
 800790a:	68d9      	ldr	r1, [r3, #12]
 800790c:	687b      	ldr	r3, [r7, #4]
 800790e:	681a      	ldr	r2, [r3, #0]
 8007910:	f24f 0320 	movw	r3, #61472	; 0xf020
 8007914:	400b      	ands	r3, r1
 8007916:	60d3      	str	r3, [r2, #12]
 8007918:	687b      	ldr	r3, [r7, #4]
 800791a:	681b      	ldr	r3, [r3, #0]
 800791c:	68d9      	ldr	r1, [r3, #12]
 800791e:	687b      	ldr	r3, [r7, #4]
 8007920:	6d5a      	ldr	r2, [r3, #84]	; 0x54
 8007922:	687b      	ldr	r3, [r7, #4]
 8007924:	6d9b      	ldr	r3, [r3, #88]	; 0x58
 8007926:	431a      	orrs	r2, r3
 8007928:	687b      	ldr	r3, [r7, #4]
 800792a:	6e1b      	ldr	r3, [r3, #96]	; 0x60
 800792c:	041b      	lsls	r3, r3, #16
 800792e:	431a      	orrs	r2, r3
 8007930:	687b      	ldr	r3, [r7, #4]
 8007932:	6ddb      	ldr	r3, [r3, #92]	; 0x5c
 8007934:	3b01      	subs	r3, #1
 8007936:	021b      	lsls	r3, r3, #8
 8007938:	431a      	orrs	r2, r3
 800793a:	687b      	ldr	r3, [r7, #4]
 800793c:	681b      	ldr	r3, [r3, #0]
 800793e:	430a      	orrs	r2, r1
 8007940:	60da      	str	r2, [r3, #12]
 8007942:	687b      	ldr	r3, [r7, #4]
 8007944:	2200      	movs	r2, #0
 8007946:	f8c3 2080 	str.w	r2, [r3, #128]	; 0x80
 800794a:	687b      	ldr	r3, [r7, #4]
 800794c:	2201      	movs	r2, #1
 800794e:	f883 207d 	strb.w	r2, [r3, #125]	; 0x7d
 8007952:	687b      	ldr	r3, [r7, #4]
 8007954:	2200      	movs	r2, #0
 8007956:	f883 207c 	strb.w	r2, [r3, #124]	; 0x7c
 800795a:	2300      	movs	r3, #0
 800795c:	4618      	mov	r0, r3
 800795e:	3720      	adds	r7, #32
 8007960:	46bd      	mov	sp, r7
 8007962:	bd80      	pop	{r7, pc}
 8007964:	40015404 	.word	0x40015404
 8007968:	40015424 	.word	0x40015424
 800796c:	40015400 	.word	0x40015400
 8007970:	40015800 	.word	0x40015800
 8007974:	cccccccd 	.word	0xcccccccd
 8007978:	ff05c010 	.word	0xff05c010
 800797c:	fff88000 	.word	0xfff88000

08007980 <SAI_Disable>:
 8007980:	b490      	push	{r4, r7}
 8007982:	b084      	sub	sp, #16
 8007984:	af00      	add	r7, sp, #0
 8007986:	6078      	str	r0, [r7, #4]
 8007988:	4b15      	ldr	r3, [pc, #84]	; (80079e0 <SAI_Disable+0x60>)
 800798a:	681b      	ldr	r3, [r3, #0]
 800798c:	4a15      	ldr	r2, [pc, #84]	; (80079e4 <SAI_Disable+0x64>)
 800798e:	fba2 2303 	umull	r2, r3, r2, r3
 8007992:	0b1b      	lsrs	r3, r3, #12
 8007994:	009c      	lsls	r4, r3, #2
 8007996:	2300      	movs	r3, #0
 8007998:	73fb      	strb	r3, [r7, #15]
 800799a:	687b      	ldr	r3, [r7, #4]
 800799c:	681b      	ldr	r3, [r3, #0]
 800799e:	681a      	ldr	r2, [r3, #0]
 80079a0:	687b      	ldr	r3, [r7, #4]
 80079a2:	681b      	ldr	r3, [r3, #0]
 80079a4:	f422 3280 	bic.w	r2, r2, #65536	; 0x10000
 80079a8:	601a      	str	r2, [r3, #0]
 80079aa:	2c00      	cmp	r4, #0
 80079ac:	d10a      	bne.n	80079c4 <SAI_Disable+0x44>
 80079ae:	687b      	ldr	r3, [r7, #4]
 80079b0:	f8d3 3080 	ldr.w	r3, [r3, #128]	; 0x80
 80079b4:	f043 0240 	orr.w	r2, r3, #64	; 0x40
 80079b8:	687b      	ldr	r3, [r7, #4]
 80079ba:	f8c3 2080 	str.w	r2, [r3, #128]	; 0x80
 80079be:	2303      	movs	r3, #3
 80079c0:	73fb      	strb	r3, [r7, #15]
 80079c2:	e007      	b.n	80079d4 <SAI_Disable+0x54>
 80079c4:	3c01      	subs	r4, #1
 80079c6:	687b      	ldr	r3, [r7, #4]
 80079c8:	681b      	ldr	r3, [r3, #0]
 80079ca:	681b      	ldr	r3, [r3, #0]
 80079cc:	f403 3380 	and.w	r3, r3, #65536	; 0x10000
 80079d0:	2b00      	cmp	r3, #0
 80079d2:	d1ea      	bne.n	80079aa <SAI_Disable+0x2a>
 80079d4:	7bfb      	ldrb	r3, [r7, #15]
 80079d6:	4618      	mov	r0, r3
 80079d8:	3710      	adds	r7, #16
 80079da:	46bd      	mov	sp, r7
 80079dc:	bc90      	pop	{r4, r7}
 80079de:	4770      	bx	lr
 80079e0:	20000000 	.word	0x20000000
 80079e4:	95cbec1b 	.word	0x95cbec1b

080079e8 <HAL_SPI_Init>:
 80079e8:	b580      	push	{r7, lr}
 80079ea:	b084      	sub	sp, #16
 80079ec:	af00      	add	r7, sp, #0
 80079ee:	6078      	str	r0, [r7, #4]
 80079f0:	687b      	ldr	r3, [r7, #4]
 80079f2:	2b00      	cmp	r3, #0
 80079f4:	d101      	bne.n	80079fa <HAL_SPI_Init+0x12>
 80079f6:	2301      	movs	r3, #1
 80079f8:	e07c      	b.n	8007af4 <HAL_SPI_Init+0x10c>
 80079fa:	687b      	ldr	r3, [r7, #4]
 80079fc:	2200      	movs	r2, #0
 80079fe:	629a      	str	r2, [r3, #40]	; 0x28
 8007a00:	687b      	ldr	r3, [r7, #4]
 8007a02:	f893 305d 	ldrb.w	r3, [r3, #93]	; 0x5d
 8007a06:	b2db      	uxtb	r3, r3
 8007a08:	2b00      	cmp	r3, #0
 8007a0a:	d106      	bne.n	8007a1a <HAL_SPI_Init+0x32>
 8007a0c:	687b      	ldr	r3, [r7, #4]
 8007a0e:	2200      	movs	r2, #0
 8007a10:	f883 205c 	strb.w	r2, [r3, #92]	; 0x5c
 8007a14:	6878      	ldr	r0, [r7, #4]
 8007a16:	f7f9 fc5b 	bl	80012d0 <HAL_SPI_MspInit>
 8007a1a:	687b      	ldr	r3, [r7, #4]
 8007a1c:	2202      	movs	r2, #2
 8007a1e:	f883 205d 	strb.w	r2, [r3, #93]	; 0x5d
 8007a22:	687b      	ldr	r3, [r7, #4]
 8007a24:	681b      	ldr	r3, [r3, #0]
 8007a26:	681a      	ldr	r2, [r3, #0]
 8007a28:	687b      	ldr	r3, [r7, #4]
 8007a2a:	681b      	ldr	r3, [r3, #0]
 8007a2c:	f022 0240 	bic.w	r2, r2, #64	; 0x40
 8007a30:	601a      	str	r2, [r3, #0]
 8007a32:	687b      	ldr	r3, [r7, #4]
 8007a34:	68db      	ldr	r3, [r3, #12]
 8007a36:	f5b3 6fe0 	cmp.w	r3, #1792	; 0x700
 8007a3a:	d902      	bls.n	8007a42 <HAL_SPI_Init+0x5a>
 8007a3c:	2300      	movs	r3, #0
 8007a3e:	60fb      	str	r3, [r7, #12]
 8007a40:	e002      	b.n	8007a48 <HAL_SPI_Init+0x60>
 8007a42:	f44f 5380 	mov.w	r3, #4096	; 0x1000
 8007a46:	60fb      	str	r3, [r7, #12]
 8007a48:	687b      	ldr	r3, [r7, #4]
 8007a4a:	68db      	ldr	r3, [r3, #12]
 8007a4c:	f5b3 6f70 	cmp.w	r3, #3840	; 0xf00
 8007a50:	d007      	beq.n	8007a62 <HAL_SPI_Init+0x7a>
 8007a52:	687b      	ldr	r3, [r7, #4]
 8007a54:	68db      	ldr	r3, [r3, #12]
 8007a56:	f5b3 6fe0 	cmp.w	r3, #1792	; 0x700
 8007a5a:	d002      	beq.n	8007a62 <HAL_SPI_Init+0x7a>
 8007a5c:	687b      	ldr	r3, [r7, #4]
 8007a5e:	2200      	movs	r2, #0
 8007a60:	629a      	str	r2, [r3, #40]	; 0x28
 8007a62:	687b      	ldr	r3, [r7, #4]
 8007a64:	6b1b      	ldr	r3, [r3, #48]	; 0x30
 8007a66:	2b00      	cmp	r3, #0
 8007a68:	d10b      	bne.n	8007a82 <HAL_SPI_Init+0x9a>
 8007a6a:	687b      	ldr	r3, [r7, #4]
 8007a6c:	68db      	ldr	r3, [r3, #12]
 8007a6e:	f5b3 6fe0 	cmp.w	r3, #1792	; 0x700
 8007a72:	d903      	bls.n	8007a7c <HAL_SPI_Init+0x94>
 8007a74:	687b      	ldr	r3, [r7, #4]
 8007a76:	2202      	movs	r2, #2
 8007a78:	631a      	str	r2, [r3, #48]	; 0x30
 8007a7a:	e002      	b.n	8007a82 <HAL_SPI_Init+0x9a>
 8007a7c:	687b      	ldr	r3, [r7, #4]
 8007a7e:	2201      	movs	r2, #1
 8007a80:	631a      	str	r2, [r3, #48]	; 0x30
 8007a82:	687b      	ldr	r3, [r7, #4]
 8007a84:	685a      	ldr	r2, [r3, #4]
 8007a86:	687b      	ldr	r3, [r7, #4]
 8007a88:	689b      	ldr	r3, [r3, #8]
 8007a8a:	431a      	orrs	r2, r3
 8007a8c:	687b      	ldr	r3, [r7, #4]
 8007a8e:	691b      	ldr	r3, [r3, #16]
 8007a90:	431a      	orrs	r2, r3
 8007a92:	687b      	ldr	r3, [r7, #4]
 8007a94:	695b      	ldr	r3, [r3, #20]
 8007a96:	431a      	orrs	r2, r3
 8007a98:	687b      	ldr	r3, [r7, #4]
 8007a9a:	699b      	ldr	r3, [r3, #24]
 8007a9c:	f403 7300 	and.w	r3, r3, #512	; 0x200
 8007aa0:	431a      	orrs	r2, r3
 8007aa2:	687b      	ldr	r3, [r7, #4]
 8007aa4:	69db      	ldr	r3, [r3, #28]
 8007aa6:	431a      	orrs	r2, r3
 8007aa8:	687b      	ldr	r3, [r7, #4]
 8007aaa:	6a1b      	ldr	r3, [r3, #32]
 8007aac:	ea42 0103 	orr.w	r1, r2, r3
 8007ab0:	687b      	ldr	r3, [r7, #4]
 8007ab2:	6a9a      	ldr	r2, [r3, #40]	; 0x28
 8007ab4:	687b      	ldr	r3, [r7, #4]
 8007ab6:	681b      	ldr	r3, [r3, #0]
 8007ab8:	430a      	orrs	r2, r1
 8007aba:	601a      	str	r2, [r3, #0]
 8007abc:	687b      	ldr	r3, [r7, #4]
 8007abe:	699b      	ldr	r3, [r3, #24]
 8007ac0:	0c1b      	lsrs	r3, r3, #16
 8007ac2:	f003 0204 	and.w	r2, r3, #4
 8007ac6:	687b      	ldr	r3, [r7, #4]
 8007ac8:	6a5b      	ldr	r3, [r3, #36]	; 0x24
 8007aca:	431a      	orrs	r2, r3
 8007acc:	687b      	ldr	r3, [r7, #4]
 8007ace:	6b5b      	ldr	r3, [r3, #52]	; 0x34
 8007ad0:	431a      	orrs	r2, r3
 8007ad2:	687b      	ldr	r3, [r7, #4]
 8007ad4:	68db      	ldr	r3, [r3, #12]
 8007ad6:	ea42 0103 	orr.w	r1, r2, r3
 8007ada:	687b      	ldr	r3, [r7, #4]
 8007adc:	681b      	ldr	r3, [r3, #0]
 8007ade:	68fa      	ldr	r2, [r7, #12]
 8007ae0:	430a      	orrs	r2, r1
 8007ae2:	605a      	str	r2, [r3, #4]
 8007ae4:	687b      	ldr	r3, [r7, #4]
 8007ae6:	2200      	movs	r2, #0
 8007ae8:	661a      	str	r2, [r3, #96]	; 0x60
 8007aea:	687b      	ldr	r3, [r7, #4]
 8007aec:	2201      	movs	r2, #1
 8007aee:	f883 205d 	strb.w	r2, [r3, #93]	; 0x5d
 8007af2:	2300      	movs	r3, #0
 8007af4:	4618      	mov	r0, r3
 8007af6:	3710      	adds	r7, #16
 8007af8:	46bd      	mov	sp, r7
 8007afa:	bd80      	pop	{r7, pc}

08007afc <HAL_TIM_Base_Init>:
 8007afc:	b580      	push	{r7, lr}
 8007afe:	b082      	sub	sp, #8
 8007b00:	af00      	add	r7, sp, #0
 8007b02:	6078      	str	r0, [r7, #4]
 8007b04:	687b      	ldr	r3, [r7, #4]
 8007b06:	2b00      	cmp	r3, #0
 8007b08:	d101      	bne.n	8007b0e <HAL_TIM_Base_Init+0x12>
 8007b0a:	2301      	movs	r3, #1
 8007b0c:	e01d      	b.n	8007b4a <HAL_TIM_Base_Init+0x4e>
 8007b0e:	687b      	ldr	r3, [r7, #4]
 8007b10:	f893 303d 	ldrb.w	r3, [r3, #61]	; 0x3d
 8007b14:	b2db      	uxtb	r3, r3
 8007b16:	2b00      	cmp	r3, #0
 8007b18:	d106      	bne.n	8007b28 <HAL_TIM_Base_Init+0x2c>
 8007b1a:	687b      	ldr	r3, [r7, #4]
 8007b1c:	2200      	movs	r2, #0
 8007b1e:	f883 203c 	strb.w	r2, [r3, #60]	; 0x3c
 8007b22:	6878      	ldr	r0, [r7, #4]
 8007b24:	f7f9 fc18 	bl	8001358 <HAL_TIM_Base_MspInit>
 8007b28:	687b      	ldr	r3, [r7, #4]
 8007b2a:	2202      	movs	r2, #2
 8007b2c:	f883 203d 	strb.w	r2, [r3, #61]	; 0x3d
 8007b30:	687b      	ldr	r3, [r7, #4]
 8007b32:	681a      	ldr	r2, [r3, #0]
 8007b34:	687b      	ldr	r3, [r7, #4]
 8007b36:	3304      	adds	r3, #4
 8007b38:	4619      	mov	r1, r3
 8007b3a:	4610      	mov	r0, r2
 8007b3c:	f000 f834 	bl	8007ba8 <TIM_Base_SetConfig>
 8007b40:	687b      	ldr	r3, [r7, #4]
 8007b42:	2201      	movs	r2, #1
 8007b44:	f883 203d 	strb.w	r2, [r3, #61]	; 0x3d
 8007b48:	2300      	movs	r3, #0
 8007b4a:	4618      	mov	r0, r3
 8007b4c:	3708      	adds	r7, #8
 8007b4e:	46bd      	mov	sp, r7
 8007b50:	bd80      	pop	{r7, pc}
	...

08007b54 <HAL_TIM_Base_Start_IT>:
 8007b54:	b480      	push	{r7}
 8007b56:	b085      	sub	sp, #20
 8007b58:	af00      	add	r7, sp, #0
 8007b5a:	6078      	str	r0, [r7, #4]
 8007b5c:	687b      	ldr	r3, [r7, #4]
 8007b5e:	681b      	ldr	r3, [r3, #0]
 8007b60:	68da      	ldr	r2, [r3, #12]
 8007b62:	687b      	ldr	r3, [r7, #4]
 8007b64:	681b      	ldr	r3, [r3, #0]
 8007b66:	f042 0201 	orr.w	r2, r2, #1
 8007b6a:	60da      	str	r2, [r3, #12]
 8007b6c:	687b      	ldr	r3, [r7, #4]
 8007b6e:	681b      	ldr	r3, [r3, #0]
 8007b70:	689a      	ldr	r2, [r3, #8]
 8007b72:	4b0c      	ldr	r3, [pc, #48]	; (8007ba4 <HAL_TIM_Base_Start_IT+0x50>)
 8007b74:	4013      	ands	r3, r2
 8007b76:	60fb      	str	r3, [r7, #12]
 8007b78:	68fb      	ldr	r3, [r7, #12]
 8007b7a:	2b06      	cmp	r3, #6
 8007b7c:	d00b      	beq.n	8007b96 <HAL_TIM_Base_Start_IT+0x42>
 8007b7e:	68fb      	ldr	r3, [r7, #12]
 8007b80:	f5b3 3f80 	cmp.w	r3, #65536	; 0x10000
 8007b84:	d007      	beq.n	8007b96 <HAL_TIM_Base_Start_IT+0x42>
 8007b86:	687b      	ldr	r3, [r7, #4]
 8007b88:	681b      	ldr	r3, [r3, #0]
 8007b8a:	681a      	ldr	r2, [r3, #0]
 8007b8c:	687b      	ldr	r3, [r7, #4]
 8007b8e:	681b      	ldr	r3, [r3, #0]
 8007b90:	f042 0201 	orr.w	r2, r2, #1
 8007b94:	601a      	str	r2, [r3, #0]
 8007b96:	2300      	movs	r3, #0
 8007b98:	4618      	mov	r0, r3
 8007b9a:	3714      	adds	r7, #20
 8007b9c:	46bd      	mov	sp, r7
 8007b9e:	f85d 7b04 	ldr.w	r7, [sp], #4
 8007ba2:	4770      	bx	lr
 8007ba4:	00010007 	.word	0x00010007

08007ba8 <TIM_Base_SetConfig>:
 8007ba8:	b480      	push	{r7}
 8007baa:	b085      	sub	sp, #20
 8007bac:	af00      	add	r7, sp, #0
 8007bae:	6078      	str	r0, [r7, #4]
 8007bb0:	6039      	str	r1, [r7, #0]
 8007bb2:	687b      	ldr	r3, [r7, #4]
 8007bb4:	681b      	ldr	r3, [r3, #0]
 8007bb6:	60fb      	str	r3, [r7, #12]
 8007bb8:	687b      	ldr	r3, [r7, #4]
 8007bba:	4a40      	ldr	r2, [pc, #256]	; (8007cbc <TIM_Base_SetConfig+0x114>)
 8007bbc:	4293      	cmp	r3, r2
 8007bbe:	d013      	beq.n	8007be8 <TIM_Base_SetConfig+0x40>
 8007bc0:	687b      	ldr	r3, [r7, #4]
 8007bc2:	f1b3 4f80 	cmp.w	r3, #1073741824	; 0x40000000
 8007bc6:	d00f      	beq.n	8007be8 <TIM_Base_SetConfig+0x40>
 8007bc8:	687b      	ldr	r3, [r7, #4]
 8007bca:	4a3d      	ldr	r2, [pc, #244]	; (8007cc0 <TIM_Base_SetConfig+0x118>)
 8007bcc:	4293      	cmp	r3, r2
 8007bce:	d00b      	beq.n	8007be8 <TIM_Base_SetConfig+0x40>
 8007bd0:	687b      	ldr	r3, [r7, #4]
 8007bd2:	4a3c      	ldr	r2, [pc, #240]	; (8007cc4 <TIM_Base_SetConfig+0x11c>)
 8007bd4:	4293      	cmp	r3, r2
 8007bd6:	d007      	beq.n	8007be8 <TIM_Base_SetConfig+0x40>
 8007bd8:	687b      	ldr	r3, [r7, #4]
 8007bda:	4a3b      	ldr	r2, [pc, #236]	; (8007cc8 <TIM_Base_SetConfig+0x120>)
 8007bdc:	4293      	cmp	r3, r2
 8007bde:	d003      	beq.n	8007be8 <TIM_Base_SetConfig+0x40>
 8007be0:	687b      	ldr	r3, [r7, #4]
 8007be2:	4a3a      	ldr	r2, [pc, #232]	; (8007ccc <TIM_Base_SetConfig+0x124>)
 8007be4:	4293      	cmp	r3, r2
 8007be6:	d108      	bne.n	8007bfa <TIM_Base_SetConfig+0x52>
 8007be8:	68fb      	ldr	r3, [r7, #12]
 8007bea:	f023 0370 	bic.w	r3, r3, #112	; 0x70
 8007bee:	60fb      	str	r3, [r7, #12]
 8007bf0:	683b      	ldr	r3, [r7, #0]
 8007bf2:	685b      	ldr	r3, [r3, #4]
 8007bf4:	68fa      	ldr	r2, [r7, #12]
 8007bf6:	4313      	orrs	r3, r2
 8007bf8:	60fb      	str	r3, [r7, #12]
 8007bfa:	687b      	ldr	r3, [r7, #4]
 8007bfc:	4a2f      	ldr	r2, [pc, #188]	; (8007cbc <TIM_Base_SetConfig+0x114>)
 8007bfe:	4293      	cmp	r3, r2
 8007c00:	d01f      	beq.n	8007c42 <TIM_Base_SetConfig+0x9a>
 8007c02:	687b      	ldr	r3, [r7, #4]
 8007c04:	f1b3 4f80 	cmp.w	r3, #1073741824	; 0x40000000
 8007c08:	d01b      	beq.n	8007c42 <TIM_Base_SetConfig+0x9a>
 8007c0a:	687b      	ldr	r3, [r7, #4]
 8007c0c:	4a2c      	ldr	r2, [pc, #176]	; (8007cc0 <TIM_Base_SetConfig+0x118>)
 8007c0e:	4293      	cmp	r3, r2
 8007c10:	d017      	beq.n	8007c42 <TIM_Base_SetConfig+0x9a>
 8007c12:	687b      	ldr	r3, [r7, #4]
 8007c14:	4a2b      	ldr	r2, [pc, #172]	; (8007cc4 <TIM_Base_SetConfig+0x11c>)
 8007c16:	4293      	cmp	r3, r2
 8007c18:	d013      	beq.n	8007c42 <TIM_Base_SetConfig+0x9a>
 8007c1a:	687b      	ldr	r3, [r7, #4]
 8007c1c:	4a2a      	ldr	r2, [pc, #168]	; (8007cc8 <TIM_Base_SetConfig+0x120>)
 8007c1e:	4293      	cmp	r3, r2
 8007c20:	d00f      	beq.n	8007c42 <TIM_Base_SetConfig+0x9a>
 8007c22:	687b      	ldr	r3, [r7, #4]
 8007c24:	4a29      	ldr	r2, [pc, #164]	; (8007ccc <TIM_Base_SetConfig+0x124>)
 8007c26:	4293      	cmp	r3, r2
 8007c28:	d00b      	beq.n	8007c42 <TIM_Base_SetConfig+0x9a>
 8007c2a:	687b      	ldr	r3, [r7, #4]
 8007c2c:	4a28      	ldr	r2, [pc, #160]	; (8007cd0 <TIM_Base_SetConfig+0x128>)
 8007c2e:	4293      	cmp	r3, r2
 8007c30:	d007      	beq.n	8007c42 <TIM_Base_SetConfig+0x9a>
 8007c32:	687b      	ldr	r3, [r7, #4]
 8007c34:	4a27      	ldr	r2, [pc, #156]	; (8007cd4 <TIM_Base_SetConfig+0x12c>)
 8007c36:	4293      	cmp	r3, r2
 8007c38:	d003      	beq.n	8007c42 <TIM_Base_SetConfig+0x9a>
 8007c3a:	687b      	ldr	r3, [r7, #4]
 8007c3c:	4a26      	ldr	r2, [pc, #152]	; (8007cd8 <TIM_Base_SetConfig+0x130>)
 8007c3e:	4293      	cmp	r3, r2
 8007c40:	d108      	bne.n	8007c54 <TIM_Base_SetConfig+0xac>
 8007c42:	68fb      	ldr	r3, [r7, #12]
 8007c44:	f423 7340 	bic.w	r3, r3, #768	; 0x300
 8007c48:	60fb      	str	r3, [r7, #12]
 8007c4a:	683b      	ldr	r3, [r7, #0]
 8007c4c:	68db      	ldr	r3, [r3, #12]
 8007c4e:	68fa      	ldr	r2, [r7, #12]
 8007c50:	4313      	orrs	r3, r2
 8007c52:	60fb      	str	r3, [r7, #12]
 8007c54:	68fb      	ldr	r3, [r7, #12]
 8007c56:	f023 0280 	bic.w	r2, r3, #128	; 0x80
 8007c5a:	683b      	ldr	r3, [r7, #0]
 8007c5c:	695b      	ldr	r3, [r3, #20]
 8007c5e:	4313      	orrs	r3, r2
 8007c60:	60fb      	str	r3, [r7, #12]
 8007c62:	687b      	ldr	r3, [r7, #4]
 8007c64:	68fa      	ldr	r2, [r7, #12]
 8007c66:	601a      	str	r2, [r3, #0]
 8007c68:	683b      	ldr	r3, [r7, #0]
 8007c6a:	689a      	ldr	r2, [r3, #8]
 8007c6c:	687b      	ldr	r3, [r7, #4]
 8007c6e:	62da      	str	r2, [r3, #44]	; 0x2c
 8007c70:	683b      	ldr	r3, [r7, #0]
 8007c72:	681a      	ldr	r2, [r3, #0]
 8007c74:	687b      	ldr	r3, [r7, #4]
 8007c76:	629a      	str	r2, [r3, #40]	; 0x28
 8007c78:	687b      	ldr	r3, [r7, #4]
 8007c7a:	4a10      	ldr	r2, [pc, #64]	; (8007cbc <TIM_Base_SetConfig+0x114>)
 8007c7c:	4293      	cmp	r3, r2
 8007c7e:	d00f      	beq.n	8007ca0 <TIM_Base_SetConfig+0xf8>
 8007c80:	687b      	ldr	r3, [r7, #4]
 8007c82:	4a12      	ldr	r2, [pc, #72]	; (8007ccc <TIM_Base_SetConfig+0x124>)
 8007c84:	4293      	cmp	r3, r2
 8007c86:	d00b      	beq.n	8007ca0 <TIM_Base_SetConfig+0xf8>
 8007c88:	687b      	ldr	r3, [r7, #4]
 8007c8a:	4a11      	ldr	r2, [pc, #68]	; (8007cd0 <TIM_Base_SetConfig+0x128>)
 8007c8c:	4293      	cmp	r3, r2
 8007c8e:	d007      	beq.n	8007ca0 <TIM_Base_SetConfig+0xf8>
 8007c90:	687b      	ldr	r3, [r7, #4]
 8007c92:	4a10      	ldr	r2, [pc, #64]	; (8007cd4 <TIM_Base_SetConfig+0x12c>)
 8007c94:	4293      	cmp	r3, r2
 8007c96:	d003      	beq.n	8007ca0 <TIM_Base_SetConfig+0xf8>
 8007c98:	687b      	ldr	r3, [r7, #4]
 8007c9a:	4a0f      	ldr	r2, [pc, #60]	; (8007cd8 <TIM_Base_SetConfig+0x130>)
 8007c9c:	4293      	cmp	r3, r2
 8007c9e:	d103      	bne.n	8007ca8 <TIM_Base_SetConfig+0x100>
 8007ca0:	683b      	ldr	r3, [r7, #0]
 8007ca2:	691a      	ldr	r2, [r3, #16]
 8007ca4:	687b      	ldr	r3, [r7, #4]
 8007ca6:	631a      	str	r2, [r3, #48]	; 0x30
 8007ca8:	687b      	ldr	r3, [r7, #4]
 8007caa:	2201      	movs	r2, #1
 8007cac:	615a      	str	r2, [r3, #20]
 8007cae:	bf00      	nop
 8007cb0:	3714      	adds	r7, #20
 8007cb2:	46bd      	mov	sp, r7
 8007cb4:	f85d 7b04 	ldr.w	r7, [sp], #4
 8007cb8:	4770      	bx	lr
 8007cba:	bf00      	nop
 8007cbc:	40012c00 	.word	0x40012c00
 8007cc0:	40000400 	.word	0x40000400
 8007cc4:	40000800 	.word	0x40000800
 8007cc8:	40000c00 	.word	0x40000c00
 8007ccc:	40013400 	.word	0x40013400
 8007cd0:	40014000 	.word	0x40014000
 8007cd4:	40014400 	.word	0x40014400
 8007cd8:	40014800 	.word	0x40014800

08007cdc <HAL_UART_Init>:
 8007cdc:	b580      	push	{r7, lr}
 8007cde:	b082      	sub	sp, #8
 8007ce0:	af00      	add	r7, sp, #0
 8007ce2:	6078      	str	r0, [r7, #4]
 8007ce4:	687b      	ldr	r3, [r7, #4]
 8007ce6:	2b00      	cmp	r3, #0
 8007ce8:	d101      	bne.n	8007cee <HAL_UART_Init+0x12>
 8007cea:	2301      	movs	r3, #1
 8007cec:	e040      	b.n	8007d70 <HAL_UART_Init+0x94>
 8007cee:	687b      	ldr	r3, [r7, #4]
 8007cf0:	6f5b      	ldr	r3, [r3, #116]	; 0x74
 8007cf2:	2b00      	cmp	r3, #0
 8007cf4:	d106      	bne.n	8007d04 <HAL_UART_Init+0x28>
 8007cf6:	687b      	ldr	r3, [r7, #4]
 8007cf8:	2200      	movs	r2, #0
 8007cfa:	f883 2070 	strb.w	r2, [r3, #112]	; 0x70
 8007cfe:	6878      	ldr	r0, [r7, #4]
 8007d00:	f7f9 fb50 	bl	80013a4 <HAL_UART_MspInit>
 8007d04:	687b      	ldr	r3, [r7, #4]
 8007d06:	2224      	movs	r2, #36	; 0x24
 8007d08:	675a      	str	r2, [r3, #116]	; 0x74
 8007d0a:	687b      	ldr	r3, [r7, #4]
 8007d0c:	681b      	ldr	r3, [r3, #0]
 8007d0e:	681a      	ldr	r2, [r3, #0]
 8007d10:	687b      	ldr	r3, [r7, #4]
 8007d12:	681b      	ldr	r3, [r3, #0]
 8007d14:	f022 0201 	bic.w	r2, r2, #1
 8007d18:	601a      	str	r2, [r3, #0]
 8007d1a:	6878      	ldr	r0, [r7, #4]
 8007d1c:	f000 f82c 	bl	8007d78 <UART_SetConfig>
 8007d20:	4603      	mov	r3, r0
 8007d22:	2b01      	cmp	r3, #1
 8007d24:	d101      	bne.n	8007d2a <HAL_UART_Init+0x4e>
 8007d26:	2301      	movs	r3, #1
 8007d28:	e022      	b.n	8007d70 <HAL_UART_Init+0x94>
 8007d2a:	687b      	ldr	r3, [r7, #4]
 8007d2c:	6a5b      	ldr	r3, [r3, #36]	; 0x24
 8007d2e:	2b00      	cmp	r3, #0
 8007d30:	d002      	beq.n	8007d38 <HAL_UART_Init+0x5c>
 8007d32:	6878      	ldr	r0, [r7, #4]
 8007d34:	f000 fb68 	bl	8008408 <UART_AdvFeatureConfig>
 8007d38:	687b      	ldr	r3, [r7, #4]
 8007d3a:	681b      	ldr	r3, [r3, #0]
 8007d3c:	685a      	ldr	r2, [r3, #4]
 8007d3e:	687b      	ldr	r3, [r7, #4]
 8007d40:	681b      	ldr	r3, [r3, #0]
 8007d42:	f422 4290 	bic.w	r2, r2, #18432	; 0x4800
 8007d46:	605a      	str	r2, [r3, #4]
 8007d48:	687b      	ldr	r3, [r7, #4]
 8007d4a:	681b      	ldr	r3, [r3, #0]
 8007d4c:	689a      	ldr	r2, [r3, #8]
 8007d4e:	687b      	ldr	r3, [r7, #4]
 8007d50:	681b      	ldr	r3, [r3, #0]
 8007d52:	f022 022a 	bic.w	r2, r2, #42	; 0x2a
 8007d56:	609a      	str	r2, [r3, #8]
 8007d58:	687b      	ldr	r3, [r7, #4]
 8007d5a:	681b      	ldr	r3, [r3, #0]
 8007d5c:	681a      	ldr	r2, [r3, #0]
 8007d5e:	687b      	ldr	r3, [r7, #4]
 8007d60:	681b      	ldr	r3, [r3, #0]
 8007d62:	f042 0201 	orr.w	r2, r2, #1
 8007d66:	601a      	str	r2, [r3, #0]
 8007d68:	6878      	ldr	r0, [r7, #4]
 8007d6a:	f000 fbef 	bl	800854c <UART_CheckIdleState>
 8007d6e:	4603      	mov	r3, r0
 8007d70:	4618      	mov	r0, r3
 8007d72:	3708      	adds	r7, #8
 8007d74:	46bd      	mov	sp, r7
 8007d76:	bd80      	pop	{r7, pc}

08007d78 <UART_SetConfig>:
 8007d78:	e92d 4890 	stmdb	sp!, {r4, r7, fp, lr}
 8007d7c:	b088      	sub	sp, #32
 8007d7e:	af00      	add	r7, sp, #0
 8007d80:	6078      	str	r0, [r7, #4]
 8007d82:	2300      	movs	r3, #0
 8007d84:	617b      	str	r3, [r7, #20]
 8007d86:	2300      	movs	r3, #0
 8007d88:	74fb      	strb	r3, [r7, #19]
 8007d8a:	2300      	movs	r3, #0
 8007d8c:	60fb      	str	r3, [r7, #12]
 8007d8e:	687b      	ldr	r3, [r7, #4]
 8007d90:	689a      	ldr	r2, [r3, #8]
 8007d92:	687b      	ldr	r3, [r7, #4]
 8007d94:	691b      	ldr	r3, [r3, #16]
 8007d96:	431a      	orrs	r2, r3
 8007d98:	687b      	ldr	r3, [r7, #4]
 8007d9a:	695b      	ldr	r3, [r3, #20]
 8007d9c:	431a      	orrs	r2, r3
 8007d9e:	687b      	ldr	r3, [r7, #4]
 8007da0:	69db      	ldr	r3, [r3, #28]
 8007da2:	4313      	orrs	r3, r2
 8007da4:	61fb      	str	r3, [r7, #28]
 8007da6:	687b      	ldr	r3, [r7, #4]
 8007da8:	681b      	ldr	r3, [r3, #0]
 8007daa:	681a      	ldr	r2, [r3, #0]
 8007dac:	4bac      	ldr	r3, [pc, #688]	; (8008060 <UART_SetConfig+0x2e8>)
 8007dae:	4013      	ands	r3, r2
 8007db0:	687a      	ldr	r2, [r7, #4]
 8007db2:	6812      	ldr	r2, [r2, #0]
 8007db4:	69f9      	ldr	r1, [r7, #28]
 8007db6:	430b      	orrs	r3, r1
 8007db8:	6013      	str	r3, [r2, #0]
 8007dba:	687b      	ldr	r3, [r7, #4]
 8007dbc:	681b      	ldr	r3, [r3, #0]
 8007dbe:	685b      	ldr	r3, [r3, #4]
 8007dc0:	f423 5140 	bic.w	r1, r3, #12288	; 0x3000
 8007dc4:	687b      	ldr	r3, [r7, #4]
 8007dc6:	68da      	ldr	r2, [r3, #12]
 8007dc8:	687b      	ldr	r3, [r7, #4]
 8007dca:	681b      	ldr	r3, [r3, #0]
 8007dcc:	430a      	orrs	r2, r1
 8007dce:	605a      	str	r2, [r3, #4]
 8007dd0:	687b      	ldr	r3, [r7, #4]
 8007dd2:	699b      	ldr	r3, [r3, #24]
 8007dd4:	61fb      	str	r3, [r7, #28]
 8007dd6:	687b      	ldr	r3, [r7, #4]
 8007dd8:	681b      	ldr	r3, [r3, #0]
 8007dda:	4aa2      	ldr	r2, [pc, #648]	; (8008064 <UART_SetConfig+0x2ec>)
 8007ddc:	4293      	cmp	r3, r2
 8007dde:	d004      	beq.n	8007dea <UART_SetConfig+0x72>
 8007de0:	687b      	ldr	r3, [r7, #4]
 8007de2:	6a1b      	ldr	r3, [r3, #32]
 8007de4:	69fa      	ldr	r2, [r7, #28]
 8007de6:	4313      	orrs	r3, r2
 8007de8:	61fb      	str	r3, [r7, #28]
 8007dea:	687b      	ldr	r3, [r7, #4]
 8007dec:	681b      	ldr	r3, [r3, #0]
 8007dee:	689b      	ldr	r3, [r3, #8]
 8007df0:	f423 6130 	bic.w	r1, r3, #2816	; 0xb00
 8007df4:	687b      	ldr	r3, [r7, #4]
 8007df6:	681b      	ldr	r3, [r3, #0]
 8007df8:	69fa      	ldr	r2, [r7, #28]
 8007dfa:	430a      	orrs	r2, r1
 8007dfc:	609a      	str	r2, [r3, #8]
 8007dfe:	687b      	ldr	r3, [r7, #4]
 8007e00:	681b      	ldr	r3, [r3, #0]
 8007e02:	4a99      	ldr	r2, [pc, #612]	; (8008068 <UART_SetConfig+0x2f0>)
 8007e04:	4293      	cmp	r3, r2
 8007e06:	d121      	bne.n	8007e4c <UART_SetConfig+0xd4>
 8007e08:	4b98      	ldr	r3, [pc, #608]	; (800806c <UART_SetConfig+0x2f4>)
 8007e0a:	f8d3 3088 	ldr.w	r3, [r3, #136]	; 0x88
 8007e0e:	f003 0303 	and.w	r3, r3, #3
 8007e12:	2b03      	cmp	r3, #3
 8007e14:	d816      	bhi.n	8007e44 <UART_SetConfig+0xcc>
 8007e16:	a201      	add	r2, pc, #4	; (adr r2, 8007e1c <UART_SetConfig+0xa4>)
 8007e18:	f852 f023 	ldr.w	pc, [r2, r3, lsl #2]
 8007e1c:	08007e2d 	.word	0x08007e2d
 8007e20:	08007e39 	.word	0x08007e39
 8007e24:	08007e33 	.word	0x08007e33
 8007e28:	08007e3f 	.word	0x08007e3f
 8007e2c:	2301      	movs	r3, #1
 8007e2e:	76fb      	strb	r3, [r7, #27]
 8007e30:	e0e8      	b.n	8008004 <UART_SetConfig+0x28c>
 8007e32:	2302      	movs	r3, #2
 8007e34:	76fb      	strb	r3, [r7, #27]
 8007e36:	e0e5      	b.n	8008004 <UART_SetConfig+0x28c>
 8007e38:	2304      	movs	r3, #4
 8007e3a:	76fb      	strb	r3, [r7, #27]
 8007e3c:	e0e2      	b.n	8008004 <UART_SetConfig+0x28c>
 8007e3e:	2308      	movs	r3, #8
 8007e40:	76fb      	strb	r3, [r7, #27]
 8007e42:	e0df      	b.n	8008004 <UART_SetConfig+0x28c>
 8007e44:	2310      	movs	r3, #16
 8007e46:	76fb      	strb	r3, [r7, #27]
 8007e48:	bf00      	nop
 8007e4a:	e0db      	b.n	8008004 <UART_SetConfig+0x28c>
 8007e4c:	687b      	ldr	r3, [r7, #4]
 8007e4e:	681b      	ldr	r3, [r3, #0]
 8007e50:	4a87      	ldr	r2, [pc, #540]	; (8008070 <UART_SetConfig+0x2f8>)
 8007e52:	4293      	cmp	r3, r2
 8007e54:	d134      	bne.n	8007ec0 <UART_SetConfig+0x148>
 8007e56:	4b85      	ldr	r3, [pc, #532]	; (800806c <UART_SetConfig+0x2f4>)
 8007e58:	f8d3 3088 	ldr.w	r3, [r3, #136]	; 0x88
 8007e5c:	f003 030c 	and.w	r3, r3, #12
 8007e60:	2b0c      	cmp	r3, #12
 8007e62:	d829      	bhi.n	8007eb8 <UART_SetConfig+0x140>
 8007e64:	a201      	add	r2, pc, #4	; (adr r2, 8007e6c <UART_SetConfig+0xf4>)
 8007e66:	f852 f023 	ldr.w	pc, [r2, r3, lsl #2]
 8007e6a:	bf00      	nop
 8007e6c:	08007ea1 	.word	0x08007ea1
 8007e70:	08007eb9 	.word	0x08007eb9
 8007e74:	08007eb9 	.word	0x08007eb9
 8007e78:	08007eb9 	.word	0x08007eb9
 8007e7c:	08007ead 	.word	0x08007ead
 8007e80:	08007eb9 	.word	0x08007eb9
 8007e84:	08007eb9 	.word	0x08007eb9
 8007e88:	08007eb9 	.word	0x08007eb9
 8007e8c:	08007ea7 	.word	0x08007ea7
 8007e90:	08007eb9 	.word	0x08007eb9
 8007e94:	08007eb9 	.word	0x08007eb9
 8007e98:	08007eb9 	.word	0x08007eb9
 8007e9c:	08007eb3 	.word	0x08007eb3
 8007ea0:	2300      	movs	r3, #0
 8007ea2:	76fb      	strb	r3, [r7, #27]
 8007ea4:	e0ae      	b.n	8008004 <UART_SetConfig+0x28c>
 8007ea6:	2302      	movs	r3, #2
 8007ea8:	76fb      	strb	r3, [r7, #27]
 8007eaa:	e0ab      	b.n	8008004 <UART_SetConfig+0x28c>
 8007eac:	2304      	movs	r3, #4
 8007eae:	76fb      	strb	r3, [r7, #27]
 8007eb0:	e0a8      	b.n	8008004 <UART_SetConfig+0x28c>
 8007eb2:	2308      	movs	r3, #8
 8007eb4:	76fb      	strb	r3, [r7, #27]
 8007eb6:	e0a5      	b.n	8008004 <UART_SetConfig+0x28c>
 8007eb8:	2310      	movs	r3, #16
 8007eba:	76fb      	strb	r3, [r7, #27]
 8007ebc:	bf00      	nop
 8007ebe:	e0a1      	b.n	8008004 <UART_SetConfig+0x28c>
 8007ec0:	687b      	ldr	r3, [r7, #4]
 8007ec2:	681b      	ldr	r3, [r3, #0]
 8007ec4:	4a6b      	ldr	r2, [pc, #428]	; (8008074 <UART_SetConfig+0x2fc>)
 8007ec6:	4293      	cmp	r3, r2
 8007ec8:	d120      	bne.n	8007f0c <UART_SetConfig+0x194>
 8007eca:	4b68      	ldr	r3, [pc, #416]	; (800806c <UART_SetConfig+0x2f4>)
 8007ecc:	f8d3 3088 	ldr.w	r3, [r3, #136]	; 0x88
 8007ed0:	f003 0330 	and.w	r3, r3, #48	; 0x30
 8007ed4:	2b10      	cmp	r3, #16
 8007ed6:	d00f      	beq.n	8007ef8 <UART_SetConfig+0x180>
 8007ed8:	2b10      	cmp	r3, #16
 8007eda:	d802      	bhi.n	8007ee2 <UART_SetConfig+0x16a>
 8007edc:	2b00      	cmp	r3, #0
 8007ede:	d005      	beq.n	8007eec <UART_SetConfig+0x174>
 8007ee0:	e010      	b.n	8007f04 <UART_SetConfig+0x18c>
 8007ee2:	2b20      	cmp	r3, #32
 8007ee4:	d005      	beq.n	8007ef2 <UART_SetConfig+0x17a>
 8007ee6:	2b30      	cmp	r3, #48	; 0x30
 8007ee8:	d009      	beq.n	8007efe <UART_SetConfig+0x186>
 8007eea:	e00b      	b.n	8007f04 <UART_SetConfig+0x18c>
 8007eec:	2300      	movs	r3, #0
 8007eee:	76fb      	strb	r3, [r7, #27]
 8007ef0:	e088      	b.n	8008004 <UART_SetConfig+0x28c>
 8007ef2:	2302      	movs	r3, #2
 8007ef4:	76fb      	strb	r3, [r7, #27]
 8007ef6:	e085      	b.n	8008004 <UART_SetConfig+0x28c>
 8007ef8:	2304      	movs	r3, #4
 8007efa:	76fb      	strb	r3, [r7, #27]
 8007efc:	e082      	b.n	8008004 <UART_SetConfig+0x28c>
 8007efe:	2308      	movs	r3, #8
 8007f00:	76fb      	strb	r3, [r7, #27]
 8007f02:	e07f      	b.n	8008004 <UART_SetConfig+0x28c>
 8007f04:	2310      	movs	r3, #16
 8007f06:	76fb      	strb	r3, [r7, #27]
 8007f08:	bf00      	nop
 8007f0a:	e07b      	b.n	8008004 <UART_SetConfig+0x28c>
 8007f0c:	687b      	ldr	r3, [r7, #4]
 8007f0e:	681b      	ldr	r3, [r3, #0]
 8007f10:	4a59      	ldr	r2, [pc, #356]	; (8008078 <UART_SetConfig+0x300>)
 8007f12:	4293      	cmp	r3, r2
 8007f14:	d120      	bne.n	8007f58 <UART_SetConfig+0x1e0>
 8007f16:	4b55      	ldr	r3, [pc, #340]	; (800806c <UART_SetConfig+0x2f4>)
 8007f18:	f8d3 3088 	ldr.w	r3, [r3, #136]	; 0x88
 8007f1c:	f003 03c0 	and.w	r3, r3, #192	; 0xc0
 8007f20:	2b40      	cmp	r3, #64	; 0x40
 8007f22:	d00f      	beq.n	8007f44 <UART_SetConfig+0x1cc>
 8007f24:	2b40      	cmp	r3, #64	; 0x40
 8007f26:	d802      	bhi.n	8007f2e <UART_SetConfig+0x1b6>
 8007f28:	2b00      	cmp	r3, #0
 8007f2a:	d005      	beq.n	8007f38 <UART_SetConfig+0x1c0>
 8007f2c:	e010      	b.n	8007f50 <UART_SetConfig+0x1d8>
 8007f2e:	2b80      	cmp	r3, #128	; 0x80
 8007f30:	d005      	beq.n	8007f3e <UART_SetConfig+0x1c6>
 8007f32:	2bc0      	cmp	r3, #192	; 0xc0
 8007f34:	d009      	beq.n	8007f4a <UART_SetConfig+0x1d2>
 8007f36:	e00b      	b.n	8007f50 <UART_SetConfig+0x1d8>
 8007f38:	2300      	movs	r3, #0
 8007f3a:	76fb      	strb	r3, [r7, #27]
 8007f3c:	e062      	b.n	8008004 <UART_SetConfig+0x28c>
 8007f3e:	2302      	movs	r3, #2
 8007f40:	76fb      	strb	r3, [r7, #27]
 8007f42:	e05f      	b.n	8008004 <UART_SetConfig+0x28c>
 8007f44:	2304      	movs	r3, #4
 8007f46:	76fb      	strb	r3, [r7, #27]
 8007f48:	e05c      	b.n	8008004 <UART_SetConfig+0x28c>
 8007f4a:	2308      	movs	r3, #8
 8007f4c:	76fb      	strb	r3, [r7, #27]
 8007f4e:	e059      	b.n	8008004 <UART_SetConfig+0x28c>
 8007f50:	2310      	movs	r3, #16
 8007f52:	76fb      	strb	r3, [r7, #27]
 8007f54:	bf00      	nop
 8007f56:	e055      	b.n	8008004 <UART_SetConfig+0x28c>
 8007f58:	687b      	ldr	r3, [r7, #4]
 8007f5a:	681b      	ldr	r3, [r3, #0]
 8007f5c:	4a47      	ldr	r2, [pc, #284]	; (800807c <UART_SetConfig+0x304>)
 8007f5e:	4293      	cmp	r3, r2
 8007f60:	d124      	bne.n	8007fac <UART_SetConfig+0x234>
 8007f62:	4b42      	ldr	r3, [pc, #264]	; (800806c <UART_SetConfig+0x2f4>)
 8007f64:	f8d3 3088 	ldr.w	r3, [r3, #136]	; 0x88
 8007f68:	f403 7340 	and.w	r3, r3, #768	; 0x300
 8007f6c:	f5b3 7f80 	cmp.w	r3, #256	; 0x100
 8007f70:	d012      	beq.n	8007f98 <UART_SetConfig+0x220>
 8007f72:	f5b3 7f80 	cmp.w	r3, #256	; 0x100
 8007f76:	d802      	bhi.n	8007f7e <UART_SetConfig+0x206>
 8007f78:	2b00      	cmp	r3, #0
 8007f7a:	d007      	beq.n	8007f8c <UART_SetConfig+0x214>
 8007f7c:	e012      	b.n	8007fa4 <UART_SetConfig+0x22c>
 8007f7e:	f5b3 7f00 	cmp.w	r3, #512	; 0x200
 8007f82:	d006      	beq.n	8007f92 <UART_SetConfig+0x21a>
 8007f84:	f5b3 7f40 	cmp.w	r3, #768	; 0x300
 8007f88:	d009      	beq.n	8007f9e <UART_SetConfig+0x226>
 8007f8a:	e00b      	b.n	8007fa4 <UART_SetConfig+0x22c>
 8007f8c:	2300      	movs	r3, #0
 8007f8e:	76fb      	strb	r3, [r7, #27]
 8007f90:	e038      	b.n	8008004 <UART_SetConfig+0x28c>
 8007f92:	2302      	movs	r3, #2
 8007f94:	76fb      	strb	r3, [r7, #27]
 8007f96:	e035      	b.n	8008004 <UART_SetConfig+0x28c>
 8007f98:	2304      	movs	r3, #4
 8007f9a:	76fb      	strb	r3, [r7, #27]
 8007f9c:	e032      	b.n	8008004 <UART_SetConfig+0x28c>
 8007f9e:	2308      	movs	r3, #8
 8007fa0:	76fb      	strb	r3, [r7, #27]
 8007fa2:	e02f      	b.n	8008004 <UART_SetConfig+0x28c>
 8007fa4:	2310      	movs	r3, #16
 8007fa6:	76fb      	strb	r3, [r7, #27]
 8007fa8:	bf00      	nop
 8007faa:	e02b      	b.n	8008004 <UART_SetConfig+0x28c>
 8007fac:	687b      	ldr	r3, [r7, #4]
 8007fae:	681b      	ldr	r3, [r3, #0]
 8007fb0:	4a2c      	ldr	r2, [pc, #176]	; (8008064 <UART_SetConfig+0x2ec>)
 8007fb2:	4293      	cmp	r3, r2
 8007fb4:	d124      	bne.n	8008000 <UART_SetConfig+0x288>
 8007fb6:	4b2d      	ldr	r3, [pc, #180]	; (800806c <UART_SetConfig+0x2f4>)
 8007fb8:	f8d3 3088 	ldr.w	r3, [r3, #136]	; 0x88
 8007fbc:	f403 6340 	and.w	r3, r3, #3072	; 0xc00
 8007fc0:	f5b3 6f80 	cmp.w	r3, #1024	; 0x400
 8007fc4:	d012      	beq.n	8007fec <UART_SetConfig+0x274>
 8007fc6:	f5b3 6f80 	cmp.w	r3, #1024	; 0x400
 8007fca:	d802      	bhi.n	8007fd2 <UART_SetConfig+0x25a>
 8007fcc:	2b00      	cmp	r3, #0
 8007fce:	d007      	beq.n	8007fe0 <UART_SetConfig+0x268>
 8007fd0:	e012      	b.n	8007ff8 <UART_SetConfig+0x280>
 8007fd2:	f5b3 6f00 	cmp.w	r3, #2048	; 0x800
 8007fd6:	d006      	beq.n	8007fe6 <UART_SetConfig+0x26e>
 8007fd8:	f5b3 6f40 	cmp.w	r3, #3072	; 0xc00
 8007fdc:	d009      	beq.n	8007ff2 <UART_SetConfig+0x27a>
 8007fde:	e00b      	b.n	8007ff8 <UART_SetConfig+0x280>
 8007fe0:	2300      	movs	r3, #0
 8007fe2:	76fb      	strb	r3, [r7, #27]
 8007fe4:	e00e      	b.n	8008004 <UART_SetConfig+0x28c>
 8007fe6:	2302      	movs	r3, #2
 8007fe8:	76fb      	strb	r3, [r7, #27]
 8007fea:	e00b      	b.n	8008004 <UART_SetConfig+0x28c>
 8007fec:	2304      	movs	r3, #4
 8007fee:	76fb      	strb	r3, [r7, #27]
 8007ff0:	e008      	b.n	8008004 <UART_SetConfig+0x28c>
 8007ff2:	2308      	movs	r3, #8
 8007ff4:	76fb      	strb	r3, [r7, #27]
 8007ff6:	e005      	b.n	8008004 <UART_SetConfig+0x28c>
 8007ff8:	2310      	movs	r3, #16
 8007ffa:	76fb      	strb	r3, [r7, #27]
 8007ffc:	bf00      	nop
 8007ffe:	e001      	b.n	8008004 <UART_SetConfig+0x28c>
 8008000:	2310      	movs	r3, #16
 8008002:	76fb      	strb	r3, [r7, #27]
 8008004:	687b      	ldr	r3, [r7, #4]
 8008006:	681b      	ldr	r3, [r3, #0]
 8008008:	4a16      	ldr	r2, [pc, #88]	; (8008064 <UART_SetConfig+0x2ec>)
 800800a:	4293      	cmp	r3, r2
 800800c:	f040 80fa 	bne.w	8008204 <UART_SetConfig+0x48c>
 8008010:	7efb      	ldrb	r3, [r7, #27]
 8008012:	2b08      	cmp	r3, #8
 8008014:	d836      	bhi.n	8008084 <UART_SetConfig+0x30c>
 8008016:	a201      	add	r2, pc, #4	; (adr r2, 800801c <UART_SetConfig+0x2a4>)
 8008018:	f852 f023 	ldr.w	pc, [r2, r3, lsl #2]
 800801c:	08008041 	.word	0x08008041
 8008020:	08008085 	.word	0x08008085
 8008024:	08008049 	.word	0x08008049
 8008028:	08008085 	.word	0x08008085
 800802c:	0800804f 	.word	0x0800804f
 8008030:	08008085 	.word	0x08008085
 8008034:	08008085 	.word	0x08008085
 8008038:	08008085 	.word	0x08008085
 800803c:	08008057 	.word	0x08008057
 8008040:	f7fe f89c 	bl	800617c <HAL_RCC_GetPCLK1Freq>
 8008044:	60f8      	str	r0, [r7, #12]
 8008046:	e020      	b.n	800808a <UART_SetConfig+0x312>
 8008048:	4b0d      	ldr	r3, [pc, #52]	; (8008080 <UART_SetConfig+0x308>)
 800804a:	60fb      	str	r3, [r7, #12]
 800804c:	e01d      	b.n	800808a <UART_SetConfig+0x312>
 800804e:	f7fd ffff 	bl	8006050 <HAL_RCC_GetSysClockFreq>
 8008052:	60f8      	str	r0, [r7, #12]
 8008054:	e019      	b.n	800808a <UART_SetConfig+0x312>
 8008056:	f44f 4300 	mov.w	r3, #32768	; 0x8000
 800805a:	60fb      	str	r3, [r7, #12]
 800805c:	e015      	b.n	800808a <UART_SetConfig+0x312>
 800805e:	bf00      	nop
 8008060:	efff69f3 	.word	0xefff69f3
 8008064:	40008000 	.word	0x40008000
 8008068:	40013800 	.word	0x40013800
 800806c:	40021000 	.word	0x40021000
 8008070:	40004400 	.word	0x40004400
 8008074:	40004800 	.word	0x40004800
 8008078:	40004c00 	.word	0x40004c00
 800807c:	40005000 	.word	0x40005000
 8008080:	00f42400 	.word	0x00f42400
 8008084:	2301      	movs	r3, #1
 8008086:	74fb      	strb	r3, [r7, #19]
 8008088:	bf00      	nop
 800808a:	68fb      	ldr	r3, [r7, #12]
 800808c:	2b00      	cmp	r3, #0
 800808e:	f000 81ac 	beq.w	80083ea <UART_SetConfig+0x672>
 8008092:	687b      	ldr	r3, [r7, #4]
 8008094:	685a      	ldr	r2, [r3, #4]
 8008096:	4613      	mov	r3, r2
 8008098:	005b      	lsls	r3, r3, #1
 800809a:	4413      	add	r3, r2
 800809c:	68fa      	ldr	r2, [r7, #12]
 800809e:	429a      	cmp	r2, r3
 80080a0:	d305      	bcc.n	80080ae <UART_SetConfig+0x336>
 80080a2:	687b      	ldr	r3, [r7, #4]
 80080a4:	685b      	ldr	r3, [r3, #4]
 80080a6:	031b      	lsls	r3, r3, #12
 80080a8:	68fa      	ldr	r2, [r7, #12]
 80080aa:	429a      	cmp	r2, r3
 80080ac:	d902      	bls.n	80080b4 <UART_SetConfig+0x33c>
 80080ae:	2301      	movs	r3, #1
 80080b0:	74fb      	strb	r3, [r7, #19]
 80080b2:	e19a      	b.n	80083ea <UART_SetConfig+0x672>
 80080b4:	7efb      	ldrb	r3, [r7, #27]
 80080b6:	2b08      	cmp	r3, #8
 80080b8:	f200 8091 	bhi.w	80081de <UART_SetConfig+0x466>
 80080bc:	a201      	add	r2, pc, #4	; (adr r2, 80080c4 <UART_SetConfig+0x34c>)
 80080be:	f852 f023 	ldr.w	pc, [r2, r3, lsl #2]
 80080c2:	bf00      	nop
 80080c4:	080080e9 	.word	0x080080e9
 80080c8:	080081df 	.word	0x080081df
 80080cc:	08008135 	.word	0x08008135
 80080d0:	080081df 	.word	0x080081df
 80080d4:	08008169 	.word	0x08008169
 80080d8:	080081df 	.word	0x080081df
 80080dc:	080081df 	.word	0x080081df
 80080e0:	080081df 	.word	0x080081df
 80080e4:	080081b5 	.word	0x080081b5
 80080e8:	f7fe f848 	bl	800617c <HAL_RCC_GetPCLK1Freq>
 80080ec:	4603      	mov	r3, r0
 80080ee:	4619      	mov	r1, r3
 80080f0:	f04f 0200 	mov.w	r2, #0
 80080f4:	f04f 0300 	mov.w	r3, #0
 80080f8:	f04f 0400 	mov.w	r4, #0
 80080fc:	0214      	lsls	r4, r2, #8
 80080fe:	ea44 6411 	orr.w	r4, r4, r1, lsr #24
 8008102:	020b      	lsls	r3, r1, #8
 8008104:	687a      	ldr	r2, [r7, #4]
 8008106:	6852      	ldr	r2, [r2, #4]
 8008108:	0852      	lsrs	r2, r2, #1
 800810a:	4611      	mov	r1, r2
 800810c:	f04f 0200 	mov.w	r2, #0
 8008110:	eb13 0b01 	adds.w	fp, r3, r1
 8008114:	eb44 0c02 	adc.w	ip, r4, r2
 8008118:	4658      	mov	r0, fp
 800811a:	4661      	mov	r1, ip
 800811c:	687b      	ldr	r3, [r7, #4]
 800811e:	685b      	ldr	r3, [r3, #4]
 8008120:	f04f 0400 	mov.w	r4, #0
 8008124:	461a      	mov	r2, r3
 8008126:	4623      	mov	r3, r4
 8008128:	f7f8 f84e 	bl	80001c8 <__aeabi_uldivmod>
 800812c:	4603      	mov	r3, r0
 800812e:	460c      	mov	r4, r1
 8008130:	617b      	str	r3, [r7, #20]
 8008132:	e057      	b.n	80081e4 <UART_SetConfig+0x46c>
 8008134:	687b      	ldr	r3, [r7, #4]
 8008136:	685b      	ldr	r3, [r3, #4]
 8008138:	085b      	lsrs	r3, r3, #1
 800813a:	f04f 0400 	mov.w	r4, #0
 800813e:	49b1      	ldr	r1, [pc, #708]	; (8008404 <UART_SetConfig+0x68c>)
 8008140:	f04f 0200 	mov.w	r2, #0
 8008144:	eb13 0b01 	adds.w	fp, r3, r1
 8008148:	eb44 0c02 	adc.w	ip, r4, r2
 800814c:	4658      	mov	r0, fp
 800814e:	4661      	mov	r1, ip
 8008150:	687b      	ldr	r3, [r7, #4]
 8008152:	685b      	ldr	r3, [r3, #4]
 8008154:	f04f 0400 	mov.w	r4, #0
 8008158:	461a      	mov	r2, r3
 800815a:	4623      	mov	r3, r4
 800815c:	f7f8 f834 	bl	80001c8 <__aeabi_uldivmod>
 8008160:	4603      	mov	r3, r0
 8008162:	460c      	mov	r4, r1
 8008164:	617b      	str	r3, [r7, #20]
 8008166:	e03d      	b.n	80081e4 <UART_SetConfig+0x46c>
 8008168:	f7fd ff72 	bl	8006050 <HAL_RCC_GetSysClockFreq>
 800816c:	4603      	mov	r3, r0
 800816e:	4619      	mov	r1, r3
 8008170:	f04f 0200 	mov.w	r2, #0
 8008174:	f04f 0300 	mov.w	r3, #0
 8008178:	f04f 0400 	mov.w	r4, #0
 800817c:	0214      	lsls	r4, r2, #8
 800817e:	ea44 6411 	orr.w	r4, r4, r1, lsr #24
 8008182:	020b      	lsls	r3, r1, #8
 8008184:	687a      	ldr	r2, [r7, #4]
 8008186:	6852      	ldr	r2, [r2, #4]
 8008188:	0852      	lsrs	r2, r2, #1
 800818a:	4611      	mov	r1, r2
 800818c:	f04f 0200 	mov.w	r2, #0
 8008190:	eb13 0b01 	adds.w	fp, r3, r1
 8008194:	eb44 0c02 	adc.w	ip, r4, r2
 8008198:	4658      	mov	r0, fp
 800819a:	4661      	mov	r1, ip
 800819c:	687b      	ldr	r3, [r7, #4]
 800819e:	685b      	ldr	r3, [r3, #4]
 80081a0:	f04f 0400 	mov.w	r4, #0
 80081a4:	461a      	mov	r2, r3
 80081a6:	4623      	mov	r3, r4
 80081a8:	f7f8 f80e 	bl	80001c8 <__aeabi_uldivmod>
 80081ac:	4603      	mov	r3, r0
 80081ae:	460c      	mov	r4, r1
 80081b0:	617b      	str	r3, [r7, #20]
 80081b2:	e017      	b.n	80081e4 <UART_SetConfig+0x46c>
 80081b4:	687b      	ldr	r3, [r7, #4]
 80081b6:	685b      	ldr	r3, [r3, #4]
 80081b8:	085b      	lsrs	r3, r3, #1
 80081ba:	f04f 0400 	mov.w	r4, #0
 80081be:	f513 0000 	adds.w	r0, r3, #8388608	; 0x800000
 80081c2:	f144 0100 	adc.w	r1, r4, #0
 80081c6:	687b      	ldr	r3, [r7, #4]
 80081c8:	685b      	ldr	r3, [r3, #4]
 80081ca:	f04f 0400 	mov.w	r4, #0
 80081ce:	461a      	mov	r2, r3
 80081d0:	4623      	mov	r3, r4
 80081d2:	f7f7 fff9 	bl	80001c8 <__aeabi_uldivmod>
 80081d6:	4603      	mov	r3, r0
 80081d8:	460c      	mov	r4, r1
 80081da:	617b      	str	r3, [r7, #20]
 80081dc:	e002      	b.n	80081e4 <UART_SetConfig+0x46c>
 80081de:	2301      	movs	r3, #1
 80081e0:	74fb      	strb	r3, [r7, #19]
 80081e2:	bf00      	nop
 80081e4:	697b      	ldr	r3, [r7, #20]
 80081e6:	f5b3 7f40 	cmp.w	r3, #768	; 0x300
 80081ea:	d308      	bcc.n	80081fe <UART_SetConfig+0x486>
 80081ec:	697b      	ldr	r3, [r7, #20]
 80081ee:	f5b3 1f80 	cmp.w	r3, #1048576	; 0x100000
 80081f2:	d204      	bcs.n	80081fe <UART_SetConfig+0x486>
 80081f4:	687b      	ldr	r3, [r7, #4]
 80081f6:	681b      	ldr	r3, [r3, #0]
 80081f8:	697a      	ldr	r2, [r7, #20]
 80081fa:	60da      	str	r2, [r3, #12]
 80081fc:	e0f5      	b.n	80083ea <UART_SetConfig+0x672>
 80081fe:	2301      	movs	r3, #1
 8008200:	74fb      	strb	r3, [r7, #19]
 8008202:	e0f2      	b.n	80083ea <UART_SetConfig+0x672>
 8008204:	687b      	ldr	r3, [r7, #4]
 8008206:	69db      	ldr	r3, [r3, #28]
 8008208:	f5b3 4f00 	cmp.w	r3, #32768	; 0x8000
 800820c:	d17f      	bne.n	800830e <UART_SetConfig+0x596>
 800820e:	7efb      	ldrb	r3, [r7, #27]
 8008210:	2b08      	cmp	r3, #8
 8008212:	d85c      	bhi.n	80082ce <UART_SetConfig+0x556>
 8008214:	a201      	add	r2, pc, #4	; (adr r2, 800821c <UART_SetConfig+0x4a4>)
 8008216:	f852 f023 	ldr.w	pc, [r2, r3, lsl #2]
 800821a:	bf00      	nop
 800821c:	08008241 	.word	0x08008241
 8008220:	0800825f 	.word	0x0800825f
 8008224:	0800827d 	.word	0x0800827d
 8008228:	080082cf 	.word	0x080082cf
 800822c:	08008299 	.word	0x08008299
 8008230:	080082cf 	.word	0x080082cf
 8008234:	080082cf 	.word	0x080082cf
 8008238:	080082cf 	.word	0x080082cf
 800823c:	080082b7 	.word	0x080082b7
 8008240:	f7fd ff9c 	bl	800617c <HAL_RCC_GetPCLK1Freq>
 8008244:	4603      	mov	r3, r0
 8008246:	005a      	lsls	r2, r3, #1
 8008248:	687b      	ldr	r3, [r7, #4]
 800824a:	685b      	ldr	r3, [r3, #4]
 800824c:	085b      	lsrs	r3, r3, #1
 800824e:	441a      	add	r2, r3
 8008250:	687b      	ldr	r3, [r7, #4]
 8008252:	685b      	ldr	r3, [r3, #4]
 8008254:	fbb2 f3f3 	udiv	r3, r2, r3
 8008258:	b29b      	uxth	r3, r3
 800825a:	617b      	str	r3, [r7, #20]
 800825c:	e03a      	b.n	80082d4 <UART_SetConfig+0x55c>
 800825e:	f7fd ffa3 	bl	80061a8 <HAL_RCC_GetPCLK2Freq>
 8008262:	4603      	mov	r3, r0
 8008264:	005a      	lsls	r2, r3, #1
 8008266:	687b      	ldr	r3, [r7, #4]
 8008268:	685b      	ldr	r3, [r3, #4]
 800826a:	085b      	lsrs	r3, r3, #1
 800826c:	441a      	add	r2, r3
 800826e:	687b      	ldr	r3, [r7, #4]
 8008270:	685b      	ldr	r3, [r3, #4]
 8008272:	fbb2 f3f3 	udiv	r3, r2, r3
 8008276:	b29b      	uxth	r3, r3
 8008278:	617b      	str	r3, [r7, #20]
 800827a:	e02b      	b.n	80082d4 <UART_SetConfig+0x55c>
 800827c:	687b      	ldr	r3, [r7, #4]
 800827e:	685b      	ldr	r3, [r3, #4]
 8008280:	085b      	lsrs	r3, r3, #1
 8008282:	f103 73f4 	add.w	r3, r3, #31981568	; 0x1e80000
 8008286:	f503 4390 	add.w	r3, r3, #18432	; 0x4800
 800828a:	687a      	ldr	r2, [r7, #4]
 800828c:	6852      	ldr	r2, [r2, #4]
 800828e:	fbb3 f3f2 	udiv	r3, r3, r2
 8008292:	b29b      	uxth	r3, r3
 8008294:	617b      	str	r3, [r7, #20]
 8008296:	e01d      	b.n	80082d4 <UART_SetConfig+0x55c>
 8008298:	f7fd feda 	bl	8006050 <HAL_RCC_GetSysClockFreq>
 800829c:	4603      	mov	r3, r0
 800829e:	005a      	lsls	r2, r3, #1
 80082a0:	687b      	ldr	r3, [r7, #4]
 80082a2:	685b      	ldr	r3, [r3, #4]
 80082a4:	085b      	lsrs	r3, r3, #1
 80082a6:	441a      	add	r2, r3
 80082a8:	687b      	ldr	r3, [r7, #4]
 80082aa:	685b      	ldr	r3, [r3, #4]
 80082ac:	fbb2 f3f3 	udiv	r3, r2, r3
 80082b0:	b29b      	uxth	r3, r3
 80082b2:	617b      	str	r3, [r7, #20]
 80082b4:	e00e      	b.n	80082d4 <UART_SetConfig+0x55c>
 80082b6:	687b      	ldr	r3, [r7, #4]
 80082b8:	685b      	ldr	r3, [r3, #4]
 80082ba:	085b      	lsrs	r3, r3, #1
 80082bc:	f503 3280 	add.w	r2, r3, #65536	; 0x10000
 80082c0:	687b      	ldr	r3, [r7, #4]
 80082c2:	685b      	ldr	r3, [r3, #4]
 80082c4:	fbb2 f3f3 	udiv	r3, r2, r3
 80082c8:	b29b      	uxth	r3, r3
 80082ca:	617b      	str	r3, [r7, #20]
 80082cc:	e002      	b.n	80082d4 <UART_SetConfig+0x55c>
 80082ce:	2301      	movs	r3, #1
 80082d0:	74fb      	strb	r3, [r7, #19]
 80082d2:	bf00      	nop
 80082d4:	697b      	ldr	r3, [r7, #20]
 80082d6:	2b0f      	cmp	r3, #15
 80082d8:	d916      	bls.n	8008308 <UART_SetConfig+0x590>
 80082da:	697b      	ldr	r3, [r7, #20]
 80082dc:	f5b3 3f80 	cmp.w	r3, #65536	; 0x10000
 80082e0:	d212      	bcs.n	8008308 <UART_SetConfig+0x590>
 80082e2:	697b      	ldr	r3, [r7, #20]
 80082e4:	b29b      	uxth	r3, r3
 80082e6:	f023 030f 	bic.w	r3, r3, #15
 80082ea:	817b      	strh	r3, [r7, #10]
 80082ec:	697b      	ldr	r3, [r7, #20]
 80082ee:	085b      	lsrs	r3, r3, #1
 80082f0:	b29b      	uxth	r3, r3
 80082f2:	f003 0307 	and.w	r3, r3, #7
 80082f6:	b29a      	uxth	r2, r3
 80082f8:	897b      	ldrh	r3, [r7, #10]
 80082fa:	4313      	orrs	r3, r2
 80082fc:	817b      	strh	r3, [r7, #10]
 80082fe:	687b      	ldr	r3, [r7, #4]
 8008300:	681b      	ldr	r3, [r3, #0]
 8008302:	897a      	ldrh	r2, [r7, #10]
 8008304:	60da      	str	r2, [r3, #12]
 8008306:	e070      	b.n	80083ea <UART_SetConfig+0x672>
 8008308:	2301      	movs	r3, #1
 800830a:	74fb      	strb	r3, [r7, #19]
 800830c:	e06d      	b.n	80083ea <UART_SetConfig+0x672>
 800830e:	7efb      	ldrb	r3, [r7, #27]
 8008310:	2b08      	cmp	r3, #8
 8008312:	d859      	bhi.n	80083c8 <UART_SetConfig+0x650>
 8008314:	a201      	add	r2, pc, #4	; (adr r2, 800831c <UART_SetConfig+0x5a4>)
 8008316:	f852 f023 	ldr.w	pc, [r2, r3, lsl #2]
 800831a:	bf00      	nop
 800831c:	08008341 	.word	0x08008341
 8008320:	0800835d 	.word	0x0800835d
 8008324:	08008379 	.word	0x08008379
 8008328:	080083c9 	.word	0x080083c9
 800832c:	08008395 	.word	0x08008395
 8008330:	080083c9 	.word	0x080083c9
 8008334:	080083c9 	.word	0x080083c9
 8008338:	080083c9 	.word	0x080083c9
 800833c:	080083b1 	.word	0x080083b1
 8008340:	f7fd ff1c 	bl	800617c <HAL_RCC_GetPCLK1Freq>
 8008344:	4602      	mov	r2, r0
 8008346:	687b      	ldr	r3, [r7, #4]
 8008348:	685b      	ldr	r3, [r3, #4]
 800834a:	085b      	lsrs	r3, r3, #1
 800834c:	441a      	add	r2, r3
 800834e:	687b      	ldr	r3, [r7, #4]
 8008350:	685b      	ldr	r3, [r3, #4]
 8008352:	fbb2 f3f3 	udiv	r3, r2, r3
 8008356:	b29b      	uxth	r3, r3
 8008358:	617b      	str	r3, [r7, #20]
 800835a:	e038      	b.n	80083ce <UART_SetConfig+0x656>
 800835c:	f7fd ff24 	bl	80061a8 <HAL_RCC_GetPCLK2Freq>
 8008360:	4602      	mov	r2, r0
 8008362:	687b      	ldr	r3, [r7, #4]
 8008364:	685b      	ldr	r3, [r3, #4]
 8008366:	085b      	lsrs	r3, r3, #1
 8008368:	441a      	add	r2, r3
 800836a:	687b      	ldr	r3, [r7, #4]
 800836c:	685b      	ldr	r3, [r3, #4]
 800836e:	fbb2 f3f3 	udiv	r3, r2, r3
 8008372:	b29b      	uxth	r3, r3
 8008374:	617b      	str	r3, [r7, #20]
 8008376:	e02a      	b.n	80083ce <UART_SetConfig+0x656>
 8008378:	687b      	ldr	r3, [r7, #4]
 800837a:	685b      	ldr	r3, [r3, #4]
 800837c:	085b      	lsrs	r3, r3, #1
 800837e:	f503 0374 	add.w	r3, r3, #15990784	; 0xf40000
 8008382:	f503 5310 	add.w	r3, r3, #9216	; 0x2400
 8008386:	687a      	ldr	r2, [r7, #4]
 8008388:	6852      	ldr	r2, [r2, #4]
 800838a:	fbb3 f3f2 	udiv	r3, r3, r2
 800838e:	b29b      	uxth	r3, r3
 8008390:	617b      	str	r3, [r7, #20]
 8008392:	e01c      	b.n	80083ce <UART_SetConfig+0x656>
 8008394:	f7fd fe5c 	bl	8006050 <HAL_RCC_GetSysClockFreq>
 8008398:	4602      	mov	r2, r0
 800839a:	687b      	ldr	r3, [r7, #4]
 800839c:	685b      	ldr	r3, [r3, #4]
 800839e:	085b      	lsrs	r3, r3, #1
 80083a0:	441a      	add	r2, r3
 80083a2:	687b      	ldr	r3, [r7, #4]
 80083a4:	685b      	ldr	r3, [r3, #4]
 80083a6:	fbb2 f3f3 	udiv	r3, r2, r3
 80083aa:	b29b      	uxth	r3, r3
 80083ac:	617b      	str	r3, [r7, #20]
 80083ae:	e00e      	b.n	80083ce <UART_SetConfig+0x656>
 80083b0:	687b      	ldr	r3, [r7, #4]
 80083b2:	685b      	ldr	r3, [r3, #4]
 80083b4:	085b      	lsrs	r3, r3, #1
 80083b6:	f503 4200 	add.w	r2, r3, #32768	; 0x8000
 80083ba:	687b      	ldr	r3, [r7, #4]
 80083bc:	685b      	ldr	r3, [r3, #4]
 80083be:	fbb2 f3f3 	udiv	r3, r2, r3
 80083c2:	b29b      	uxth	r3, r3
 80083c4:	617b      	str	r3, [r7, #20]
 80083c6:	e002      	b.n	80083ce <UART_SetConfig+0x656>
 80083c8:	2301      	movs	r3, #1
 80083ca:	74fb      	strb	r3, [r7, #19]
 80083cc:	bf00      	nop
 80083ce:	697b      	ldr	r3, [r7, #20]
 80083d0:	2b0f      	cmp	r3, #15
 80083d2:	d908      	bls.n	80083e6 <UART_SetConfig+0x66e>
 80083d4:	697b      	ldr	r3, [r7, #20]
 80083d6:	f5b3 3f80 	cmp.w	r3, #65536	; 0x10000
 80083da:	d204      	bcs.n	80083e6 <UART_SetConfig+0x66e>
 80083dc:	687b      	ldr	r3, [r7, #4]
 80083de:	681b      	ldr	r3, [r3, #0]
 80083e0:	697a      	ldr	r2, [r7, #20]
 80083e2:	60da      	str	r2, [r3, #12]
 80083e4:	e001      	b.n	80083ea <UART_SetConfig+0x672>
 80083e6:	2301      	movs	r3, #1
 80083e8:	74fb      	strb	r3, [r7, #19]
 80083ea:	687b      	ldr	r3, [r7, #4]
 80083ec:	2200      	movs	r2, #0
 80083ee:	661a      	str	r2, [r3, #96]	; 0x60
 80083f0:	687b      	ldr	r3, [r7, #4]
 80083f2:	2200      	movs	r2, #0
 80083f4:	665a      	str	r2, [r3, #100]	; 0x64
 80083f6:	7cfb      	ldrb	r3, [r7, #19]
 80083f8:	4618      	mov	r0, r3
 80083fa:	3720      	adds	r7, #32
 80083fc:	46bd      	mov	sp, r7
 80083fe:	e8bd 8890 	ldmia.w	sp!, {r4, r7, fp, pc}
 8008402:	bf00      	nop
 8008404:	f4240000 	.word	0xf4240000

08008408 <UART_AdvFeatureConfig>:
 8008408:	b480      	push	{r7}
 800840a:	b083      	sub	sp, #12
 800840c:	af00      	add	r7, sp, #0
 800840e:	6078      	str	r0, [r7, #4]
 8008410:	687b      	ldr	r3, [r7, #4]
 8008412:	6a5b      	ldr	r3, [r3, #36]	; 0x24
 8008414:	f003 0301 	and.w	r3, r3, #1
 8008418:	2b00      	cmp	r3, #0
 800841a:	d00a      	beq.n	8008432 <UART_AdvFeatureConfig+0x2a>
 800841c:	687b      	ldr	r3, [r7, #4]
 800841e:	681b      	ldr	r3, [r3, #0]
 8008420:	685b      	ldr	r3, [r3, #4]
 8008422:	f423 3100 	bic.w	r1, r3, #131072	; 0x20000
 8008426:	687b      	ldr	r3, [r7, #4]
 8008428:	6a9a      	ldr	r2, [r3, #40]	; 0x28
 800842a:	687b      	ldr	r3, [r7, #4]
 800842c:	681b      	ldr	r3, [r3, #0]
 800842e:	430a      	orrs	r2, r1
 8008430:	605a      	str	r2, [r3, #4]
 8008432:	687b      	ldr	r3, [r7, #4]
 8008434:	6a5b      	ldr	r3, [r3, #36]	; 0x24
 8008436:	f003 0302 	and.w	r3, r3, #2
 800843a:	2b00      	cmp	r3, #0
 800843c:	d00a      	beq.n	8008454 <UART_AdvFeatureConfig+0x4c>
 800843e:	687b      	ldr	r3, [r7, #4]
 8008440:	681b      	ldr	r3, [r3, #0]
 8008442:	685b      	ldr	r3, [r3, #4]
 8008444:	f423 3180 	bic.w	r1, r3, #65536	; 0x10000
 8008448:	687b      	ldr	r3, [r7, #4]
 800844a:	6ada      	ldr	r2, [r3, #44]	; 0x2c
 800844c:	687b      	ldr	r3, [r7, #4]
 800844e:	681b      	ldr	r3, [r3, #0]
 8008450:	430a      	orrs	r2, r1
 8008452:	605a      	str	r2, [r3, #4]
 8008454:	687b      	ldr	r3, [r7, #4]
 8008456:	6a5b      	ldr	r3, [r3, #36]	; 0x24
 8008458:	f003 0304 	and.w	r3, r3, #4
 800845c:	2b00      	cmp	r3, #0
 800845e:	d00a      	beq.n	8008476 <UART_AdvFeatureConfig+0x6e>
 8008460:	687b      	ldr	r3, [r7, #4]
 8008462:	681b      	ldr	r3, [r3, #0]
 8008464:	685b      	ldr	r3, [r3, #4]
 8008466:	f423 2180 	bic.w	r1, r3, #262144	; 0x40000
 800846a:	687b      	ldr	r3, [r7, #4]
 800846c:	6b1a      	ldr	r2, [r3, #48]	; 0x30
 800846e:	687b      	ldr	r3, [r7, #4]
 8008470:	681b      	ldr	r3, [r3, #0]
 8008472:	430a      	orrs	r2, r1
 8008474:	605a      	str	r2, [r3, #4]
 8008476:	687b      	ldr	r3, [r7, #4]
 8008478:	6a5b      	ldr	r3, [r3, #36]	; 0x24
 800847a:	f003 0308 	and.w	r3, r3, #8
 800847e:	2b00      	cmp	r3, #0
 8008480:	d00a      	beq.n	8008498 <UART_AdvFeatureConfig+0x90>
 8008482:	687b      	ldr	r3, [r7, #4]
 8008484:	681b      	ldr	r3, [r3, #0]
 8008486:	685b      	ldr	r3, [r3, #4]
 8008488:	f423 4100 	bic.w	r1, r3, #32768	; 0x8000
 800848c:	687b      	ldr	r3, [r7, #4]
 800848e:	6b5a      	ldr	r2, [r3, #52]	; 0x34
 8008490:	687b      	ldr	r3, [r7, #4]
 8008492:	681b      	ldr	r3, [r3, #0]
 8008494:	430a      	orrs	r2, r1
 8008496:	605a      	str	r2, [r3, #4]
 8008498:	687b      	ldr	r3, [r7, #4]
 800849a:	6a5b      	ldr	r3, [r3, #36]	; 0x24
 800849c:	f003 0310 	and.w	r3, r3, #16
 80084a0:	2b00      	cmp	r3, #0
 80084a2:	d00a      	beq.n	80084ba <UART_AdvFeatureConfig+0xb2>
 80084a4:	687b      	ldr	r3, [r7, #4]
 80084a6:	681b      	ldr	r3, [r3, #0]
 80084a8:	689b      	ldr	r3, [r3, #8]
 80084aa:	f423 5180 	bic.w	r1, r3, #4096	; 0x1000
 80084ae:	687b      	ldr	r3, [r7, #4]
 80084b0:	6b9a      	ldr	r2, [r3, #56]	; 0x38
 80084b2:	687b      	ldr	r3, [r7, #4]
 80084b4:	681b      	ldr	r3, [r3, #0]
 80084b6:	430a      	orrs	r2, r1
 80084b8:	609a      	str	r2, [r3, #8]
 80084ba:	687b      	ldr	r3, [r7, #4]
 80084bc:	6a5b      	ldr	r3, [r3, #36]	; 0x24
 80084be:	f003 0320 	and.w	r3, r3, #32
 80084c2:	2b00      	cmp	r3, #0
 80084c4:	d00a      	beq.n	80084dc <UART_AdvFeatureConfig+0xd4>
 80084c6:	687b      	ldr	r3, [r7, #4]
 80084c8:	681b      	ldr	r3, [r3, #0]
 80084ca:	689b      	ldr	r3, [r3, #8]
 80084cc:	f423 5100 	bic.w	r1, r3, #8192	; 0x2000
 80084d0:	687b      	ldr	r3, [r7, #4]
 80084d2:	6bda      	ldr	r2, [r3, #60]	; 0x3c
 80084d4:	687b      	ldr	r3, [r7, #4]
 80084d6:	681b      	ldr	r3, [r3, #0]
 80084d8:	430a      	orrs	r2, r1
 80084da:	609a      	str	r2, [r3, #8]
 80084dc:	687b      	ldr	r3, [r7, #4]
 80084de:	6a5b      	ldr	r3, [r3, #36]	; 0x24
 80084e0:	f003 0340 	and.w	r3, r3, #64	; 0x40
 80084e4:	2b00      	cmp	r3, #0
 80084e6:	d01a      	beq.n	800851e <UART_AdvFeatureConfig+0x116>
 80084e8:	687b      	ldr	r3, [r7, #4]
 80084ea:	681b      	ldr	r3, [r3, #0]
 80084ec:	685b      	ldr	r3, [r3, #4]
 80084ee:	f423 1180 	bic.w	r1, r3, #1048576	; 0x100000
 80084f2:	687b      	ldr	r3, [r7, #4]
 80084f4:	6c1a      	ldr	r2, [r3, #64]	; 0x40
 80084f6:	687b      	ldr	r3, [r7, #4]
 80084f8:	681b      	ldr	r3, [r3, #0]
 80084fa:	430a      	orrs	r2, r1
 80084fc:	605a      	str	r2, [r3, #4]
 80084fe:	687b      	ldr	r3, [r7, #4]
 8008500:	6c1b      	ldr	r3, [r3, #64]	; 0x40
 8008502:	f5b3 1f80 	cmp.w	r3, #1048576	; 0x100000
 8008506:	d10a      	bne.n	800851e <UART_AdvFeatureConfig+0x116>
 8008508:	687b      	ldr	r3, [r7, #4]
 800850a:	681b      	ldr	r3, [r3, #0]
 800850c:	685b      	ldr	r3, [r3, #4]
 800850e:	f423 01c0 	bic.w	r1, r3, #6291456	; 0x600000
 8008512:	687b      	ldr	r3, [r7, #4]
 8008514:	6c5a      	ldr	r2, [r3, #68]	; 0x44
 8008516:	687b      	ldr	r3, [r7, #4]
 8008518:	681b      	ldr	r3, [r3, #0]
 800851a:	430a      	orrs	r2, r1
 800851c:	605a      	str	r2, [r3, #4]
 800851e:	687b      	ldr	r3, [r7, #4]
 8008520:	6a5b      	ldr	r3, [r3, #36]	; 0x24
 8008522:	f003 0380 	and.w	r3, r3, #128	; 0x80
 8008526:	2b00      	cmp	r3, #0
 8008528:	d00a      	beq.n	8008540 <UART_AdvFeatureConfig+0x138>
 800852a:	687b      	ldr	r3, [r7, #4]
 800852c:	681b      	ldr	r3, [r3, #0]
 800852e:	685b      	ldr	r3, [r3, #4]
 8008530:	f423 2100 	bic.w	r1, r3, #524288	; 0x80000
 8008534:	687b      	ldr	r3, [r7, #4]
 8008536:	6c9a      	ldr	r2, [r3, #72]	; 0x48
 8008538:	687b      	ldr	r3, [r7, #4]
 800853a:	681b      	ldr	r3, [r3, #0]
 800853c:	430a      	orrs	r2, r1
 800853e:	605a      	str	r2, [r3, #4]
 8008540:	bf00      	nop
 8008542:	370c      	adds	r7, #12
 8008544:	46bd      	mov	sp, r7
 8008546:	f85d 7b04 	ldr.w	r7, [sp], #4
 800854a:	4770      	bx	lr

0800854c <UART_CheckIdleState>:
 800854c:	b580      	push	{r7, lr}
 800854e:	b086      	sub	sp, #24
 8008550:	af02      	add	r7, sp, #8
 8008552:	6078      	str	r0, [r7, #4]
 8008554:	687b      	ldr	r3, [r7, #4]
 8008556:	2200      	movs	r2, #0
 8008558:	67da      	str	r2, [r3, #124]	; 0x7c
 800855a:	f7f9 f919 	bl	8001790 <HAL_GetTick>
 800855e:	60f8      	str	r0, [r7, #12]
 8008560:	687b      	ldr	r3, [r7, #4]
 8008562:	681b      	ldr	r3, [r3, #0]
 8008564:	681b      	ldr	r3, [r3, #0]
 8008566:	f003 0308 	and.w	r3, r3, #8
 800856a:	2b08      	cmp	r3, #8
 800856c:	d10e      	bne.n	800858c <UART_CheckIdleState+0x40>
 800856e:	f06f 437e 	mvn.w	r3, #4261412864	; 0xfe000000
 8008572:	9300      	str	r3, [sp, #0]
 8008574:	68fb      	ldr	r3, [r7, #12]
 8008576:	2200      	movs	r2, #0
 8008578:	f44f 1100 	mov.w	r1, #2097152	; 0x200000
 800857c:	6878      	ldr	r0, [r7, #4]
 800857e:	f000 f82a 	bl	80085d6 <UART_WaitOnFlagUntilTimeout>
 8008582:	4603      	mov	r3, r0
 8008584:	2b00      	cmp	r3, #0
 8008586:	d001      	beq.n	800858c <UART_CheckIdleState+0x40>
 8008588:	2303      	movs	r3, #3
 800858a:	e020      	b.n	80085ce <UART_CheckIdleState+0x82>
 800858c:	687b      	ldr	r3, [r7, #4]
 800858e:	681b      	ldr	r3, [r3, #0]
 8008590:	681b      	ldr	r3, [r3, #0]
 8008592:	f003 0304 	and.w	r3, r3, #4
 8008596:	2b04      	cmp	r3, #4
 8008598:	d10e      	bne.n	80085b8 <UART_CheckIdleState+0x6c>
 800859a:	f06f 437e 	mvn.w	r3, #4261412864	; 0xfe000000
 800859e:	9300      	str	r3, [sp, #0]
 80085a0:	68fb      	ldr	r3, [r7, #12]
 80085a2:	2200      	movs	r2, #0
 80085a4:	f44f 0180 	mov.w	r1, #4194304	; 0x400000
 80085a8:	6878      	ldr	r0, [r7, #4]
 80085aa:	f000 f814 	bl	80085d6 <UART_WaitOnFlagUntilTimeout>
 80085ae:	4603      	mov	r3, r0
 80085b0:	2b00      	cmp	r3, #0
 80085b2:	d001      	beq.n	80085b8 <UART_CheckIdleState+0x6c>
 80085b4:	2303      	movs	r3, #3
 80085b6:	e00a      	b.n	80085ce <UART_CheckIdleState+0x82>
 80085b8:	687b      	ldr	r3, [r7, #4]
 80085ba:	2220      	movs	r2, #32
 80085bc:	675a      	str	r2, [r3, #116]	; 0x74
 80085be:	687b      	ldr	r3, [r7, #4]
 80085c0:	2220      	movs	r2, #32
 80085c2:	679a      	str	r2, [r3, #120]	; 0x78
 80085c4:	687b      	ldr	r3, [r7, #4]
 80085c6:	2200      	movs	r2, #0
 80085c8:	f883 2070 	strb.w	r2, [r3, #112]	; 0x70
 80085cc:	2300      	movs	r3, #0
 80085ce:	4618      	mov	r0, r3
 80085d0:	3710      	adds	r7, #16
 80085d2:	46bd      	mov	sp, r7
 80085d4:	bd80      	pop	{r7, pc}

080085d6 <UART_WaitOnFlagUntilTimeout>:
 80085d6:	b580      	push	{r7, lr}
 80085d8:	b084      	sub	sp, #16
 80085da:	af00      	add	r7, sp, #0
 80085dc:	60f8      	str	r0, [r7, #12]
 80085de:	60b9      	str	r1, [r7, #8]
 80085e0:	603b      	str	r3, [r7, #0]
 80085e2:	4613      	mov	r3, r2
 80085e4:	71fb      	strb	r3, [r7, #7]
 80085e6:	e02a      	b.n	800863e <UART_WaitOnFlagUntilTimeout+0x68>
 80085e8:	69bb      	ldr	r3, [r7, #24]
 80085ea:	f1b3 3fff 	cmp.w	r3, #4294967295
 80085ee:	d026      	beq.n	800863e <UART_WaitOnFlagUntilTimeout+0x68>
 80085f0:	f7f9 f8ce 	bl	8001790 <HAL_GetTick>
 80085f4:	4602      	mov	r2, r0
 80085f6:	683b      	ldr	r3, [r7, #0]
 80085f8:	1ad3      	subs	r3, r2, r3
 80085fa:	69ba      	ldr	r2, [r7, #24]
 80085fc:	429a      	cmp	r2, r3
 80085fe:	d302      	bcc.n	8008606 <UART_WaitOnFlagUntilTimeout+0x30>
 8008600:	69bb      	ldr	r3, [r7, #24]
 8008602:	2b00      	cmp	r3, #0
 8008604:	d11b      	bne.n	800863e <UART_WaitOnFlagUntilTimeout+0x68>
 8008606:	68fb      	ldr	r3, [r7, #12]
 8008608:	681b      	ldr	r3, [r3, #0]
 800860a:	681a      	ldr	r2, [r3, #0]
 800860c:	68fb      	ldr	r3, [r7, #12]
 800860e:	681b      	ldr	r3, [r3, #0]
 8008610:	f422 72d0 	bic.w	r2, r2, #416	; 0x1a0
 8008614:	601a      	str	r2, [r3, #0]
 8008616:	68fb      	ldr	r3, [r7, #12]
 8008618:	681b      	ldr	r3, [r3, #0]
 800861a:	689a      	ldr	r2, [r3, #8]
 800861c:	68fb      	ldr	r3, [r7, #12]
 800861e:	681b      	ldr	r3, [r3, #0]
 8008620:	f022 0201 	bic.w	r2, r2, #1
 8008624:	609a      	str	r2, [r3, #8]
 8008626:	68fb      	ldr	r3, [r7, #12]
 8008628:	2220      	movs	r2, #32
 800862a:	675a      	str	r2, [r3, #116]	; 0x74
 800862c:	68fb      	ldr	r3, [r7, #12]
 800862e:	2220      	movs	r2, #32
 8008630:	679a      	str	r2, [r3, #120]	; 0x78
 8008632:	68fb      	ldr	r3, [r7, #12]
 8008634:	2200      	movs	r2, #0
 8008636:	f883 2070 	strb.w	r2, [r3, #112]	; 0x70
 800863a:	2303      	movs	r3, #3
 800863c:	e00f      	b.n	800865e <UART_WaitOnFlagUntilTimeout+0x88>
 800863e:	68fb      	ldr	r3, [r7, #12]
 8008640:	681b      	ldr	r3, [r3, #0]
 8008642:	69da      	ldr	r2, [r3, #28]
 8008644:	68bb      	ldr	r3, [r7, #8]
 8008646:	4013      	ands	r3, r2
 8008648:	68ba      	ldr	r2, [r7, #8]
 800864a:	429a      	cmp	r2, r3
 800864c:	bf0c      	ite	eq
 800864e:	2301      	moveq	r3, #1
 8008650:	2300      	movne	r3, #0
 8008652:	b2db      	uxtb	r3, r3
 8008654:	461a      	mov	r2, r3
 8008656:	79fb      	ldrb	r3, [r7, #7]
 8008658:	429a      	cmp	r2, r3
 800865a:	d0c5      	beq.n	80085e8 <UART_WaitOnFlagUntilTimeout+0x12>
 800865c:	2300      	movs	r3, #0
 800865e:	4618      	mov	r0, r3
 8008660:	3710      	adds	r7, #16
 8008662:	46bd      	mov	sp, r7
 8008664:	bd80      	pop	{r7, pc}

08008666 <USB_CoreInit>:
 8008666:	b084      	sub	sp, #16
 8008668:	b580      	push	{r7, lr}
 800866a:	b084      	sub	sp, #16
 800866c:	af00      	add	r7, sp, #0
 800866e:	6078      	str	r0, [r7, #4]
 8008670:	f107 001c 	add.w	r0, r7, #28
 8008674:	e880 000e 	stmia.w	r0, {r1, r2, r3}
 8008678:	6b3b      	ldr	r3, [r7, #48]	; 0x30
 800867a:	2b01      	cmp	r3, #1
 800867c:	d122      	bne.n	80086c4 <USB_CoreInit+0x5e>
 800867e:	687b      	ldr	r3, [r7, #4]
 8008680:	6b9b      	ldr	r3, [r3, #56]	; 0x38
 8008682:	f423 3280 	bic.w	r2, r3, #65536	; 0x10000
 8008686:	687b      	ldr	r3, [r7, #4]
 8008688:	639a      	str	r2, [r3, #56]	; 0x38
 800868a:	687b      	ldr	r3, [r7, #4]
 800868c:	68db      	ldr	r3, [r3, #12]
 800868e:	f423 0384 	bic.w	r3, r3, #4325376	; 0x420000
 8008692:	f023 0340 	bic.w	r3, r3, #64	; 0x40
 8008696:	687a      	ldr	r2, [r7, #4]
 8008698:	60d3      	str	r3, [r2, #12]
 800869a:	687b      	ldr	r3, [r7, #4]
 800869c:	68db      	ldr	r3, [r3, #12]
 800869e:	f423 1240 	bic.w	r2, r3, #3145728	; 0x300000
 80086a2:	687b      	ldr	r3, [r7, #4]
 80086a4:	60da      	str	r2, [r3, #12]
 80086a6:	6cfb      	ldr	r3, [r7, #76]	; 0x4c
 80086a8:	2b01      	cmp	r3, #1
 80086aa:	d105      	bne.n	80086b8 <USB_CoreInit+0x52>
 80086ac:	687b      	ldr	r3, [r7, #4]
 80086ae:	68db      	ldr	r3, [r3, #12]
 80086b0:	f443 1280 	orr.w	r2, r3, #1048576	; 0x100000
 80086b4:	687b      	ldr	r3, [r7, #4]
 80086b6:	60da      	str	r2, [r3, #12]
 80086b8:	6878      	ldr	r0, [r7, #4]
 80086ba:	f000 f937 	bl	800892c <USB_CoreReset>
 80086be:	4603      	mov	r3, r0
 80086c0:	73fb      	strb	r3, [r7, #15]
 80086c2:	e01a      	b.n	80086fa <USB_CoreInit+0x94>
 80086c4:	687b      	ldr	r3, [r7, #4]
 80086c6:	68db      	ldr	r3, [r3, #12]
 80086c8:	f043 0240 	orr.w	r2, r3, #64	; 0x40
 80086cc:	687b      	ldr	r3, [r7, #4]
 80086ce:	60da      	str	r2, [r3, #12]
 80086d0:	6878      	ldr	r0, [r7, #4]
 80086d2:	f000 f92b 	bl	800892c <USB_CoreReset>
 80086d6:	4603      	mov	r3, r0
 80086d8:	73fb      	strb	r3, [r7, #15]
 80086da:	6c3b      	ldr	r3, [r7, #64]	; 0x40
 80086dc:	2b00      	cmp	r3, #0
 80086de:	d106      	bne.n	80086ee <USB_CoreInit+0x88>
 80086e0:	687b      	ldr	r3, [r7, #4]
 80086e2:	6b9b      	ldr	r3, [r3, #56]	; 0x38
 80086e4:	f443 3280 	orr.w	r2, r3, #65536	; 0x10000
 80086e8:	687b      	ldr	r3, [r7, #4]
 80086ea:	639a      	str	r2, [r3, #56]	; 0x38
 80086ec:	e005      	b.n	80086fa <USB_CoreInit+0x94>
 80086ee:	687b      	ldr	r3, [r7, #4]
 80086f0:	6b9b      	ldr	r3, [r3, #56]	; 0x38
 80086f2:	f423 3280 	bic.w	r2, r3, #65536	; 0x10000
 80086f6:	687b      	ldr	r3, [r7, #4]
 80086f8:	639a      	str	r2, [r3, #56]	; 0x38
 80086fa:	7bfb      	ldrb	r3, [r7, #15]
 80086fc:	4618      	mov	r0, r3
 80086fe:	3710      	adds	r7, #16
 8008700:	46bd      	mov	sp, r7
 8008702:	e8bd 4080 	ldmia.w	sp!, {r7, lr}
 8008706:	b004      	add	sp, #16
 8008708:	4770      	bx	lr

0800870a <USB_EnableGlobalInt>:
 800870a:	b480      	push	{r7}
 800870c:	b083      	sub	sp, #12
 800870e:	af00      	add	r7, sp, #0
 8008710:	6078      	str	r0, [r7, #4]
 8008712:	687b      	ldr	r3, [r7, #4]
 8008714:	689b      	ldr	r3, [r3, #8]
 8008716:	f043 0201 	orr.w	r2, r3, #1
 800871a:	687b      	ldr	r3, [r7, #4]
 800871c:	609a      	str	r2, [r3, #8]
 800871e:	2300      	movs	r3, #0
 8008720:	4618      	mov	r0, r3
 8008722:	370c      	adds	r7, #12
 8008724:	46bd      	mov	sp, r7
 8008726:	f85d 7b04 	ldr.w	r7, [sp], #4
 800872a:	4770      	bx	lr

0800872c <USB_DisableGlobalInt>:
 800872c:	b480      	push	{r7}
 800872e:	b083      	sub	sp, #12
 8008730:	af00      	add	r7, sp, #0
 8008732:	6078      	str	r0, [r7, #4]
 8008734:	687b      	ldr	r3, [r7, #4]
 8008736:	689b      	ldr	r3, [r3, #8]
 8008738:	f023 0201 	bic.w	r2, r3, #1
 800873c:	687b      	ldr	r3, [r7, #4]
 800873e:	609a      	str	r2, [r3, #8]
 8008740:	2300      	movs	r3, #0
 8008742:	4618      	mov	r0, r3
 8008744:	370c      	adds	r7, #12
 8008746:	46bd      	mov	sp, r7
 8008748:	f85d 7b04 	ldr.w	r7, [sp], #4
 800874c:	4770      	bx	lr

0800874e <USB_SetCurrentMode>:
 800874e:	b580      	push	{r7, lr}
 8008750:	b082      	sub	sp, #8
 8008752:	af00      	add	r7, sp, #0
 8008754:	6078      	str	r0, [r7, #4]
 8008756:	460b      	mov	r3, r1
 8008758:	70fb      	strb	r3, [r7, #3]
 800875a:	687b      	ldr	r3, [r7, #4]
 800875c:	68db      	ldr	r3, [r3, #12]
 800875e:	f023 42c0 	bic.w	r2, r3, #1610612736	; 0x60000000
 8008762:	687b      	ldr	r3, [r7, #4]
 8008764:	60da      	str	r2, [r3, #12]
 8008766:	78fb      	ldrb	r3, [r7, #3]
 8008768:	2b01      	cmp	r3, #1
 800876a:	d106      	bne.n	800877a <USB_SetCurrentMode+0x2c>
 800876c:	687b      	ldr	r3, [r7, #4]
 800876e:	68db      	ldr	r3, [r3, #12]
 8008770:	f043 5200 	orr.w	r2, r3, #536870912	; 0x20000000
 8008774:	687b      	ldr	r3, [r7, #4]
 8008776:	60da      	str	r2, [r3, #12]
 8008778:	e00b      	b.n	8008792 <USB_SetCurrentMode+0x44>
 800877a:	78fb      	ldrb	r3, [r7, #3]
 800877c:	2b00      	cmp	r3, #0
 800877e:	d106      	bne.n	800878e <USB_SetCurrentMode+0x40>
 8008780:	687b      	ldr	r3, [r7, #4]
 8008782:	68db      	ldr	r3, [r3, #12]
 8008784:	f043 4280 	orr.w	r2, r3, #1073741824	; 0x40000000
 8008788:	687b      	ldr	r3, [r7, #4]
 800878a:	60da      	str	r2, [r3, #12]
 800878c:	e001      	b.n	8008792 <USB_SetCurrentMode+0x44>
 800878e:	2301      	movs	r3, #1
 8008790:	e003      	b.n	800879a <USB_SetCurrentMode+0x4c>
 8008792:	2032      	movs	r0, #50	; 0x32
 8008794:	f7f9 f808 	bl	80017a8 <HAL_Delay>
 8008798:	2300      	movs	r3, #0
 800879a:	4618      	mov	r0, r3
 800879c:	3708      	adds	r7, #8
 800879e:	46bd      	mov	sp, r7
 80087a0:	bd80      	pop	{r7, pc}
	...

080087a4 <USB_FlushTxFifo>:
 80087a4:	b480      	push	{r7}
 80087a6:	b085      	sub	sp, #20
 80087a8:	af00      	add	r7, sp, #0
 80087aa:	6078      	str	r0, [r7, #4]
 80087ac:	6039      	str	r1, [r7, #0]
 80087ae:	2300      	movs	r3, #0
 80087b0:	60fb      	str	r3, [r7, #12]
 80087b2:	683b      	ldr	r3, [r7, #0]
 80087b4:	019b      	lsls	r3, r3, #6
 80087b6:	f043 0220 	orr.w	r2, r3, #32
 80087ba:	687b      	ldr	r3, [r7, #4]
 80087bc:	611a      	str	r2, [r3, #16]
 80087be:	68fb      	ldr	r3, [r7, #12]
 80087c0:	3301      	adds	r3, #1
 80087c2:	60fb      	str	r3, [r7, #12]
 80087c4:	68fb      	ldr	r3, [r7, #12]
 80087c6:	4a09      	ldr	r2, [pc, #36]	; (80087ec <USB_FlushTxFifo+0x48>)
 80087c8:	4293      	cmp	r3, r2
 80087ca:	d901      	bls.n	80087d0 <USB_FlushTxFifo+0x2c>
 80087cc:	2303      	movs	r3, #3
 80087ce:	e006      	b.n	80087de <USB_FlushTxFifo+0x3a>
 80087d0:	687b      	ldr	r3, [r7, #4]
 80087d2:	691b      	ldr	r3, [r3, #16]
 80087d4:	f003 0320 	and.w	r3, r3, #32
 80087d8:	2b20      	cmp	r3, #32
 80087da:	d0f0      	beq.n	80087be <USB_FlushTxFifo+0x1a>
 80087dc:	2300      	movs	r3, #0
 80087de:	4618      	mov	r0, r3
 80087e0:	3714      	adds	r7, #20
 80087e2:	46bd      	mov	sp, r7
 80087e4:	f85d 7b04 	ldr.w	r7, [sp], #4
 80087e8:	4770      	bx	lr
 80087ea:	bf00      	nop
 80087ec:	00030d40 	.word	0x00030d40

080087f0 <USB_FlushRxFifo>:
 80087f0:	b480      	push	{r7}
 80087f2:	b085      	sub	sp, #20
 80087f4:	af00      	add	r7, sp, #0
 80087f6:	6078      	str	r0, [r7, #4]
 80087f8:	2300      	movs	r3, #0
 80087fa:	60fb      	str	r3, [r7, #12]
 80087fc:	687b      	ldr	r3, [r7, #4]
 80087fe:	2210      	movs	r2, #16
 8008800:	611a      	str	r2, [r3, #16]
 8008802:	68fb      	ldr	r3, [r7, #12]
 8008804:	3301      	adds	r3, #1
 8008806:	60fb      	str	r3, [r7, #12]
 8008808:	68fb      	ldr	r3, [r7, #12]
 800880a:	4a09      	ldr	r2, [pc, #36]	; (8008830 <USB_FlushRxFifo+0x40>)
 800880c:	4293      	cmp	r3, r2
 800880e:	d901      	bls.n	8008814 <USB_FlushRxFifo+0x24>
 8008810:	2303      	movs	r3, #3
 8008812:	e006      	b.n	8008822 <USB_FlushRxFifo+0x32>
 8008814:	687b      	ldr	r3, [r7, #4]
 8008816:	691b      	ldr	r3, [r3, #16]
 8008818:	f003 0310 	and.w	r3, r3, #16
 800881c:	2b10      	cmp	r3, #16
 800881e:	d0f0      	beq.n	8008802 <USB_FlushRxFifo+0x12>
 8008820:	2300      	movs	r3, #0
 8008822:	4618      	mov	r0, r3
 8008824:	3714      	adds	r7, #20
 8008826:	46bd      	mov	sp, r7
 8008828:	f85d 7b04 	ldr.w	r7, [sp], #4
 800882c:	4770      	bx	lr
 800882e:	bf00      	nop
 8008830:	00030d40 	.word	0x00030d40

08008834 <USB_WritePacket>:
 8008834:	b480      	push	{r7}
 8008836:	b089      	sub	sp, #36	; 0x24
 8008838:	af00      	add	r7, sp, #0
 800883a:	60f8      	str	r0, [r7, #12]
 800883c:	60b9      	str	r1, [r7, #8]
 800883e:	4611      	mov	r1, r2
 8008840:	461a      	mov	r2, r3
 8008842:	460b      	mov	r3, r1
 8008844:	71fb      	strb	r3, [r7, #7]
 8008846:	4613      	mov	r3, r2
 8008848:	80bb      	strh	r3, [r7, #4]
 800884a:	68fb      	ldr	r3, [r7, #12]
 800884c:	617b      	str	r3, [r7, #20]
 800884e:	68bb      	ldr	r3, [r7, #8]
 8008850:	61fb      	str	r3, [r7, #28]
 8008852:	88bb      	ldrh	r3, [r7, #4]
 8008854:	3303      	adds	r3, #3
 8008856:	089b      	lsrs	r3, r3, #2
 8008858:	613b      	str	r3, [r7, #16]
 800885a:	2300      	movs	r3, #0
 800885c:	61bb      	str	r3, [r7, #24]
 800885e:	e00f      	b.n	8008880 <USB_WritePacket+0x4c>
 8008860:	79fb      	ldrb	r3, [r7, #7]
 8008862:	031a      	lsls	r2, r3, #12
 8008864:	697b      	ldr	r3, [r7, #20]
 8008866:	4413      	add	r3, r2
 8008868:	f503 5380 	add.w	r3, r3, #4096	; 0x1000
 800886c:	461a      	mov	r2, r3
 800886e:	69fb      	ldr	r3, [r7, #28]
 8008870:	681b      	ldr	r3, [r3, #0]
 8008872:	6013      	str	r3, [r2, #0]
 8008874:	69fb      	ldr	r3, [r7, #28]
 8008876:	3304      	adds	r3, #4
 8008878:	61fb      	str	r3, [r7, #28]
 800887a:	69bb      	ldr	r3, [r7, #24]
 800887c:	3301      	adds	r3, #1
 800887e:	61bb      	str	r3, [r7, #24]
 8008880:	69ba      	ldr	r2, [r7, #24]
 8008882:	693b      	ldr	r3, [r7, #16]
 8008884:	429a      	cmp	r2, r3
 8008886:	d3eb      	bcc.n	8008860 <USB_WritePacket+0x2c>
 8008888:	2300      	movs	r3, #0
 800888a:	4618      	mov	r0, r3
 800888c:	3724      	adds	r7, #36	; 0x24
 800888e:	46bd      	mov	sp, r7
 8008890:	f85d 7b04 	ldr.w	r7, [sp], #4
 8008894:	4770      	bx	lr

08008896 <USB_ReadPacket>:
 8008896:	b480      	push	{r7}
 8008898:	b089      	sub	sp, #36	; 0x24
 800889a:	af00      	add	r7, sp, #0
 800889c:	60f8      	str	r0, [r7, #12]
 800889e:	60b9      	str	r1, [r7, #8]
 80088a0:	4613      	mov	r3, r2
 80088a2:	80fb      	strh	r3, [r7, #6]
 80088a4:	68fb      	ldr	r3, [r7, #12]
 80088a6:	617b      	str	r3, [r7, #20]
 80088a8:	68bb      	ldr	r3, [r7, #8]
 80088aa:	61fb      	str	r3, [r7, #28]
 80088ac:	88fb      	ldrh	r3, [r7, #6]
 80088ae:	3303      	adds	r3, #3
 80088b0:	089b      	lsrs	r3, r3, #2
 80088b2:	613b      	str	r3, [r7, #16]
 80088b4:	2300      	movs	r3, #0
 80088b6:	61bb      	str	r3, [r7, #24]
 80088b8:	e00b      	b.n	80088d2 <USB_ReadPacket+0x3c>
 80088ba:	697b      	ldr	r3, [r7, #20]
 80088bc:	f503 5380 	add.w	r3, r3, #4096	; 0x1000
 80088c0:	681a      	ldr	r2, [r3, #0]
 80088c2:	69fb      	ldr	r3, [r7, #28]
 80088c4:	601a      	str	r2, [r3, #0]
 80088c6:	69fb      	ldr	r3, [r7, #28]
 80088c8:	3304      	adds	r3, #4
 80088ca:	61fb      	str	r3, [r7, #28]
 80088cc:	69bb      	ldr	r3, [r7, #24]
 80088ce:	3301      	adds	r3, #1
 80088d0:	61bb      	str	r3, [r7, #24]
 80088d2:	69ba      	ldr	r2, [r7, #24]
 80088d4:	693b      	ldr	r3, [r7, #16]
 80088d6:	429a      	cmp	r2, r3
 80088d8:	d3ef      	bcc.n	80088ba <USB_ReadPacket+0x24>
 80088da:	69fb      	ldr	r3, [r7, #28]
 80088dc:	4618      	mov	r0, r3
 80088de:	3724      	adds	r7, #36	; 0x24
 80088e0:	46bd      	mov	sp, r7
 80088e2:	f85d 7b04 	ldr.w	r7, [sp], #4
 80088e6:	4770      	bx	lr

080088e8 <USB_ReadInterrupts>:
 80088e8:	b480      	push	{r7}
 80088ea:	b085      	sub	sp, #20
 80088ec:	af00      	add	r7, sp, #0
 80088ee:	6078      	str	r0, [r7, #4]
 80088f0:	687b      	ldr	r3, [r7, #4]
 80088f2:	695b      	ldr	r3, [r3, #20]
 80088f4:	60fb      	str	r3, [r7, #12]
 80088f6:	687b      	ldr	r3, [r7, #4]
 80088f8:	699b      	ldr	r3, [r3, #24]
 80088fa:	68fa      	ldr	r2, [r7, #12]
 80088fc:	4013      	ands	r3, r2
 80088fe:	60fb      	str	r3, [r7, #12]
 8008900:	68fb      	ldr	r3, [r7, #12]
 8008902:	4618      	mov	r0, r3
 8008904:	3714      	adds	r7, #20
 8008906:	46bd      	mov	sp, r7
 8008908:	f85d 7b04 	ldr.w	r7, [sp], #4
 800890c:	4770      	bx	lr

0800890e <USB_GetMode>:
 800890e:	b480      	push	{r7}
 8008910:	b083      	sub	sp, #12
 8008912:	af00      	add	r7, sp, #0
 8008914:	6078      	str	r0, [r7, #4]
 8008916:	687b      	ldr	r3, [r7, #4]
 8008918:	695b      	ldr	r3, [r3, #20]
 800891a:	f003 0301 	and.w	r3, r3, #1
 800891e:	4618      	mov	r0, r3
 8008920:	370c      	adds	r7, #12
 8008922:	46bd      	mov	sp, r7
 8008924:	f85d 7b04 	ldr.w	r7, [sp], #4
 8008928:	4770      	bx	lr
	...

0800892c <USB_CoreReset>:
 800892c:	b480      	push	{r7}
 800892e:	b085      	sub	sp, #20
 8008930:	af00      	add	r7, sp, #0
 8008932:	6078      	str	r0, [r7, #4]
 8008934:	2300      	movs	r3, #0
 8008936:	60fb      	str	r3, [r7, #12]
 8008938:	68fb      	ldr	r3, [r7, #12]
 800893a:	3301      	adds	r3, #1
 800893c:	60fb      	str	r3, [r7, #12]
 800893e:	68fb      	ldr	r3, [r7, #12]
 8008940:	4a13      	ldr	r2, [pc, #76]	; (8008990 <USB_CoreReset+0x64>)
 8008942:	4293      	cmp	r3, r2
 8008944:	d901      	bls.n	800894a <USB_CoreReset+0x1e>
 8008946:	2303      	movs	r3, #3
 8008948:	e01b      	b.n	8008982 <USB_CoreReset+0x56>
 800894a:	687b      	ldr	r3, [r7, #4]
 800894c:	691b      	ldr	r3, [r3, #16]
 800894e:	2b00      	cmp	r3, #0
 8008950:	daf2      	bge.n	8008938 <USB_CoreReset+0xc>
 8008952:	2300      	movs	r3, #0
 8008954:	60fb      	str	r3, [r7, #12]
 8008956:	687b      	ldr	r3, [r7, #4]
 8008958:	691b      	ldr	r3, [r3, #16]
 800895a:	f043 0201 	orr.w	r2, r3, #1
 800895e:	687b      	ldr	r3, [r7, #4]
 8008960:	611a      	str	r2, [r3, #16]
 8008962:	68fb      	ldr	r3, [r7, #12]
 8008964:	3301      	adds	r3, #1
 8008966:	60fb      	str	r3, [r7, #12]
 8008968:	68fb      	ldr	r3, [r7, #12]
 800896a:	4a09      	ldr	r2, [pc, #36]	; (8008990 <USB_CoreReset+0x64>)
 800896c:	4293      	cmp	r3, r2
 800896e:	d901      	bls.n	8008974 <USB_CoreReset+0x48>
 8008970:	2303      	movs	r3, #3
 8008972:	e006      	b.n	8008982 <USB_CoreReset+0x56>
 8008974:	687b      	ldr	r3, [r7, #4]
 8008976:	691b      	ldr	r3, [r3, #16]
 8008978:	f003 0301 	and.w	r3, r3, #1
 800897c:	2b01      	cmp	r3, #1
 800897e:	d0f0      	beq.n	8008962 <USB_CoreReset+0x36>
 8008980:	2300      	movs	r3, #0
 8008982:	4618      	mov	r0, r3
 8008984:	3714      	adds	r7, #20
 8008986:	46bd      	mov	sp, r7
 8008988:	f85d 7b04 	ldr.w	r7, [sp], #4
 800898c:	4770      	bx	lr
 800898e:	bf00      	nop
 8008990:	00030d40 	.word	0x00030d40

08008994 <USB_HostInit>:
 8008994:	b084      	sub	sp, #16
 8008996:	b580      	push	{r7, lr}
 8008998:	b084      	sub	sp, #16
 800899a:	af00      	add	r7, sp, #0
 800899c:	6078      	str	r0, [r7, #4]
 800899e:	f107 001c 	add.w	r0, r7, #28
 80089a2:	e880 000e 	stmia.w	r0, {r1, r2, r3}
 80089a6:	687b      	ldr	r3, [r7, #4]
 80089a8:	60bb      	str	r3, [r7, #8]
 80089aa:	68bb      	ldr	r3, [r7, #8]
 80089ac:	f503 6360 	add.w	r3, r3, #3584	; 0xe00
 80089b0:	461a      	mov	r2, r3
 80089b2:	2300      	movs	r3, #0
 80089b4:	6013      	str	r3, [r2, #0]
 80089b6:	687b      	ldr	r3, [r7, #4]
 80089b8:	6b9b      	ldr	r3, [r3, #56]	; 0x38
 80089ba:	f423 1200 	bic.w	r2, r3, #2097152	; 0x200000
 80089be:	687b      	ldr	r3, [r7, #4]
 80089c0:	639a      	str	r2, [r3, #56]	; 0x38
 80089c2:	687b      	ldr	r3, [r7, #4]
 80089c4:	6b9b      	ldr	r3, [r3, #56]	; 0x38
 80089c6:	f423 3200 	bic.w	r2, r3, #131072	; 0x20000
 80089ca:	687b      	ldr	r3, [r7, #4]
 80089cc:	639a      	str	r2, [r3, #56]	; 0x38
 80089ce:	68bb      	ldr	r3, [r7, #8]
 80089d0:	f503 6380 	add.w	r3, r3, #1024	; 0x400
 80089d4:	681b      	ldr	r3, [r3, #0]
 80089d6:	68ba      	ldr	r2, [r7, #8]
 80089d8:	f502 6280 	add.w	r2, r2, #1024	; 0x400
 80089dc:	f023 0304 	bic.w	r3, r3, #4
 80089e0:	6013      	str	r3, [r2, #0]
 80089e2:	2110      	movs	r1, #16
 80089e4:	6878      	ldr	r0, [r7, #4]
 80089e6:	f7ff fedd 	bl	80087a4 <USB_FlushTxFifo>
 80089ea:	6878      	ldr	r0, [r7, #4]
 80089ec:	f7ff ff00 	bl	80087f0 <USB_FlushRxFifo>
 80089f0:	2300      	movs	r3, #0
 80089f2:	60fb      	str	r3, [r7, #12]
 80089f4:	e015      	b.n	8008a22 <USB_HostInit+0x8e>
 80089f6:	68fb      	ldr	r3, [r7, #12]
 80089f8:	015a      	lsls	r2, r3, #5
 80089fa:	68bb      	ldr	r3, [r7, #8]
 80089fc:	4413      	add	r3, r2
 80089fe:	f503 63a0 	add.w	r3, r3, #1280	; 0x500
 8008a02:	461a      	mov	r2, r3
 8008a04:	f04f 33ff 	mov.w	r3, #4294967295
 8008a08:	6093      	str	r3, [r2, #8]
 8008a0a:	68fb      	ldr	r3, [r7, #12]
 8008a0c:	015a      	lsls	r2, r3, #5
 8008a0e:	68bb      	ldr	r3, [r7, #8]
 8008a10:	4413      	add	r3, r2
 8008a12:	f503 63a0 	add.w	r3, r3, #1280	; 0x500
 8008a16:	461a      	mov	r2, r3
 8008a18:	2300      	movs	r3, #0
 8008a1a:	60d3      	str	r3, [r2, #12]
 8008a1c:	68fb      	ldr	r3, [r7, #12]
 8008a1e:	3301      	adds	r3, #1
 8008a20:	60fb      	str	r3, [r7, #12]
 8008a22:	6a3b      	ldr	r3, [r7, #32]
 8008a24:	68fa      	ldr	r2, [r7, #12]
 8008a26:	429a      	cmp	r2, r3
 8008a28:	d3e5      	bcc.n	80089f6 <USB_HostInit+0x62>
 8008a2a:	2101      	movs	r1, #1
 8008a2c:	6878      	ldr	r0, [r7, #4]
 8008a2e:	f000 f869 	bl	8008b04 <USB_DriveVbus>
 8008a32:	20c8      	movs	r0, #200	; 0xc8
 8008a34:	f7f8 feb8 	bl	80017a8 <HAL_Delay>
 8008a38:	687b      	ldr	r3, [r7, #4]
 8008a3a:	2200      	movs	r2, #0
 8008a3c:	619a      	str	r2, [r3, #24]
 8008a3e:	687b      	ldr	r3, [r7, #4]
 8008a40:	f04f 32ff 	mov.w	r2, #4294967295
 8008a44:	615a      	str	r2, [r3, #20]
 8008a46:	687b      	ldr	r3, [r7, #4]
 8008a48:	2280      	movs	r2, #128	; 0x80
 8008a4a:	625a      	str	r2, [r3, #36]	; 0x24
 8008a4c:	687b      	ldr	r3, [r7, #4]
 8008a4e:	4a0d      	ldr	r2, [pc, #52]	; (8008a84 <USB_HostInit+0xf0>)
 8008a50:	629a      	str	r2, [r3, #40]	; 0x28
 8008a52:	687b      	ldr	r3, [r7, #4]
 8008a54:	4a0c      	ldr	r2, [pc, #48]	; (8008a88 <USB_HostInit+0xf4>)
 8008a56:	f8c3 2100 	str.w	r2, [r3, #256]	; 0x100
 8008a5a:	687b      	ldr	r3, [r7, #4]
 8008a5c:	699b      	ldr	r3, [r3, #24]
 8008a5e:	f043 0210 	orr.w	r2, r3, #16
 8008a62:	687b      	ldr	r3, [r7, #4]
 8008a64:	619a      	str	r2, [r3, #24]
 8008a66:	687b      	ldr	r3, [r7, #4]
 8008a68:	699a      	ldr	r2, [r3, #24]
 8008a6a:	4b08      	ldr	r3, [pc, #32]	; (8008a8c <USB_HostInit+0xf8>)
 8008a6c:	4313      	orrs	r3, r2
 8008a6e:	687a      	ldr	r2, [r7, #4]
 8008a70:	6193      	str	r3, [r2, #24]
 8008a72:	2300      	movs	r3, #0
 8008a74:	4618      	mov	r0, r3
 8008a76:	3710      	adds	r7, #16
 8008a78:	46bd      	mov	sp, r7
 8008a7a:	e8bd 4080 	ldmia.w	sp!, {r7, lr}
 8008a7e:	b004      	add	sp, #16
 8008a80:	4770      	bx	lr
 8008a82:	bf00      	nop
 8008a84:	00600080 	.word	0x00600080
 8008a88:	004000e0 	.word	0x004000e0
 8008a8c:	a3200008 	.word	0xa3200008

08008a90 <USB_InitFSLSPClkSel>:
 8008a90:	b480      	push	{r7}
 8008a92:	b085      	sub	sp, #20
 8008a94:	af00      	add	r7, sp, #0
 8008a96:	6078      	str	r0, [r7, #4]
 8008a98:	460b      	mov	r3, r1
 8008a9a:	70fb      	strb	r3, [r7, #3]
 8008a9c:	687b      	ldr	r3, [r7, #4]
 8008a9e:	60fb      	str	r3, [r7, #12]
 8008aa0:	68fb      	ldr	r3, [r7, #12]
 8008aa2:	f503 6380 	add.w	r3, r3, #1024	; 0x400
 8008aa6:	681b      	ldr	r3, [r3, #0]
 8008aa8:	68fa      	ldr	r2, [r7, #12]
 8008aaa:	f502 6280 	add.w	r2, r2, #1024	; 0x400
 8008aae:	f023 0303 	bic.w	r3, r3, #3
 8008ab2:	6013      	str	r3, [r2, #0]
 8008ab4:	68fb      	ldr	r3, [r7, #12]
 8008ab6:	f503 6380 	add.w	r3, r3, #1024	; 0x400
 8008aba:	681a      	ldr	r2, [r3, #0]
 8008abc:	78fb      	ldrb	r3, [r7, #3]
 8008abe:	f003 0303 	and.w	r3, r3, #3
 8008ac2:	68f9      	ldr	r1, [r7, #12]
 8008ac4:	f501 6180 	add.w	r1, r1, #1024	; 0x400
 8008ac8:	4313      	orrs	r3, r2
 8008aca:	600b      	str	r3, [r1, #0]
 8008acc:	78fb      	ldrb	r3, [r7, #3]
 8008ace:	2b01      	cmp	r3, #1
 8008ad0:	d107      	bne.n	8008ae2 <USB_InitFSLSPClkSel+0x52>
 8008ad2:	68fb      	ldr	r3, [r7, #12]
 8008ad4:	f503 6380 	add.w	r3, r3, #1024	; 0x400
 8008ad8:	461a      	mov	r2, r3
 8008ada:	f64b 3380 	movw	r3, #48000	; 0xbb80
 8008ade:	6053      	str	r3, [r2, #4]
 8008ae0:	e009      	b.n	8008af6 <USB_InitFSLSPClkSel+0x66>
 8008ae2:	78fb      	ldrb	r3, [r7, #3]
 8008ae4:	2b02      	cmp	r3, #2
 8008ae6:	d106      	bne.n	8008af6 <USB_InitFSLSPClkSel+0x66>
 8008ae8:	68fb      	ldr	r3, [r7, #12]
 8008aea:	f503 6380 	add.w	r3, r3, #1024	; 0x400
 8008aee:	461a      	mov	r2, r3
 8008af0:	f241 7370 	movw	r3, #6000	; 0x1770
 8008af4:	6053      	str	r3, [r2, #4]
 8008af6:	2300      	movs	r3, #0
 8008af8:	4618      	mov	r0, r3
 8008afa:	3714      	adds	r7, #20
 8008afc:	46bd      	mov	sp, r7
 8008afe:	f85d 7b04 	ldr.w	r7, [sp], #4
 8008b02:	4770      	bx	lr

08008b04 <USB_DriveVbus>:
 8008b04:	b480      	push	{r7}
 8008b06:	b085      	sub	sp, #20
 8008b08:	af00      	add	r7, sp, #0
 8008b0a:	6078      	str	r0, [r7, #4]
 8008b0c:	460b      	mov	r3, r1
 8008b0e:	70fb      	strb	r3, [r7, #3]
 8008b10:	687b      	ldr	r3, [r7, #4]
 8008b12:	60fb      	str	r3, [r7, #12]
 8008b14:	2300      	movs	r3, #0
 8008b16:	60bb      	str	r3, [r7, #8]
 8008b18:	68fb      	ldr	r3, [r7, #12]
 8008b1a:	f503 6388 	add.w	r3, r3, #1088	; 0x440
 8008b1e:	681b      	ldr	r3, [r3, #0]
 8008b20:	60bb      	str	r3, [r7, #8]
 8008b22:	68bb      	ldr	r3, [r7, #8]
 8008b24:	f023 032e 	bic.w	r3, r3, #46	; 0x2e
 8008b28:	60bb      	str	r3, [r7, #8]
 8008b2a:	68bb      	ldr	r3, [r7, #8]
 8008b2c:	f403 5380 	and.w	r3, r3, #4096	; 0x1000
 8008b30:	2b00      	cmp	r3, #0
 8008b32:	d109      	bne.n	8008b48 <USB_DriveVbus+0x44>
 8008b34:	78fb      	ldrb	r3, [r7, #3]
 8008b36:	2b01      	cmp	r3, #1
 8008b38:	d106      	bne.n	8008b48 <USB_DriveVbus+0x44>
 8008b3a:	68bb      	ldr	r3, [r7, #8]
 8008b3c:	68fa      	ldr	r2, [r7, #12]
 8008b3e:	f502 6288 	add.w	r2, r2, #1088	; 0x440
 8008b42:	f443 5380 	orr.w	r3, r3, #4096	; 0x1000
 8008b46:	6013      	str	r3, [r2, #0]
 8008b48:	68bb      	ldr	r3, [r7, #8]
 8008b4a:	f403 5380 	and.w	r3, r3, #4096	; 0x1000
 8008b4e:	f5b3 5f80 	cmp.w	r3, #4096	; 0x1000
 8008b52:	d109      	bne.n	8008b68 <USB_DriveVbus+0x64>
 8008b54:	78fb      	ldrb	r3, [r7, #3]
 8008b56:	2b00      	cmp	r3, #0
 8008b58:	d106      	bne.n	8008b68 <USB_DriveVbus+0x64>
 8008b5a:	68bb      	ldr	r3, [r7, #8]
 8008b5c:	68fa      	ldr	r2, [r7, #12]
 8008b5e:	f502 6288 	add.w	r2, r2, #1088	; 0x440
 8008b62:	f423 5380 	bic.w	r3, r3, #4096	; 0x1000
 8008b66:	6013      	str	r3, [r2, #0]
 8008b68:	2300      	movs	r3, #0
 8008b6a:	4618      	mov	r0, r3
 8008b6c:	3714      	adds	r7, #20
 8008b6e:	46bd      	mov	sp, r7
 8008b70:	f85d 7b04 	ldr.w	r7, [sp], #4
 8008b74:	4770      	bx	lr

08008b76 <USB_GetCurrentFrame>:
 8008b76:	b480      	push	{r7}
 8008b78:	b085      	sub	sp, #20
 8008b7a:	af00      	add	r7, sp, #0
 8008b7c:	6078      	str	r0, [r7, #4]
 8008b7e:	687b      	ldr	r3, [r7, #4]
 8008b80:	60fb      	str	r3, [r7, #12]
 8008b82:	68fb      	ldr	r3, [r7, #12]
 8008b84:	f503 6380 	add.w	r3, r3, #1024	; 0x400
 8008b88:	689b      	ldr	r3, [r3, #8]
 8008b8a:	b29b      	uxth	r3, r3
 8008b8c:	4618      	mov	r0, r3
 8008b8e:	3714      	adds	r7, #20
 8008b90:	46bd      	mov	sp, r7
 8008b92:	f85d 7b04 	ldr.w	r7, [sp], #4
 8008b96:	4770      	bx	lr

08008b98 <USB_HC_Init>:
 8008b98:	b480      	push	{r7}
 8008b9a:	b087      	sub	sp, #28
 8008b9c:	af00      	add	r7, sp, #0
 8008b9e:	6078      	str	r0, [r7, #4]
 8008ba0:	4608      	mov	r0, r1
 8008ba2:	4611      	mov	r1, r2
 8008ba4:	461a      	mov	r2, r3
 8008ba6:	4603      	mov	r3, r0
 8008ba8:	70fb      	strb	r3, [r7, #3]
 8008baa:	460b      	mov	r3, r1
 8008bac:	70bb      	strb	r3, [r7, #2]
 8008bae:	4613      	mov	r3, r2
 8008bb0:	707b      	strb	r3, [r7, #1]
 8008bb2:	2300      	movs	r3, #0
 8008bb4:	75fb      	strb	r3, [r7, #23]
 8008bb6:	687b      	ldr	r3, [r7, #4]
 8008bb8:	60bb      	str	r3, [r7, #8]
 8008bba:	78fb      	ldrb	r3, [r7, #3]
 8008bbc:	015a      	lsls	r2, r3, #5
 8008bbe:	68bb      	ldr	r3, [r7, #8]
 8008bc0:	4413      	add	r3, r2
 8008bc2:	f503 63a0 	add.w	r3, r3, #1280	; 0x500
 8008bc6:	461a      	mov	r2, r3
 8008bc8:	f04f 33ff 	mov.w	r3, #4294967295
 8008bcc:	6093      	str	r3, [r2, #8]
 8008bce:	f897 3024 	ldrb.w	r3, [r7, #36]	; 0x24
 8008bd2:	2b03      	cmp	r3, #3
 8008bd4:	d867      	bhi.n	8008ca6 <USB_HC_Init+0x10e>
 8008bd6:	a201      	add	r2, pc, #4	; (adr r2, 8008bdc <USB_HC_Init+0x44>)
 8008bd8:	f852 f023 	ldr.w	pc, [r2, r3, lsl #2]
 8008bdc:	08008bed 	.word	0x08008bed
 8008be0:	08008c69 	.word	0x08008c69
 8008be4:	08008bed 	.word	0x08008bed
 8008be8:	08008c2b 	.word	0x08008c2b
 8008bec:	78fb      	ldrb	r3, [r7, #3]
 8008bee:	015a      	lsls	r2, r3, #5
 8008bf0:	68bb      	ldr	r3, [r7, #8]
 8008bf2:	4413      	add	r3, r2
 8008bf4:	f503 63a0 	add.w	r3, r3, #1280	; 0x500
 8008bf8:	461a      	mov	r2, r3
 8008bfa:	f240 439d 	movw	r3, #1181	; 0x49d
 8008bfe:	60d3      	str	r3, [r2, #12]
 8008c00:	f997 3002 	ldrsb.w	r3, [r7, #2]
 8008c04:	2b00      	cmp	r3, #0
 8008c06:	da51      	bge.n	8008cac <USB_HC_Init+0x114>
 8008c08:	78fb      	ldrb	r3, [r7, #3]
 8008c0a:	015a      	lsls	r2, r3, #5
 8008c0c:	68bb      	ldr	r3, [r7, #8]
 8008c0e:	4413      	add	r3, r2
 8008c10:	f503 63a0 	add.w	r3, r3, #1280	; 0x500
 8008c14:	68db      	ldr	r3, [r3, #12]
 8008c16:	78fa      	ldrb	r2, [r7, #3]
 8008c18:	0151      	lsls	r1, r2, #5
 8008c1a:	68ba      	ldr	r2, [r7, #8]
 8008c1c:	440a      	add	r2, r1
 8008c1e:	f502 62a0 	add.w	r2, r2, #1280	; 0x500
 8008c22:	f443 7380 	orr.w	r3, r3, #256	; 0x100
 8008c26:	60d3      	str	r3, [r2, #12]
 8008c28:	e040      	b.n	8008cac <USB_HC_Init+0x114>
 8008c2a:	78fb      	ldrb	r3, [r7, #3]
 8008c2c:	015a      	lsls	r2, r3, #5
 8008c2e:	68bb      	ldr	r3, [r7, #8]
 8008c30:	4413      	add	r3, r2
 8008c32:	f503 63a0 	add.w	r3, r3, #1280	; 0x500
 8008c36:	461a      	mov	r2, r3
 8008c38:	f240 639d 	movw	r3, #1693	; 0x69d
 8008c3c:	60d3      	str	r3, [r2, #12]
 8008c3e:	f997 3002 	ldrsb.w	r3, [r7, #2]
 8008c42:	2b00      	cmp	r3, #0
 8008c44:	da34      	bge.n	8008cb0 <USB_HC_Init+0x118>
 8008c46:	78fb      	ldrb	r3, [r7, #3]
 8008c48:	015a      	lsls	r2, r3, #5
 8008c4a:	68bb      	ldr	r3, [r7, #8]
 8008c4c:	4413      	add	r3, r2
 8008c4e:	f503 63a0 	add.w	r3, r3, #1280	; 0x500
 8008c52:	68db      	ldr	r3, [r3, #12]
 8008c54:	78fa      	ldrb	r2, [r7, #3]
 8008c56:	0151      	lsls	r1, r2, #5
 8008c58:	68ba      	ldr	r2, [r7, #8]
 8008c5a:	440a      	add	r2, r1
 8008c5c:	f502 62a0 	add.w	r2, r2, #1280	; 0x500
 8008c60:	f443 7380 	orr.w	r3, r3, #256	; 0x100
 8008c64:	60d3      	str	r3, [r2, #12]
 8008c66:	e023      	b.n	8008cb0 <USB_HC_Init+0x118>
 8008c68:	78fb      	ldrb	r3, [r7, #3]
 8008c6a:	015a      	lsls	r2, r3, #5
 8008c6c:	68bb      	ldr	r3, [r7, #8]
 8008c6e:	4413      	add	r3, r2
 8008c70:	f503 63a0 	add.w	r3, r3, #1280	; 0x500
 8008c74:	461a      	mov	r2, r3
 8008c76:	f240 2325 	movw	r3, #549	; 0x225
 8008c7a:	60d3      	str	r3, [r2, #12]
 8008c7c:	f997 3002 	ldrsb.w	r3, [r7, #2]
 8008c80:	2b00      	cmp	r3, #0
 8008c82:	da17      	bge.n	8008cb4 <USB_HC_Init+0x11c>
 8008c84:	78fb      	ldrb	r3, [r7, #3]
 8008c86:	015a      	lsls	r2, r3, #5
 8008c88:	68bb      	ldr	r3, [r7, #8]
 8008c8a:	4413      	add	r3, r2
 8008c8c:	f503 63a0 	add.w	r3, r3, #1280	; 0x500
 8008c90:	68db      	ldr	r3, [r3, #12]
 8008c92:	78fa      	ldrb	r2, [r7, #3]
 8008c94:	0151      	lsls	r1, r2, #5
 8008c96:	68ba      	ldr	r2, [r7, #8]
 8008c98:	440a      	add	r2, r1
 8008c9a:	f502 62a0 	add.w	r2, r2, #1280	; 0x500
 8008c9e:	f443 73c0 	orr.w	r3, r3, #384	; 0x180
 8008ca2:	60d3      	str	r3, [r2, #12]
 8008ca4:	e006      	b.n	8008cb4 <USB_HC_Init+0x11c>
 8008ca6:	2301      	movs	r3, #1
 8008ca8:	75fb      	strb	r3, [r7, #23]
 8008caa:	e004      	b.n	8008cb6 <USB_HC_Init+0x11e>
 8008cac:	bf00      	nop
 8008cae:	e002      	b.n	8008cb6 <USB_HC_Init+0x11e>
 8008cb0:	bf00      	nop
 8008cb2:	e000      	b.n	8008cb6 <USB_HC_Init+0x11e>
 8008cb4:	bf00      	nop
 8008cb6:	68bb      	ldr	r3, [r7, #8]
 8008cb8:	f503 6380 	add.w	r3, r3, #1024	; 0x400
 8008cbc:	699a      	ldr	r2, [r3, #24]
 8008cbe:	78fb      	ldrb	r3, [r7, #3]
 8008cc0:	f003 030f 	and.w	r3, r3, #15
 8008cc4:	2101      	movs	r1, #1
 8008cc6:	fa01 f303 	lsl.w	r3, r1, r3
 8008cca:	68b9      	ldr	r1, [r7, #8]
 8008ccc:	f501 6180 	add.w	r1, r1, #1024	; 0x400
 8008cd0:	4313      	orrs	r3, r2
 8008cd2:	618b      	str	r3, [r1, #24]
 8008cd4:	687b      	ldr	r3, [r7, #4]
 8008cd6:	699b      	ldr	r3, [r3, #24]
 8008cd8:	f043 7200 	orr.w	r2, r3, #33554432	; 0x2000000
 8008cdc:	687b      	ldr	r3, [r7, #4]
 8008cde:	619a      	str	r2, [r3, #24]
 8008ce0:	f997 3002 	ldrsb.w	r3, [r7, #2]
 8008ce4:	2b00      	cmp	r3, #0
 8008ce6:	da03      	bge.n	8008cf0 <USB_HC_Init+0x158>
 8008ce8:	f44f 4300 	mov.w	r3, #32768	; 0x8000
 8008cec:	613b      	str	r3, [r7, #16]
 8008cee:	e001      	b.n	8008cf4 <USB_HC_Init+0x15c>
 8008cf0:	2300      	movs	r3, #0
 8008cf2:	613b      	str	r3, [r7, #16]
 8008cf4:	f897 3020 	ldrb.w	r3, [r7, #32]
 8008cf8:	2b02      	cmp	r3, #2
 8008cfa:	d103      	bne.n	8008d04 <USB_HC_Init+0x16c>
 8008cfc:	f44f 3300 	mov.w	r3, #131072	; 0x20000
 8008d00:	60fb      	str	r3, [r7, #12]
 8008d02:	e001      	b.n	8008d08 <USB_HC_Init+0x170>
 8008d04:	2300      	movs	r3, #0
 8008d06:	60fb      	str	r3, [r7, #12]
 8008d08:	787b      	ldrb	r3, [r7, #1]
 8008d0a:	059b      	lsls	r3, r3, #22
 8008d0c:	f003 52fe 	and.w	r2, r3, #532676608	; 0x1fc00000
 8008d10:	78bb      	ldrb	r3, [r7, #2]
 8008d12:	02db      	lsls	r3, r3, #11
 8008d14:	f403 43f0 	and.w	r3, r3, #30720	; 0x7800
 8008d18:	431a      	orrs	r2, r3
 8008d1a:	f897 3024 	ldrb.w	r3, [r7, #36]	; 0x24
 8008d1e:	049b      	lsls	r3, r3, #18
 8008d20:	f403 2340 	and.w	r3, r3, #786432	; 0xc0000
 8008d24:	431a      	orrs	r2, r3
 8008d26:	8d3b      	ldrh	r3, [r7, #40]	; 0x28
 8008d28:	f3c3 030a 	ubfx	r3, r3, #0, #11
 8008d2c:	431a      	orrs	r2, r3
 8008d2e:	693b      	ldr	r3, [r7, #16]
 8008d30:	431a      	orrs	r2, r3
 8008d32:	78fb      	ldrb	r3, [r7, #3]
 8008d34:	0159      	lsls	r1, r3, #5
 8008d36:	68bb      	ldr	r3, [r7, #8]
 8008d38:	440b      	add	r3, r1
 8008d3a:	f503 63a0 	add.w	r3, r3, #1280	; 0x500
 8008d3e:	4619      	mov	r1, r3
 8008d40:	68fb      	ldr	r3, [r7, #12]
 8008d42:	4313      	orrs	r3, r2
 8008d44:	600b      	str	r3, [r1, #0]
 8008d46:	f897 3024 	ldrb.w	r3, [r7, #36]	; 0x24
 8008d4a:	2b03      	cmp	r3, #3
 8008d4c:	d10f      	bne.n	8008d6e <USB_HC_Init+0x1d6>
 8008d4e:	78fb      	ldrb	r3, [r7, #3]
 8008d50:	015a      	lsls	r2, r3, #5
 8008d52:	68bb      	ldr	r3, [r7, #8]
 8008d54:	4413      	add	r3, r2
 8008d56:	f503 63a0 	add.w	r3, r3, #1280	; 0x500
 8008d5a:	681b      	ldr	r3, [r3, #0]
 8008d5c:	78fa      	ldrb	r2, [r7, #3]
 8008d5e:	0151      	lsls	r1, r2, #5
 8008d60:	68ba      	ldr	r2, [r7, #8]
 8008d62:	440a      	add	r2, r1
 8008d64:	f502 62a0 	add.w	r2, r2, #1280	; 0x500
 8008d68:	f043 5300 	orr.w	r3, r3, #536870912	; 0x20000000
 8008d6c:	6013      	str	r3, [r2, #0]
 8008d6e:	7dfb      	ldrb	r3, [r7, #23]
 8008d70:	4618      	mov	r0, r3
 8008d72:	371c      	adds	r7, #28
 8008d74:	46bd      	mov	sp, r7
 8008d76:	f85d 7b04 	ldr.w	r7, [sp], #4
 8008d7a:	4770      	bx	lr

08008d7c <USB_HC_StartXfer>:
 8008d7c:	b580      	push	{r7, lr}
 8008d7e:	b088      	sub	sp, #32
 8008d80:	af00      	add	r7, sp, #0
 8008d82:	6078      	str	r0, [r7, #4]
 8008d84:	6039      	str	r1, [r7, #0]
 8008d86:	687b      	ldr	r3, [r7, #4]
 8008d88:	61bb      	str	r3, [r7, #24]
 8008d8a:	683b      	ldr	r3, [r7, #0]
 8008d8c:	785b      	ldrb	r3, [r3, #1]
 8008d8e:	617b      	str	r3, [r7, #20]
 8008d90:	f44f 7380 	mov.w	r3, #256	; 0x100
 8008d94:	827b      	strh	r3, [r7, #18]
 8008d96:	683b      	ldr	r3, [r7, #0]
 8008d98:	691b      	ldr	r3, [r3, #16]
 8008d9a:	2b00      	cmp	r3, #0
 8008d9c:	d018      	beq.n	8008dd0 <USB_HC_StartXfer+0x54>
 8008d9e:	683b      	ldr	r3, [r7, #0]
 8008da0:	691b      	ldr	r3, [r3, #16]
 8008da2:	683a      	ldr	r2, [r7, #0]
 8008da4:	8912      	ldrh	r2, [r2, #8]
 8008da6:	4413      	add	r3, r2
 8008da8:	3b01      	subs	r3, #1
 8008daa:	683a      	ldr	r2, [r7, #0]
 8008dac:	8912      	ldrh	r2, [r2, #8]
 8008dae:	fbb3 f3f2 	udiv	r3, r3, r2
 8008db2:	83fb      	strh	r3, [r7, #30]
 8008db4:	8bfa      	ldrh	r2, [r7, #30]
 8008db6:	8a7b      	ldrh	r3, [r7, #18]
 8008db8:	429a      	cmp	r2, r3
 8008dba:	d90b      	bls.n	8008dd4 <USB_HC_StartXfer+0x58>
 8008dbc:	8a7b      	ldrh	r3, [r7, #18]
 8008dbe:	83fb      	strh	r3, [r7, #30]
 8008dc0:	8bfb      	ldrh	r3, [r7, #30]
 8008dc2:	683a      	ldr	r2, [r7, #0]
 8008dc4:	8912      	ldrh	r2, [r2, #8]
 8008dc6:	fb02 f203 	mul.w	r2, r2, r3
 8008dca:	683b      	ldr	r3, [r7, #0]
 8008dcc:	611a      	str	r2, [r3, #16]
 8008dce:	e001      	b.n	8008dd4 <USB_HC_StartXfer+0x58>
 8008dd0:	2301      	movs	r3, #1
 8008dd2:	83fb      	strh	r3, [r7, #30]
 8008dd4:	683b      	ldr	r3, [r7, #0]
 8008dd6:	78db      	ldrb	r3, [r3, #3]
 8008dd8:	2b00      	cmp	r3, #0
 8008dda:	d006      	beq.n	8008dea <USB_HC_StartXfer+0x6e>
 8008ddc:	8bfb      	ldrh	r3, [r7, #30]
 8008dde:	683a      	ldr	r2, [r7, #0]
 8008de0:	8912      	ldrh	r2, [r2, #8]
 8008de2:	fb02 f203 	mul.w	r2, r2, r3
 8008de6:	683b      	ldr	r3, [r7, #0]
 8008de8:	611a      	str	r2, [r3, #16]
 8008dea:	683b      	ldr	r3, [r7, #0]
 8008dec:	691b      	ldr	r3, [r3, #16]
 8008dee:	f3c3 0212 	ubfx	r2, r3, #0, #19
 8008df2:	8bfb      	ldrh	r3, [r7, #30]
 8008df4:	04d9      	lsls	r1, r3, #19
 8008df6:	4b5f      	ldr	r3, [pc, #380]	; (8008f74 <USB_HC_StartXfer+0x1f8>)
 8008df8:	400b      	ands	r3, r1
 8008dfa:	431a      	orrs	r2, r3
 8008dfc:	683b      	ldr	r3, [r7, #0]
 8008dfe:	7a9b      	ldrb	r3, [r3, #10]
 8008e00:	075b      	lsls	r3, r3, #29
 8008e02:	f003 43c0 	and.w	r3, r3, #1610612736	; 0x60000000
 8008e06:	6979      	ldr	r1, [r7, #20]
 8008e08:	0148      	lsls	r0, r1, #5
 8008e0a:	69b9      	ldr	r1, [r7, #24]
 8008e0c:	4401      	add	r1, r0
 8008e0e:	f501 61a0 	add.w	r1, r1, #1280	; 0x500
 8008e12:	4313      	orrs	r3, r2
 8008e14:	610b      	str	r3, [r1, #16]
 8008e16:	69bb      	ldr	r3, [r7, #24]
 8008e18:	f503 6380 	add.w	r3, r3, #1024	; 0x400
 8008e1c:	689b      	ldr	r3, [r3, #8]
 8008e1e:	f003 0301 	and.w	r3, r3, #1
 8008e22:	2b00      	cmp	r3, #0
 8008e24:	bf0c      	ite	eq
 8008e26:	2301      	moveq	r3, #1
 8008e28:	2300      	movne	r3, #0
 8008e2a:	b2db      	uxtb	r3, r3
 8008e2c:	747b      	strb	r3, [r7, #17]
 8008e2e:	697b      	ldr	r3, [r7, #20]
 8008e30:	015a      	lsls	r2, r3, #5
 8008e32:	69bb      	ldr	r3, [r7, #24]
 8008e34:	4413      	add	r3, r2
 8008e36:	f503 63a0 	add.w	r3, r3, #1280	; 0x500
 8008e3a:	681b      	ldr	r3, [r3, #0]
 8008e3c:	697a      	ldr	r2, [r7, #20]
 8008e3e:	0151      	lsls	r1, r2, #5
 8008e40:	69ba      	ldr	r2, [r7, #24]
 8008e42:	440a      	add	r2, r1
 8008e44:	f502 62a0 	add.w	r2, r2, #1280	; 0x500
 8008e48:	f023 5300 	bic.w	r3, r3, #536870912	; 0x20000000
 8008e4c:	6013      	str	r3, [r2, #0]
 8008e4e:	697b      	ldr	r3, [r7, #20]
 8008e50:	015a      	lsls	r2, r3, #5
 8008e52:	69bb      	ldr	r3, [r7, #24]
 8008e54:	4413      	add	r3, r2
 8008e56:	f503 63a0 	add.w	r3, r3, #1280	; 0x500
 8008e5a:	681a      	ldr	r2, [r3, #0]
 8008e5c:	7c7b      	ldrb	r3, [r7, #17]
 8008e5e:	075b      	lsls	r3, r3, #29
 8008e60:	6979      	ldr	r1, [r7, #20]
 8008e62:	0148      	lsls	r0, r1, #5
 8008e64:	69b9      	ldr	r1, [r7, #24]
 8008e66:	4401      	add	r1, r0
 8008e68:	f501 61a0 	add.w	r1, r1, #1280	; 0x500
 8008e6c:	4313      	orrs	r3, r2
 8008e6e:	600b      	str	r3, [r1, #0]
 8008e70:	697b      	ldr	r3, [r7, #20]
 8008e72:	015a      	lsls	r2, r3, #5
 8008e74:	69bb      	ldr	r3, [r7, #24]
 8008e76:	4413      	add	r3, r2
 8008e78:	f503 63a0 	add.w	r3, r3, #1280	; 0x500
 8008e7c:	681b      	ldr	r3, [r3, #0]
 8008e7e:	4a3e      	ldr	r2, [pc, #248]	; (8008f78 <USB_HC_StartXfer+0x1fc>)
 8008e80:	6013      	str	r3, [r2, #0]
 8008e82:	4b3d      	ldr	r3, [pc, #244]	; (8008f78 <USB_HC_StartXfer+0x1fc>)
 8008e84:	681b      	ldr	r3, [r3, #0]
 8008e86:	f023 4380 	bic.w	r3, r3, #1073741824	; 0x40000000
 8008e8a:	4a3b      	ldr	r2, [pc, #236]	; (8008f78 <USB_HC_StartXfer+0x1fc>)
 8008e8c:	6013      	str	r3, [r2, #0]
 8008e8e:	683b      	ldr	r3, [r7, #0]
 8008e90:	78db      	ldrb	r3, [r3, #3]
 8008e92:	2b00      	cmp	r3, #0
 8008e94:	d006      	beq.n	8008ea4 <USB_HC_StartXfer+0x128>
 8008e96:	4b38      	ldr	r3, [pc, #224]	; (8008f78 <USB_HC_StartXfer+0x1fc>)
 8008e98:	681b      	ldr	r3, [r3, #0]
 8008e9a:	f443 4300 	orr.w	r3, r3, #32768	; 0x8000
 8008e9e:	4a36      	ldr	r2, [pc, #216]	; (8008f78 <USB_HC_StartXfer+0x1fc>)
 8008ea0:	6013      	str	r3, [r2, #0]
 8008ea2:	e005      	b.n	8008eb0 <USB_HC_StartXfer+0x134>
 8008ea4:	4b34      	ldr	r3, [pc, #208]	; (8008f78 <USB_HC_StartXfer+0x1fc>)
 8008ea6:	681b      	ldr	r3, [r3, #0]
 8008ea8:	f423 4300 	bic.w	r3, r3, #32768	; 0x8000
 8008eac:	4a32      	ldr	r2, [pc, #200]	; (8008f78 <USB_HC_StartXfer+0x1fc>)
 8008eae:	6013      	str	r3, [r2, #0]
 8008eb0:	4b31      	ldr	r3, [pc, #196]	; (8008f78 <USB_HC_StartXfer+0x1fc>)
 8008eb2:	681b      	ldr	r3, [r3, #0]
 8008eb4:	f043 4300 	orr.w	r3, r3, #2147483648	; 0x80000000
 8008eb8:	4a2f      	ldr	r2, [pc, #188]	; (8008f78 <USB_HC_StartXfer+0x1fc>)
 8008eba:	6013      	str	r3, [r2, #0]
 8008ebc:	697b      	ldr	r3, [r7, #20]
 8008ebe:	015a      	lsls	r2, r3, #5
 8008ec0:	69bb      	ldr	r3, [r7, #24]
 8008ec2:	4413      	add	r3, r2
 8008ec4:	f503 63a0 	add.w	r3, r3, #1280	; 0x500
 8008ec8:	461a      	mov	r2, r3
 8008eca:	4b2b      	ldr	r3, [pc, #172]	; (8008f78 <USB_HC_StartXfer+0x1fc>)
 8008ecc:	681b      	ldr	r3, [r3, #0]
 8008ece:	6013      	str	r3, [r2, #0]
 8008ed0:	683b      	ldr	r3, [r7, #0]
 8008ed2:	78db      	ldrb	r3, [r3, #3]
 8008ed4:	2b00      	cmp	r3, #0
 8008ed6:	d148      	bne.n	8008f6a <USB_HC_StartXfer+0x1ee>
 8008ed8:	683b      	ldr	r3, [r7, #0]
 8008eda:	691b      	ldr	r3, [r3, #16]
 8008edc:	2b00      	cmp	r3, #0
 8008ede:	d044      	beq.n	8008f6a <USB_HC_StartXfer+0x1ee>
 8008ee0:	683b      	ldr	r3, [r7, #0]
 8008ee2:	79db      	ldrb	r3, [r3, #7]
 8008ee4:	2b03      	cmp	r3, #3
 8008ee6:	d831      	bhi.n	8008f4c <USB_HC_StartXfer+0x1d0>
 8008ee8:	a201      	add	r2, pc, #4	; (adr r2, 8008ef0 <USB_HC_StartXfer+0x174>)
 8008eea:	f852 f023 	ldr.w	pc, [r2, r3, lsl #2]
 8008eee:	bf00      	nop
 8008ef0:	08008f01 	.word	0x08008f01
 8008ef4:	08008f25 	.word	0x08008f25
 8008ef8:	08008f01 	.word	0x08008f01
 8008efc:	08008f25 	.word	0x08008f25
 8008f00:	683b      	ldr	r3, [r7, #0]
 8008f02:	691b      	ldr	r3, [r3, #16]
 8008f04:	3303      	adds	r3, #3
 8008f06:	089b      	lsrs	r3, r3, #2
 8008f08:	81fb      	strh	r3, [r7, #14]
 8008f0a:	89fa      	ldrh	r2, [r7, #14]
 8008f0c:	687b      	ldr	r3, [r7, #4]
 8008f0e:	6adb      	ldr	r3, [r3, #44]	; 0x2c
 8008f10:	b29b      	uxth	r3, r3
 8008f12:	429a      	cmp	r2, r3
 8008f14:	d91c      	bls.n	8008f50 <USB_HC_StartXfer+0x1d4>
 8008f16:	687b      	ldr	r3, [r7, #4]
 8008f18:	699b      	ldr	r3, [r3, #24]
 8008f1a:	f043 0220 	orr.w	r2, r3, #32
 8008f1e:	687b      	ldr	r3, [r7, #4]
 8008f20:	619a      	str	r2, [r3, #24]
 8008f22:	e015      	b.n	8008f50 <USB_HC_StartXfer+0x1d4>
 8008f24:	683b      	ldr	r3, [r7, #0]
 8008f26:	691b      	ldr	r3, [r3, #16]
 8008f28:	3303      	adds	r3, #3
 8008f2a:	089b      	lsrs	r3, r3, #2
 8008f2c:	81fb      	strh	r3, [r7, #14]
 8008f2e:	89fa      	ldrh	r2, [r7, #14]
 8008f30:	69bb      	ldr	r3, [r7, #24]
 8008f32:	f503 6380 	add.w	r3, r3, #1024	; 0x400
 8008f36:	691b      	ldr	r3, [r3, #16]
 8008f38:	b29b      	uxth	r3, r3
 8008f3a:	429a      	cmp	r2, r3
 8008f3c:	d90a      	bls.n	8008f54 <USB_HC_StartXfer+0x1d8>
 8008f3e:	687b      	ldr	r3, [r7, #4]
 8008f40:	699b      	ldr	r3, [r3, #24]
 8008f42:	f043 6280 	orr.w	r2, r3, #67108864	; 0x4000000
 8008f46:	687b      	ldr	r3, [r7, #4]
 8008f48:	619a      	str	r2, [r3, #24]
 8008f4a:	e003      	b.n	8008f54 <USB_HC_StartXfer+0x1d8>
 8008f4c:	bf00      	nop
 8008f4e:	e002      	b.n	8008f56 <USB_HC_StartXfer+0x1da>
 8008f50:	bf00      	nop
 8008f52:	e000      	b.n	8008f56 <USB_HC_StartXfer+0x1da>
 8008f54:	bf00      	nop
 8008f56:	683b      	ldr	r3, [r7, #0]
 8008f58:	68d9      	ldr	r1, [r3, #12]
 8008f5a:	683b      	ldr	r3, [r7, #0]
 8008f5c:	785a      	ldrb	r2, [r3, #1]
 8008f5e:	683b      	ldr	r3, [r7, #0]
 8008f60:	691b      	ldr	r3, [r3, #16]
 8008f62:	b29b      	uxth	r3, r3
 8008f64:	6878      	ldr	r0, [r7, #4]
 8008f66:	f7ff fc65 	bl	8008834 <USB_WritePacket>
 8008f6a:	2300      	movs	r3, #0
 8008f6c:	4618      	mov	r0, r3
 8008f6e:	3720      	adds	r7, #32
 8008f70:	46bd      	mov	sp, r7
 8008f72:	bd80      	pop	{r7, pc}
 8008f74:	1ff80000 	.word	0x1ff80000
 8008f78:	200000b8 	.word	0x200000b8

08008f7c <USB_HC_ReadInterrupt>:
 8008f7c:	b480      	push	{r7}
 8008f7e:	b085      	sub	sp, #20
 8008f80:	af00      	add	r7, sp, #0
 8008f82:	6078      	str	r0, [r7, #4]
 8008f84:	687b      	ldr	r3, [r7, #4]
 8008f86:	60fb      	str	r3, [r7, #12]
 8008f88:	68fb      	ldr	r3, [r7, #12]
 8008f8a:	f503 6380 	add.w	r3, r3, #1024	; 0x400
 8008f8e:	695b      	ldr	r3, [r3, #20]
 8008f90:	b29b      	uxth	r3, r3
 8008f92:	4618      	mov	r0, r3
 8008f94:	3714      	adds	r7, #20
 8008f96:	46bd      	mov	sp, r7
 8008f98:	f85d 7b04 	ldr.w	r7, [sp], #4
 8008f9c:	4770      	bx	lr

08008f9e <USB_HC_Halt>:
 8008f9e:	b480      	push	{r7}
 8008fa0:	b087      	sub	sp, #28
 8008fa2:	af00      	add	r7, sp, #0
 8008fa4:	6078      	str	r0, [r7, #4]
 8008fa6:	460b      	mov	r3, r1
 8008fa8:	70fb      	strb	r3, [r7, #3]
 8008faa:	687b      	ldr	r3, [r7, #4]
 8008fac:	613b      	str	r3, [r7, #16]
 8008fae:	78fb      	ldrb	r3, [r7, #3]
 8008fb0:	60fb      	str	r3, [r7, #12]
 8008fb2:	2300      	movs	r3, #0
 8008fb4:	617b      	str	r3, [r7, #20]
 8008fb6:	68fb      	ldr	r3, [r7, #12]
 8008fb8:	015a      	lsls	r2, r3, #5
 8008fba:	693b      	ldr	r3, [r7, #16]
 8008fbc:	4413      	add	r3, r2
 8008fbe:	f503 63a0 	add.w	r3, r3, #1280	; 0x500
 8008fc2:	681b      	ldr	r3, [r3, #0]
 8008fc4:	0c9b      	lsrs	r3, r3, #18
 8008fc6:	f003 0303 	and.w	r3, r3, #3
 8008fca:	60bb      	str	r3, [r7, #8]
 8008fcc:	68bb      	ldr	r3, [r7, #8]
 8008fce:	2b00      	cmp	r3, #0
 8008fd0:	d002      	beq.n	8008fd8 <USB_HC_Halt+0x3a>
 8008fd2:	68bb      	ldr	r3, [r7, #8]
 8008fd4:	2b02      	cmp	r3, #2
 8008fd6:	d16c      	bne.n	80090b2 <USB_HC_Halt+0x114>
 8008fd8:	68fb      	ldr	r3, [r7, #12]
 8008fda:	015a      	lsls	r2, r3, #5
 8008fdc:	693b      	ldr	r3, [r7, #16]
 8008fde:	4413      	add	r3, r2
 8008fe0:	f503 63a0 	add.w	r3, r3, #1280	; 0x500
 8008fe4:	681b      	ldr	r3, [r3, #0]
 8008fe6:	68fa      	ldr	r2, [r7, #12]
 8008fe8:	0151      	lsls	r1, r2, #5
 8008fea:	693a      	ldr	r2, [r7, #16]
 8008fec:	440a      	add	r2, r1
 8008fee:	f502 62a0 	add.w	r2, r2, #1280	; 0x500
 8008ff2:	f043 4380 	orr.w	r3, r3, #1073741824	; 0x40000000
 8008ff6:	6013      	str	r3, [r2, #0]
 8008ff8:	687b      	ldr	r3, [r7, #4]
 8008ffa:	6adb      	ldr	r3, [r3, #44]	; 0x2c
 8008ffc:	f403 037f 	and.w	r3, r3, #16711680	; 0xff0000
 8009000:	2b00      	cmp	r3, #0
 8009002:	d143      	bne.n	800908c <USB_HC_Halt+0xee>
 8009004:	68fb      	ldr	r3, [r7, #12]
 8009006:	015a      	lsls	r2, r3, #5
 8009008:	693b      	ldr	r3, [r7, #16]
 800900a:	4413      	add	r3, r2
 800900c:	f503 63a0 	add.w	r3, r3, #1280	; 0x500
 8009010:	681b      	ldr	r3, [r3, #0]
 8009012:	68fa      	ldr	r2, [r7, #12]
 8009014:	0151      	lsls	r1, r2, #5
 8009016:	693a      	ldr	r2, [r7, #16]
 8009018:	440a      	add	r2, r1
 800901a:	f502 62a0 	add.w	r2, r2, #1280	; 0x500
 800901e:	f023 4300 	bic.w	r3, r3, #2147483648	; 0x80000000
 8009022:	6013      	str	r3, [r2, #0]
 8009024:	68fb      	ldr	r3, [r7, #12]
 8009026:	015a      	lsls	r2, r3, #5
 8009028:	693b      	ldr	r3, [r7, #16]
 800902a:	4413      	add	r3, r2
 800902c:	f503 63a0 	add.w	r3, r3, #1280	; 0x500
 8009030:	681b      	ldr	r3, [r3, #0]
 8009032:	68fa      	ldr	r2, [r7, #12]
 8009034:	0151      	lsls	r1, r2, #5
 8009036:	693a      	ldr	r2, [r7, #16]
 8009038:	440a      	add	r2, r1
 800903a:	f502 62a0 	add.w	r2, r2, #1280	; 0x500
 800903e:	f043 4300 	orr.w	r3, r3, #2147483648	; 0x80000000
 8009042:	6013      	str	r3, [r2, #0]
 8009044:	68fb      	ldr	r3, [r7, #12]
 8009046:	015a      	lsls	r2, r3, #5
 8009048:	693b      	ldr	r3, [r7, #16]
 800904a:	4413      	add	r3, r2
 800904c:	f503 63a0 	add.w	r3, r3, #1280	; 0x500
 8009050:	681b      	ldr	r3, [r3, #0]
 8009052:	68fa      	ldr	r2, [r7, #12]
 8009054:	0151      	lsls	r1, r2, #5
 8009056:	693a      	ldr	r2, [r7, #16]
 8009058:	440a      	add	r2, r1
 800905a:	f502 62a0 	add.w	r2, r2, #1280	; 0x500
 800905e:	f423 4300 	bic.w	r3, r3, #32768	; 0x8000
 8009062:	6013      	str	r3, [r2, #0]
 8009064:	697b      	ldr	r3, [r7, #20]
 8009066:	3301      	adds	r3, #1
 8009068:	617b      	str	r3, [r7, #20]
 800906a:	697b      	ldr	r3, [r7, #20]
 800906c:	f5b3 7f7a 	cmp.w	r3, #1000	; 0x3e8
 8009070:	d81d      	bhi.n	80090ae <USB_HC_Halt+0x110>
 8009072:	68fb      	ldr	r3, [r7, #12]
 8009074:	015a      	lsls	r2, r3, #5
 8009076:	693b      	ldr	r3, [r7, #16]
 8009078:	4413      	add	r3, r2
 800907a:	f503 63a0 	add.w	r3, r3, #1280	; 0x500
 800907e:	681b      	ldr	r3, [r3, #0]
 8009080:	f003 4300 	and.w	r3, r3, #2147483648	; 0x80000000
 8009084:	f1b3 4f00 	cmp.w	r3, #2147483648	; 0x80000000
 8009088:	d0ec      	beq.n	8009064 <USB_HC_Halt+0xc6>
 800908a:	e080      	b.n	800918e <USB_HC_Halt+0x1f0>
 800908c:	68fb      	ldr	r3, [r7, #12]
 800908e:	015a      	lsls	r2, r3, #5
 8009090:	693b      	ldr	r3, [r7, #16]
 8009092:	4413      	add	r3, r2
 8009094:	f503 63a0 	add.w	r3, r3, #1280	; 0x500
 8009098:	681b      	ldr	r3, [r3, #0]
 800909a:	68fa      	ldr	r2, [r7, #12]
 800909c:	0151      	lsls	r1, r2, #5
 800909e:	693a      	ldr	r2, [r7, #16]
 80090a0:	440a      	add	r2, r1
 80090a2:	f502 62a0 	add.w	r2, r2, #1280	; 0x500
 80090a6:	f043 4300 	orr.w	r3, r3, #2147483648	; 0x80000000
 80090aa:	6013      	str	r3, [r2, #0]
 80090ac:	e06f      	b.n	800918e <USB_HC_Halt+0x1f0>
 80090ae:	bf00      	nop
 80090b0:	e06d      	b.n	800918e <USB_HC_Halt+0x1f0>
 80090b2:	68fb      	ldr	r3, [r7, #12]
 80090b4:	015a      	lsls	r2, r3, #5
 80090b6:	693b      	ldr	r3, [r7, #16]
 80090b8:	4413      	add	r3, r2
 80090ba:	f503 63a0 	add.w	r3, r3, #1280	; 0x500
 80090be:	681b      	ldr	r3, [r3, #0]
 80090c0:	68fa      	ldr	r2, [r7, #12]
 80090c2:	0151      	lsls	r1, r2, #5
 80090c4:	693a      	ldr	r2, [r7, #16]
 80090c6:	440a      	add	r2, r1
 80090c8:	f502 62a0 	add.w	r2, r2, #1280	; 0x500
 80090cc:	f043 4380 	orr.w	r3, r3, #1073741824	; 0x40000000
 80090d0:	6013      	str	r3, [r2, #0]
 80090d2:	693b      	ldr	r3, [r7, #16]
 80090d4:	f503 6380 	add.w	r3, r3, #1024	; 0x400
 80090d8:	691b      	ldr	r3, [r3, #16]
 80090da:	f403 037f 	and.w	r3, r3, #16711680	; 0xff0000
 80090de:	2b00      	cmp	r3, #0
 80090e0:	d143      	bne.n	800916a <USB_HC_Halt+0x1cc>
 80090e2:	68fb      	ldr	r3, [r7, #12]
 80090e4:	015a      	lsls	r2, r3, #5
 80090e6:	693b      	ldr	r3, [r7, #16]
 80090e8:	4413      	add	r3, r2
 80090ea:	f503 63a0 	add.w	r3, r3, #1280	; 0x500
 80090ee:	681b      	ldr	r3, [r3, #0]
 80090f0:	68fa      	ldr	r2, [r7, #12]
 80090f2:	0151      	lsls	r1, r2, #5
 80090f4:	693a      	ldr	r2, [r7, #16]
 80090f6:	440a      	add	r2, r1
 80090f8:	f502 62a0 	add.w	r2, r2, #1280	; 0x500
 80090fc:	f023 4300 	bic.w	r3, r3, #2147483648	; 0x80000000
 8009100:	6013      	str	r3, [r2, #0]
 8009102:	68fb      	ldr	r3, [r7, #12]
 8009104:	015a      	lsls	r2, r3, #5
 8009106:	693b      	ldr	r3, [r7, #16]
 8009108:	4413      	add	r3, r2
 800910a:	f503 63a0 	add.w	r3, r3, #1280	; 0x500
 800910e:	681b      	ldr	r3, [r3, #0]
 8009110:	68fa      	ldr	r2, [r7, #12]
 8009112:	0151      	lsls	r1, r2, #5
 8009114:	693a      	ldr	r2, [r7, #16]
 8009116:	440a      	add	r2, r1
 8009118:	f502 62a0 	add.w	r2, r2, #1280	; 0x500
 800911c:	f043 4300 	orr.w	r3, r3, #2147483648	; 0x80000000
 8009120:	6013      	str	r3, [r2, #0]
 8009122:	68fb      	ldr	r3, [r7, #12]
 8009124:	015a      	lsls	r2, r3, #5
 8009126:	693b      	ldr	r3, [r7, #16]
 8009128:	4413      	add	r3, r2
 800912a:	f503 63a0 	add.w	r3, r3, #1280	; 0x500
 800912e:	681b      	ldr	r3, [r3, #0]
 8009130:	68fa      	ldr	r2, [r7, #12]
 8009132:	0151      	lsls	r1, r2, #5
 8009134:	693a      	ldr	r2, [r7, #16]
 8009136:	440a      	add	r2, r1
 8009138:	f502 62a0 	add.w	r2, r2, #1280	; 0x500
 800913c:	f423 4300 	bic.w	r3, r3, #32768	; 0x8000
 8009140:	6013      	str	r3, [r2, #0]
 8009142:	697b      	ldr	r3, [r7, #20]
 8009144:	3301      	adds	r3, #1
 8009146:	617b      	str	r3, [r7, #20]
 8009148:	697b      	ldr	r3, [r7, #20]
 800914a:	f5b3 7f7a 	cmp.w	r3, #1000	; 0x3e8
 800914e:	d81d      	bhi.n	800918c <USB_HC_Halt+0x1ee>
 8009150:	68fb      	ldr	r3, [r7, #12]
 8009152:	015a      	lsls	r2, r3, #5
 8009154:	693b      	ldr	r3, [r7, #16]
 8009156:	4413      	add	r3, r2
 8009158:	f503 63a0 	add.w	r3, r3, #1280	; 0x500
 800915c:	681b      	ldr	r3, [r3, #0]
 800915e:	f003 4300 	and.w	r3, r3, #2147483648	; 0x80000000
 8009162:	f1b3 4f00 	cmp.w	r3, #2147483648	; 0x80000000
 8009166:	d0ec      	beq.n	8009142 <USB_HC_Halt+0x1a4>
 8009168:	e011      	b.n	800918e <USB_HC_Halt+0x1f0>
 800916a:	68fb      	ldr	r3, [r7, #12]
 800916c:	015a      	lsls	r2, r3, #5
 800916e:	693b      	ldr	r3, [r7, #16]
 8009170:	4413      	add	r3, r2
 8009172:	f503 63a0 	add.w	r3, r3, #1280	; 0x500
 8009176:	681b      	ldr	r3, [r3, #0]
 8009178:	68fa      	ldr	r2, [r7, #12]
 800917a:	0151      	lsls	r1, r2, #5
 800917c:	693a      	ldr	r2, [r7, #16]
 800917e:	440a      	add	r2, r1
 8009180:	f502 62a0 	add.w	r2, r2, #1280	; 0x500
 8009184:	f043 4300 	orr.w	r3, r3, #2147483648	; 0x80000000
 8009188:	6013      	str	r3, [r2, #0]
 800918a:	e000      	b.n	800918e <USB_HC_Halt+0x1f0>
 800918c:	bf00      	nop
 800918e:	2300      	movs	r3, #0
 8009190:	4618      	mov	r0, r3
 8009192:	371c      	adds	r7, #28
 8009194:	46bd      	mov	sp, r7
 8009196:	f85d 7b04 	ldr.w	r7, [sp], #4
 800919a:	4770      	bx	lr

0800919c <USB_StopHost>:
 800919c:	b580      	push	{r7, lr}
 800919e:	b086      	sub	sp, #24
 80091a0:	af00      	add	r7, sp, #0
 80091a2:	6078      	str	r0, [r7, #4]
 80091a4:	687b      	ldr	r3, [r7, #4]
 80091a6:	60fb      	str	r3, [r7, #12]
 80091a8:	2300      	movs	r3, #0
 80091aa:	617b      	str	r3, [r7, #20]
 80091ac:	6878      	ldr	r0, [r7, #4]
 80091ae:	f7ff fabd 	bl	800872c <USB_DisableGlobalInt>
 80091b2:	2110      	movs	r1, #16
 80091b4:	6878      	ldr	r0, [r7, #4]
 80091b6:	f7ff faf5 	bl	80087a4 <USB_FlushTxFifo>
 80091ba:	6878      	ldr	r0, [r7, #4]
 80091bc:	f7ff fb18 	bl	80087f0 <USB_FlushRxFifo>
 80091c0:	2300      	movs	r3, #0
 80091c2:	613b      	str	r3, [r7, #16]
 80091c4:	e01f      	b.n	8009206 <USB_StopHost+0x6a>
 80091c6:	693b      	ldr	r3, [r7, #16]
 80091c8:	015a      	lsls	r2, r3, #5
 80091ca:	68fb      	ldr	r3, [r7, #12]
 80091cc:	4413      	add	r3, r2
 80091ce:	f503 63a0 	add.w	r3, r3, #1280	; 0x500
 80091d2:	681b      	ldr	r3, [r3, #0]
 80091d4:	60bb      	str	r3, [r7, #8]
 80091d6:	68bb      	ldr	r3, [r7, #8]
 80091d8:	f043 4380 	orr.w	r3, r3, #1073741824	; 0x40000000
 80091dc:	60bb      	str	r3, [r7, #8]
 80091de:	68bb      	ldr	r3, [r7, #8]
 80091e0:	f023 4300 	bic.w	r3, r3, #2147483648	; 0x80000000
 80091e4:	60bb      	str	r3, [r7, #8]
 80091e6:	68bb      	ldr	r3, [r7, #8]
 80091e8:	f423 4300 	bic.w	r3, r3, #32768	; 0x8000
 80091ec:	60bb      	str	r3, [r7, #8]
 80091ee:	693b      	ldr	r3, [r7, #16]
 80091f0:	015a      	lsls	r2, r3, #5
 80091f2:	68fb      	ldr	r3, [r7, #12]
 80091f4:	4413      	add	r3, r2
 80091f6:	f503 63a0 	add.w	r3, r3, #1280	; 0x500
 80091fa:	461a      	mov	r2, r3
 80091fc:	68bb      	ldr	r3, [r7, #8]
 80091fe:	6013      	str	r3, [r2, #0]
 8009200:	693b      	ldr	r3, [r7, #16]
 8009202:	3301      	adds	r3, #1
 8009204:	613b      	str	r3, [r7, #16]
 8009206:	693b      	ldr	r3, [r7, #16]
 8009208:	2b0f      	cmp	r3, #15
 800920a:	d9dc      	bls.n	80091c6 <USB_StopHost+0x2a>
 800920c:	2300      	movs	r3, #0
 800920e:	613b      	str	r3, [r7, #16]
 8009210:	e034      	b.n	800927c <USB_StopHost+0xe0>
 8009212:	693b      	ldr	r3, [r7, #16]
 8009214:	015a      	lsls	r2, r3, #5
 8009216:	68fb      	ldr	r3, [r7, #12]
 8009218:	4413      	add	r3, r2
 800921a:	f503 63a0 	add.w	r3, r3, #1280	; 0x500
 800921e:	681b      	ldr	r3, [r3, #0]
 8009220:	60bb      	str	r3, [r7, #8]
 8009222:	68bb      	ldr	r3, [r7, #8]
 8009224:	f043 4380 	orr.w	r3, r3, #1073741824	; 0x40000000
 8009228:	60bb      	str	r3, [r7, #8]
 800922a:	68bb      	ldr	r3, [r7, #8]
 800922c:	f043 4300 	orr.w	r3, r3, #2147483648	; 0x80000000
 8009230:	60bb      	str	r3, [r7, #8]
 8009232:	68bb      	ldr	r3, [r7, #8]
 8009234:	f423 4300 	bic.w	r3, r3, #32768	; 0x8000
 8009238:	60bb      	str	r3, [r7, #8]
 800923a:	693b      	ldr	r3, [r7, #16]
 800923c:	015a      	lsls	r2, r3, #5
 800923e:	68fb      	ldr	r3, [r7, #12]
 8009240:	4413      	add	r3, r2
 8009242:	f503 63a0 	add.w	r3, r3, #1280	; 0x500
 8009246:	461a      	mov	r2, r3
 8009248:	68bb      	ldr	r3, [r7, #8]
 800924a:	6013      	str	r3, [r2, #0]
 800924c:	697b      	ldr	r3, [r7, #20]
 800924e:	3301      	adds	r3, #1
 8009250:	617b      	str	r3, [r7, #20]
 8009252:	697b      	ldr	r3, [r7, #20]
 8009254:	f5b3 7f7a 	cmp.w	r3, #1000	; 0x3e8
 8009258:	d80c      	bhi.n	8009274 <USB_StopHost+0xd8>
 800925a:	693b      	ldr	r3, [r7, #16]
 800925c:	015a      	lsls	r2, r3, #5
 800925e:	68fb      	ldr	r3, [r7, #12]
 8009260:	4413      	add	r3, r2
 8009262:	f503 63a0 	add.w	r3, r3, #1280	; 0x500
 8009266:	681b      	ldr	r3, [r3, #0]
 8009268:	f003 4300 	and.w	r3, r3, #2147483648	; 0x80000000
 800926c:	f1b3 4f00 	cmp.w	r3, #2147483648	; 0x80000000
 8009270:	d0ec      	beq.n	800924c <USB_StopHost+0xb0>
 8009272:	e000      	b.n	8009276 <USB_StopHost+0xda>
 8009274:	bf00      	nop
 8009276:	693b      	ldr	r3, [r7, #16]
 8009278:	3301      	adds	r3, #1
 800927a:	613b      	str	r3, [r7, #16]
 800927c:	693b      	ldr	r3, [r7, #16]
 800927e:	2b0f      	cmp	r3, #15
 8009280:	d9c7      	bls.n	8009212 <USB_StopHost+0x76>
 8009282:	68fb      	ldr	r3, [r7, #12]
 8009284:	f503 6380 	add.w	r3, r3, #1024	; 0x400
 8009288:	461a      	mov	r2, r3
 800928a:	f04f 33ff 	mov.w	r3, #4294967295
 800928e:	6153      	str	r3, [r2, #20]
 8009290:	687b      	ldr	r3, [r7, #4]
 8009292:	f04f 32ff 	mov.w	r2, #4294967295
 8009296:	615a      	str	r2, [r3, #20]
 8009298:	6878      	ldr	r0, [r7, #4]
 800929a:	f7ff fa36 	bl	800870a <USB_EnableGlobalInt>
 800929e:	2300      	movs	r3, #0
 80092a0:	4618      	mov	r0, r3
 80092a2:	3718      	adds	r7, #24
 80092a4:	46bd      	mov	sp, r7
 80092a6:	bd80      	pop	{r7, pc}

080092a8 <USBH_CDC_InterfaceInit>:
 80092a8:	b590      	push	{r4, r7, lr}
 80092aa:	b089      	sub	sp, #36	; 0x24
 80092ac:	af04      	add	r7, sp, #16
 80092ae:	6078      	str	r0, [r7, #4]
 80092b0:	2302      	movs	r3, #2
 80092b2:	73fb      	strb	r3, [r7, #15]
 80092b4:	2301      	movs	r3, #1
 80092b6:	2202      	movs	r2, #2
 80092b8:	2102      	movs	r1, #2
 80092ba:	6878      	ldr	r0, [r7, #4]
 80092bc:	f000 fc3a 	bl	8009b34 <USBH_FindInterface>
 80092c0:	4603      	mov	r3, r0
 80092c2:	73bb      	strb	r3, [r7, #14]
 80092c4:	7bbb      	ldrb	r3, [r7, #14]
 80092c6:	2bff      	cmp	r3, #255	; 0xff
 80092c8:	f000 812a 	beq.w	8009520 <USBH_CDC_InterfaceInit+0x278>
 80092cc:	7bbb      	ldrb	r3, [r7, #14]
 80092ce:	4619      	mov	r1, r3
 80092d0:	6878      	ldr	r0, [r7, #4]
 80092d2:	f000 fc13 	bl	8009afc <USBH_SelectInterface>
 80092d6:	687b      	ldr	r3, [r7, #4]
 80092d8:	f8d3 4378 	ldr.w	r4, [r3, #888]	; 0x378
 80092dc:	2050      	movs	r0, #80	; 0x50
 80092de:	f001 fb0d 	bl	800a8fc <malloc>
 80092e2:	4603      	mov	r3, r0
 80092e4:	61e3      	str	r3, [r4, #28]
 80092e6:	687b      	ldr	r3, [r7, #4]
 80092e8:	f8d3 3378 	ldr.w	r3, [r3, #888]	; 0x378
 80092ec:	69db      	ldr	r3, [r3, #28]
 80092ee:	60bb      	str	r3, [r7, #8]
 80092f0:	7bbb      	ldrb	r3, [r7, #14]
 80092f2:	687a      	ldr	r2, [r7, #4]
 80092f4:	211a      	movs	r1, #26
 80092f6:	fb01 f303 	mul.w	r3, r1, r3
 80092fa:	4413      	add	r3, r2
 80092fc:	f203 334a 	addw	r3, r3, #842	; 0x34a
 8009300:	781b      	ldrb	r3, [r3, #0]
 8009302:	b25b      	sxtb	r3, r3
 8009304:	2b00      	cmp	r3, #0
 8009306:	da15      	bge.n	8009334 <USBH_CDC_InterfaceInit+0x8c>
 8009308:	7bbb      	ldrb	r3, [r7, #14]
 800930a:	687a      	ldr	r2, [r7, #4]
 800930c:	211a      	movs	r1, #26
 800930e:	fb01 f303 	mul.w	r3, r1, r3
 8009312:	4413      	add	r3, r2
 8009314:	f203 334a 	addw	r3, r3, #842	; 0x34a
 8009318:	781a      	ldrb	r2, [r3, #0]
 800931a:	68bb      	ldr	r3, [r7, #8]
 800931c:	705a      	strb	r2, [r3, #1]
 800931e:	7bbb      	ldrb	r3, [r7, #14]
 8009320:	687a      	ldr	r2, [r7, #4]
 8009322:	211a      	movs	r1, #26
 8009324:	fb01 f303 	mul.w	r3, r1, r3
 8009328:	4413      	add	r3, r2
 800932a:	f503 7353 	add.w	r3, r3, #844	; 0x34c
 800932e:	881a      	ldrh	r2, [r3, #0]
 8009330:	68bb      	ldr	r3, [r7, #8]
 8009332:	815a      	strh	r2, [r3, #10]
 8009334:	68bb      	ldr	r3, [r7, #8]
 8009336:	785b      	ldrb	r3, [r3, #1]
 8009338:	4619      	mov	r1, r3
 800933a:	6878      	ldr	r0, [r7, #4]
 800933c:	f000 ff9f 	bl	800a27e <USBH_AllocPipe>
 8009340:	4603      	mov	r3, r0
 8009342:	461a      	mov	r2, r3
 8009344:	68bb      	ldr	r3, [r7, #8]
 8009346:	701a      	strb	r2, [r3, #0]
 8009348:	68bb      	ldr	r3, [r7, #8]
 800934a:	7819      	ldrb	r1, [r3, #0]
 800934c:	68bb      	ldr	r3, [r7, #8]
 800934e:	7858      	ldrb	r0, [r3, #1]
 8009350:	687b      	ldr	r3, [r7, #4]
 8009352:	f893 431c 	ldrb.w	r4, [r3, #796]	; 0x31c
 8009356:	687b      	ldr	r3, [r7, #4]
 8009358:	f893 331d 	ldrb.w	r3, [r3, #797]	; 0x31d
 800935c:	68ba      	ldr	r2, [r7, #8]
 800935e:	8952      	ldrh	r2, [r2, #10]
 8009360:	9202      	str	r2, [sp, #8]
 8009362:	2203      	movs	r2, #3
 8009364:	9201      	str	r2, [sp, #4]
 8009366:	9300      	str	r3, [sp, #0]
 8009368:	4623      	mov	r3, r4
 800936a:	4602      	mov	r2, r0
 800936c:	6878      	ldr	r0, [r7, #4]
 800936e:	f000 ff57 	bl	800a220 <USBH_OpenPipe>
 8009372:	68bb      	ldr	r3, [r7, #8]
 8009374:	781b      	ldrb	r3, [r3, #0]
 8009376:	2200      	movs	r2, #0
 8009378:	4619      	mov	r1, r3
 800937a:	6878      	ldr	r0, [r7, #4]
 800937c:	f001 fa18 	bl	800a7b0 <USBH_LL_SetToggle>
 8009380:	2300      	movs	r3, #0
 8009382:	2200      	movs	r2, #0
 8009384:	210a      	movs	r1, #10
 8009386:	6878      	ldr	r0, [r7, #4]
 8009388:	f000 fbd4 	bl	8009b34 <USBH_FindInterface>
 800938c:	4603      	mov	r3, r0
 800938e:	73bb      	strb	r3, [r7, #14]
 8009390:	7bbb      	ldrb	r3, [r7, #14]
 8009392:	2bff      	cmp	r3, #255	; 0xff
 8009394:	f000 80c4 	beq.w	8009520 <USBH_CDC_InterfaceInit+0x278>
 8009398:	7bbb      	ldrb	r3, [r7, #14]
 800939a:	687a      	ldr	r2, [r7, #4]
 800939c:	211a      	movs	r1, #26
 800939e:	fb01 f303 	mul.w	r3, r1, r3
 80093a2:	4413      	add	r3, r2
 80093a4:	f203 334a 	addw	r3, r3, #842	; 0x34a
 80093a8:	781b      	ldrb	r3, [r3, #0]
 80093aa:	b25b      	sxtb	r3, r3
 80093ac:	2b00      	cmp	r3, #0
 80093ae:	da16      	bge.n	80093de <USBH_CDC_InterfaceInit+0x136>
 80093b0:	7bbb      	ldrb	r3, [r7, #14]
 80093b2:	687a      	ldr	r2, [r7, #4]
 80093b4:	211a      	movs	r1, #26
 80093b6:	fb01 f303 	mul.w	r3, r1, r3
 80093ba:	4413      	add	r3, r2
 80093bc:	f203 334a 	addw	r3, r3, #842	; 0x34a
 80093c0:	781a      	ldrb	r2, [r3, #0]
 80093c2:	68bb      	ldr	r3, [r7, #8]
 80093c4:	73da      	strb	r2, [r3, #15]
 80093c6:	7bbb      	ldrb	r3, [r7, #14]
 80093c8:	687a      	ldr	r2, [r7, #4]
 80093ca:	211a      	movs	r1, #26
 80093cc:	fb01 f303 	mul.w	r3, r1, r3
 80093d0:	4413      	add	r3, r2
 80093d2:	f503 7353 	add.w	r3, r3, #844	; 0x34c
 80093d6:	881a      	ldrh	r2, [r3, #0]
 80093d8:	68bb      	ldr	r3, [r7, #8]
 80093da:	835a      	strh	r2, [r3, #26]
 80093dc:	e015      	b.n	800940a <USBH_CDC_InterfaceInit+0x162>
 80093de:	7bbb      	ldrb	r3, [r7, #14]
 80093e0:	687a      	ldr	r2, [r7, #4]
 80093e2:	211a      	movs	r1, #26
 80093e4:	fb01 f303 	mul.w	r3, r1, r3
 80093e8:	4413      	add	r3, r2
 80093ea:	f203 334a 	addw	r3, r3, #842	; 0x34a
 80093ee:	781a      	ldrb	r2, [r3, #0]
 80093f0:	68bb      	ldr	r3, [r7, #8]
 80093f2:	739a      	strb	r2, [r3, #14]
 80093f4:	7bbb      	ldrb	r3, [r7, #14]
 80093f6:	687a      	ldr	r2, [r7, #4]
 80093f8:	211a      	movs	r1, #26
 80093fa:	fb01 f303 	mul.w	r3, r1, r3
 80093fe:	4413      	add	r3, r2
 8009400:	f503 7353 	add.w	r3, r3, #844	; 0x34c
 8009404:	881a      	ldrh	r2, [r3, #0]
 8009406:	68bb      	ldr	r3, [r7, #8]
 8009408:	831a      	strh	r2, [r3, #24]
 800940a:	7bbb      	ldrb	r3, [r7, #14]
 800940c:	687a      	ldr	r2, [r7, #4]
 800940e:	211a      	movs	r1, #26
 8009410:	fb01 f303 	mul.w	r3, r1, r3
 8009414:	4413      	add	r3, r2
 8009416:	f203 3352 	addw	r3, r3, #850	; 0x352
 800941a:	781b      	ldrb	r3, [r3, #0]
 800941c:	b25b      	sxtb	r3, r3
 800941e:	2b00      	cmp	r3, #0
 8009420:	da16      	bge.n	8009450 <USBH_CDC_InterfaceInit+0x1a8>
 8009422:	7bbb      	ldrb	r3, [r7, #14]
 8009424:	687a      	ldr	r2, [r7, #4]
 8009426:	211a      	movs	r1, #26
 8009428:	fb01 f303 	mul.w	r3, r1, r3
 800942c:	4413      	add	r3, r2
 800942e:	f203 3352 	addw	r3, r3, #850	; 0x352
 8009432:	781a      	ldrb	r2, [r3, #0]
 8009434:	68bb      	ldr	r3, [r7, #8]
 8009436:	73da      	strb	r2, [r3, #15]
 8009438:	7bbb      	ldrb	r3, [r7, #14]
 800943a:	687a      	ldr	r2, [r7, #4]
 800943c:	211a      	movs	r1, #26
 800943e:	fb01 f303 	mul.w	r3, r1, r3
 8009442:	4413      	add	r3, r2
 8009444:	f503 7355 	add.w	r3, r3, #852	; 0x354
 8009448:	881a      	ldrh	r2, [r3, #0]
 800944a:	68bb      	ldr	r3, [r7, #8]
 800944c:	835a      	strh	r2, [r3, #26]
 800944e:	e015      	b.n	800947c <USBH_CDC_InterfaceInit+0x1d4>
 8009450:	7bbb      	ldrb	r3, [r7, #14]
 8009452:	687a      	ldr	r2, [r7, #4]
 8009454:	211a      	movs	r1, #26
 8009456:	fb01 f303 	mul.w	r3, r1, r3
 800945a:	4413      	add	r3, r2
 800945c:	f203 3352 	addw	r3, r3, #850	; 0x352
 8009460:	781a      	ldrb	r2, [r3, #0]
 8009462:	68bb      	ldr	r3, [r7, #8]
 8009464:	739a      	strb	r2, [r3, #14]
 8009466:	7bbb      	ldrb	r3, [r7, #14]
 8009468:	687a      	ldr	r2, [r7, #4]
 800946a:	211a      	movs	r1, #26
 800946c:	fb01 f303 	mul.w	r3, r1, r3
 8009470:	4413      	add	r3, r2
 8009472:	f503 7355 	add.w	r3, r3, #852	; 0x354
 8009476:	881a      	ldrh	r2, [r3, #0]
 8009478:	68bb      	ldr	r3, [r7, #8]
 800947a:	831a      	strh	r2, [r3, #24]
 800947c:	68bb      	ldr	r3, [r7, #8]
 800947e:	7b9b      	ldrb	r3, [r3, #14]
 8009480:	4619      	mov	r1, r3
 8009482:	6878      	ldr	r0, [r7, #4]
 8009484:	f000 fefb 	bl	800a27e <USBH_AllocPipe>
 8009488:	4603      	mov	r3, r0
 800948a:	461a      	mov	r2, r3
 800948c:	68bb      	ldr	r3, [r7, #8]
 800948e:	735a      	strb	r2, [r3, #13]
 8009490:	68bb      	ldr	r3, [r7, #8]
 8009492:	7bdb      	ldrb	r3, [r3, #15]
 8009494:	4619      	mov	r1, r3
 8009496:	6878      	ldr	r0, [r7, #4]
 8009498:	f000 fef1 	bl	800a27e <USBH_AllocPipe>
 800949c:	4603      	mov	r3, r0
 800949e:	461a      	mov	r2, r3
 80094a0:	68bb      	ldr	r3, [r7, #8]
 80094a2:	731a      	strb	r2, [r3, #12]
 80094a4:	68bb      	ldr	r3, [r7, #8]
 80094a6:	7b59      	ldrb	r1, [r3, #13]
 80094a8:	68bb      	ldr	r3, [r7, #8]
 80094aa:	7b98      	ldrb	r0, [r3, #14]
 80094ac:	687b      	ldr	r3, [r7, #4]
 80094ae:	f893 431c 	ldrb.w	r4, [r3, #796]	; 0x31c
 80094b2:	687b      	ldr	r3, [r7, #4]
 80094b4:	f893 331d 	ldrb.w	r3, [r3, #797]	; 0x31d
 80094b8:	68ba      	ldr	r2, [r7, #8]
 80094ba:	8b12      	ldrh	r2, [r2, #24]
 80094bc:	9202      	str	r2, [sp, #8]
 80094be:	2202      	movs	r2, #2
 80094c0:	9201      	str	r2, [sp, #4]
 80094c2:	9300      	str	r3, [sp, #0]
 80094c4:	4623      	mov	r3, r4
 80094c6:	4602      	mov	r2, r0
 80094c8:	6878      	ldr	r0, [r7, #4]
 80094ca:	f000 fea9 	bl	800a220 <USBH_OpenPipe>
 80094ce:	68bb      	ldr	r3, [r7, #8]
 80094d0:	7b19      	ldrb	r1, [r3, #12]
 80094d2:	68bb      	ldr	r3, [r7, #8]
 80094d4:	7bd8      	ldrb	r0, [r3, #15]
 80094d6:	687b      	ldr	r3, [r7, #4]
 80094d8:	f893 431c 	ldrb.w	r4, [r3, #796]	; 0x31c
 80094dc:	687b      	ldr	r3, [r7, #4]
 80094de:	f893 331d 	ldrb.w	r3, [r3, #797]	; 0x31d
 80094e2:	68ba      	ldr	r2, [r7, #8]
 80094e4:	8b52      	ldrh	r2, [r2, #26]
 80094e6:	9202      	str	r2, [sp, #8]
 80094e8:	2202      	movs	r2, #2
 80094ea:	9201      	str	r2, [sp, #4]
 80094ec:	9300      	str	r3, [sp, #0]
 80094ee:	4623      	mov	r3, r4
 80094f0:	4602      	mov	r2, r0
 80094f2:	6878      	ldr	r0, [r7, #4]
 80094f4:	f000 fe94 	bl	800a220 <USBH_OpenPipe>
 80094f8:	68bb      	ldr	r3, [r7, #8]
 80094fa:	2200      	movs	r2, #0
 80094fc:	f883 204c 	strb.w	r2, [r3, #76]	; 0x4c
 8009500:	68bb      	ldr	r3, [r7, #8]
 8009502:	7b5b      	ldrb	r3, [r3, #13]
 8009504:	2200      	movs	r2, #0
 8009506:	4619      	mov	r1, r3
 8009508:	6878      	ldr	r0, [r7, #4]
 800950a:	f001 f951 	bl	800a7b0 <USBH_LL_SetToggle>
 800950e:	68bb      	ldr	r3, [r7, #8]
 8009510:	7b1b      	ldrb	r3, [r3, #12]
 8009512:	2200      	movs	r2, #0
 8009514:	4619      	mov	r1, r3
 8009516:	6878      	ldr	r0, [r7, #4]
 8009518:	f001 f94a 	bl	800a7b0 <USBH_LL_SetToggle>
 800951c:	2300      	movs	r3, #0
 800951e:	73fb      	strb	r3, [r7, #15]
 8009520:	7bfb      	ldrb	r3, [r7, #15]
 8009522:	4618      	mov	r0, r3
 8009524:	3714      	adds	r7, #20
 8009526:	46bd      	mov	sp, r7
 8009528:	bd90      	pop	{r4, r7, pc}

0800952a <USBH_CDC_InterfaceDeInit>:
 800952a:	b580      	push	{r7, lr}
 800952c:	b084      	sub	sp, #16
 800952e:	af00      	add	r7, sp, #0
 8009530:	6078      	str	r0, [r7, #4]
 8009532:	687b      	ldr	r3, [r7, #4]
 8009534:	f8d3 3378 	ldr.w	r3, [r3, #888]	; 0x378
 8009538:	69db      	ldr	r3, [r3, #28]
 800953a:	60fb      	str	r3, [r7, #12]
 800953c:	68fb      	ldr	r3, [r7, #12]
 800953e:	781b      	ldrb	r3, [r3, #0]
 8009540:	2b00      	cmp	r3, #0
 8009542:	d00e      	beq.n	8009562 <USBH_CDC_InterfaceDeInit+0x38>
 8009544:	68fb      	ldr	r3, [r7, #12]
 8009546:	781b      	ldrb	r3, [r3, #0]
 8009548:	4619      	mov	r1, r3
 800954a:	6878      	ldr	r0, [r7, #4]
 800954c:	f000 fe87 	bl	800a25e <USBH_ClosePipe>
 8009550:	68fb      	ldr	r3, [r7, #12]
 8009552:	781b      	ldrb	r3, [r3, #0]
 8009554:	4619      	mov	r1, r3
 8009556:	6878      	ldr	r0, [r7, #4]
 8009558:	f000 feaf 	bl	800a2ba <USBH_FreePipe>
 800955c:	68fb      	ldr	r3, [r7, #12]
 800955e:	2200      	movs	r2, #0
 8009560:	701a      	strb	r2, [r3, #0]
 8009562:	68fb      	ldr	r3, [r7, #12]
 8009564:	7b1b      	ldrb	r3, [r3, #12]
 8009566:	2b00      	cmp	r3, #0
 8009568:	d00e      	beq.n	8009588 <USBH_CDC_InterfaceDeInit+0x5e>
 800956a:	68fb      	ldr	r3, [r7, #12]
 800956c:	7b1b      	ldrb	r3, [r3, #12]
 800956e:	4619      	mov	r1, r3
 8009570:	6878      	ldr	r0, [r7, #4]
 8009572:	f000 fe74 	bl	800a25e <USBH_ClosePipe>
 8009576:	68fb      	ldr	r3, [r7, #12]
 8009578:	7b1b      	ldrb	r3, [r3, #12]
 800957a:	4619      	mov	r1, r3
 800957c:	6878      	ldr	r0, [r7, #4]
 800957e:	f000 fe9c 	bl	800a2ba <USBH_FreePipe>
 8009582:	68fb      	ldr	r3, [r7, #12]
 8009584:	2200      	movs	r2, #0
 8009586:	731a      	strb	r2, [r3, #12]
 8009588:	68fb      	ldr	r3, [r7, #12]
 800958a:	7b5b      	ldrb	r3, [r3, #13]
 800958c:	2b00      	cmp	r3, #0
 800958e:	d00e      	beq.n	80095ae <USBH_CDC_InterfaceDeInit+0x84>
 8009590:	68fb      	ldr	r3, [r7, #12]
 8009592:	7b5b      	ldrb	r3, [r3, #13]
 8009594:	4619      	mov	r1, r3
 8009596:	6878      	ldr	r0, [r7, #4]
 8009598:	f000 fe61 	bl	800a25e <USBH_ClosePipe>
 800959c:	68fb      	ldr	r3, [r7, #12]
 800959e:	7b5b      	ldrb	r3, [r3, #13]
 80095a0:	4619      	mov	r1, r3
 80095a2:	6878      	ldr	r0, [r7, #4]
 80095a4:	f000 fe89 	bl	800a2ba <USBH_FreePipe>
 80095a8:	68fb      	ldr	r3, [r7, #12]
 80095aa:	2200      	movs	r2, #0
 80095ac:	735a      	strb	r2, [r3, #13]
 80095ae:	687b      	ldr	r3, [r7, #4]
 80095b0:	f8d3 3378 	ldr.w	r3, [r3, #888]	; 0x378
 80095b4:	69db      	ldr	r3, [r3, #28]
 80095b6:	2b00      	cmp	r3, #0
 80095b8:	d00b      	beq.n	80095d2 <USBH_CDC_InterfaceDeInit+0xa8>
 80095ba:	687b      	ldr	r3, [r7, #4]
 80095bc:	f8d3 3378 	ldr.w	r3, [r3, #888]	; 0x378
 80095c0:	69db      	ldr	r3, [r3, #28]
 80095c2:	4618      	mov	r0, r3
 80095c4:	f001 f9a2 	bl	800a90c <free>
 80095c8:	687b      	ldr	r3, [r7, #4]
 80095ca:	f8d3 3378 	ldr.w	r3, [r3, #888]	; 0x378
 80095ce:	2200      	movs	r2, #0
 80095d0:	61da      	str	r2, [r3, #28]
 80095d2:	2300      	movs	r3, #0
 80095d4:	4618      	mov	r0, r3
 80095d6:	3710      	adds	r7, #16
 80095d8:	46bd      	mov	sp, r7
 80095da:	bd80      	pop	{r7, pc}

080095dc <USBH_CDC_ClassRequest>:
 80095dc:	b580      	push	{r7, lr}
 80095de:	b084      	sub	sp, #16
 80095e0:	af00      	add	r7, sp, #0
 80095e2:	6078      	str	r0, [r7, #4]
 80095e4:	2302      	movs	r3, #2
 80095e6:	73fb      	strb	r3, [r7, #15]
 80095e8:	687b      	ldr	r3, [r7, #4]
 80095ea:	f8d3 3378 	ldr.w	r3, [r3, #888]	; 0x378
 80095ee:	69db      	ldr	r3, [r3, #28]
 80095f0:	60bb      	str	r3, [r7, #8]
 80095f2:	68bb      	ldr	r3, [r7, #8]
 80095f4:	3340      	adds	r3, #64	; 0x40
 80095f6:	4619      	mov	r1, r3
 80095f8:	6878      	ldr	r0, [r7, #4]
 80095fa:	f000 f8b2 	bl	8009762 <GetLineCoding>
 80095fe:	4603      	mov	r3, r0
 8009600:	73fb      	strb	r3, [r7, #15]
 8009602:	7bfb      	ldrb	r3, [r7, #15]
 8009604:	2b00      	cmp	r3, #0
 8009606:	d105      	bne.n	8009614 <USBH_CDC_ClassRequest+0x38>
 8009608:	687b      	ldr	r3, [r7, #4]
 800960a:	f8d3 33c8 	ldr.w	r3, [r3, #968]	; 0x3c8
 800960e:	2102      	movs	r1, #2
 8009610:	6878      	ldr	r0, [r7, #4]
 8009612:	4798      	blx	r3
 8009614:	7bfb      	ldrb	r3, [r7, #15]
 8009616:	4618      	mov	r0, r3
 8009618:	3710      	adds	r7, #16
 800961a:	46bd      	mov	sp, r7
 800961c:	bd80      	pop	{r7, pc}
	...

08009620 <USBH_CDC_Process>:
 8009620:	b580      	push	{r7, lr}
 8009622:	b084      	sub	sp, #16
 8009624:	af00      	add	r7, sp, #0
 8009626:	6078      	str	r0, [r7, #4]
 8009628:	2301      	movs	r3, #1
 800962a:	73fb      	strb	r3, [r7, #15]
 800962c:	2300      	movs	r3, #0
 800962e:	73bb      	strb	r3, [r7, #14]
 8009630:	687b      	ldr	r3, [r7, #4]
 8009632:	f8d3 3378 	ldr.w	r3, [r3, #888]	; 0x378
 8009636:	69db      	ldr	r3, [r3, #28]
 8009638:	60bb      	str	r3, [r7, #8]
 800963a:	68bb      	ldr	r3, [r7, #8]
 800963c:	f893 304c 	ldrb.w	r3, [r3, #76]	; 0x4c
 8009640:	2b04      	cmp	r3, #4
 8009642:	d877      	bhi.n	8009734 <USBH_CDC_Process+0x114>
 8009644:	a201      	add	r2, pc, #4	; (adr r2, 800964c <USBH_CDC_Process+0x2c>)
 8009646:	f852 f023 	ldr.w	pc, [r2, r3, lsl #2]
 800964a:	bf00      	nop
 800964c:	08009661 	.word	0x08009661
 8009650:	08009667 	.word	0x08009667
 8009654:	08009697 	.word	0x08009697
 8009658:	0800970b 	.word	0x0800970b
 800965c:	08009719 	.word	0x08009719
 8009660:	2300      	movs	r3, #0
 8009662:	73fb      	strb	r3, [r7, #15]
 8009664:	e06d      	b.n	8009742 <USBH_CDC_Process+0x122>
 8009666:	68bb      	ldr	r3, [r7, #8]
 8009668:	6c9b      	ldr	r3, [r3, #72]	; 0x48
 800966a:	4619      	mov	r1, r3
 800966c:	6878      	ldr	r0, [r7, #4]
 800966e:	f000 f897 	bl	80097a0 <SetLineCoding>
 8009672:	4603      	mov	r3, r0
 8009674:	73bb      	strb	r3, [r7, #14]
 8009676:	7bbb      	ldrb	r3, [r7, #14]
 8009678:	2b00      	cmp	r3, #0
 800967a:	d104      	bne.n	8009686 <USBH_CDC_Process+0x66>
 800967c:	68bb      	ldr	r3, [r7, #8]
 800967e:	2202      	movs	r2, #2
 8009680:	f883 204c 	strb.w	r2, [r3, #76]	; 0x4c
 8009684:	e058      	b.n	8009738 <USBH_CDC_Process+0x118>
 8009686:	7bbb      	ldrb	r3, [r7, #14]
 8009688:	2b01      	cmp	r3, #1
 800968a:	d055      	beq.n	8009738 <USBH_CDC_Process+0x118>
 800968c:	68bb      	ldr	r3, [r7, #8]
 800968e:	2204      	movs	r2, #4
 8009690:	f883 204c 	strb.w	r2, [r3, #76]	; 0x4c
 8009694:	e050      	b.n	8009738 <USBH_CDC_Process+0x118>
 8009696:	68bb      	ldr	r3, [r7, #8]
 8009698:	3340      	adds	r3, #64	; 0x40
 800969a:	4619      	mov	r1, r3
 800969c:	6878      	ldr	r0, [r7, #4]
 800969e:	f000 f860 	bl	8009762 <GetLineCoding>
 80096a2:	4603      	mov	r3, r0
 80096a4:	73bb      	strb	r3, [r7, #14]
 80096a6:	7bbb      	ldrb	r3, [r7, #14]
 80096a8:	2b00      	cmp	r3, #0
 80096aa:	d126      	bne.n	80096fa <USBH_CDC_Process+0xda>
 80096ac:	68bb      	ldr	r3, [r7, #8]
 80096ae:	2200      	movs	r2, #0
 80096b0:	f883 204c 	strb.w	r2, [r3, #76]	; 0x4c
 80096b4:	68bb      	ldr	r3, [r7, #8]
 80096b6:	f893 2044 	ldrb.w	r2, [r3, #68]	; 0x44
 80096ba:	68bb      	ldr	r3, [r7, #8]
 80096bc:	6c9b      	ldr	r3, [r3, #72]	; 0x48
 80096be:	791b      	ldrb	r3, [r3, #4]
 80096c0:	429a      	cmp	r2, r3
 80096c2:	d13b      	bne.n	800973c <USBH_CDC_Process+0x11c>
 80096c4:	68bb      	ldr	r3, [r7, #8]
 80096c6:	f893 2046 	ldrb.w	r2, [r3, #70]	; 0x46
 80096ca:	68bb      	ldr	r3, [r7, #8]
 80096cc:	6c9b      	ldr	r3, [r3, #72]	; 0x48
 80096ce:	799b      	ldrb	r3, [r3, #6]
 80096d0:	429a      	cmp	r2, r3
 80096d2:	d133      	bne.n	800973c <USBH_CDC_Process+0x11c>
 80096d4:	68bb      	ldr	r3, [r7, #8]
 80096d6:	f893 2045 	ldrb.w	r2, [r3, #69]	; 0x45
 80096da:	68bb      	ldr	r3, [r7, #8]
 80096dc:	6c9b      	ldr	r3, [r3, #72]	; 0x48
 80096de:	795b      	ldrb	r3, [r3, #5]
 80096e0:	429a      	cmp	r2, r3
 80096e2:	d12b      	bne.n	800973c <USBH_CDC_Process+0x11c>
 80096e4:	68bb      	ldr	r3, [r7, #8]
 80096e6:	6c1a      	ldr	r2, [r3, #64]	; 0x40
 80096e8:	68bb      	ldr	r3, [r7, #8]
 80096ea:	6c9b      	ldr	r3, [r3, #72]	; 0x48
 80096ec:	681b      	ldr	r3, [r3, #0]
 80096ee:	429a      	cmp	r2, r3
 80096f0:	d124      	bne.n	800973c <USBH_CDC_Process+0x11c>
 80096f2:	6878      	ldr	r0, [r7, #4]
 80096f4:	f000 f95a 	bl	80099ac <USBH_CDC_LineCodingChanged>
 80096f8:	e020      	b.n	800973c <USBH_CDC_Process+0x11c>
 80096fa:	7bbb      	ldrb	r3, [r7, #14]
 80096fc:	2b01      	cmp	r3, #1
 80096fe:	d01d      	beq.n	800973c <USBH_CDC_Process+0x11c>
 8009700:	68bb      	ldr	r3, [r7, #8]
 8009702:	2204      	movs	r2, #4
 8009704:	f883 204c 	strb.w	r2, [r3, #76]	; 0x4c
 8009708:	e018      	b.n	800973c <USBH_CDC_Process+0x11c>
 800970a:	6878      	ldr	r0, [r7, #4]
 800970c:	f000 f867 	bl	80097de <CDC_ProcessTransmission>
 8009710:	6878      	ldr	r0, [r7, #4]
 8009712:	f000 f8dc 	bl	80098ce <CDC_ProcessReception>
 8009716:	e014      	b.n	8009742 <USBH_CDC_Process+0x122>
 8009718:	2100      	movs	r1, #0
 800971a:	6878      	ldr	r0, [r7, #4]
 800971c:	f000 fb08 	bl	8009d30 <USBH_ClrFeature>
 8009720:	4603      	mov	r3, r0
 8009722:	73bb      	strb	r3, [r7, #14]
 8009724:	7bbb      	ldrb	r3, [r7, #14]
 8009726:	2b00      	cmp	r3, #0
 8009728:	d10a      	bne.n	8009740 <USBH_CDC_Process+0x120>
 800972a:	68bb      	ldr	r3, [r7, #8]
 800972c:	2200      	movs	r2, #0
 800972e:	f883 204c 	strb.w	r2, [r3, #76]	; 0x4c
 8009732:	e005      	b.n	8009740 <USBH_CDC_Process+0x120>
 8009734:	bf00      	nop
 8009736:	e004      	b.n	8009742 <USBH_CDC_Process+0x122>
 8009738:	bf00      	nop
 800973a:	e002      	b.n	8009742 <USBH_CDC_Process+0x122>
 800973c:	bf00      	nop
 800973e:	e000      	b.n	8009742 <USBH_CDC_Process+0x122>
 8009740:	bf00      	nop
 8009742:	7bfb      	ldrb	r3, [r7, #15]
 8009744:	4618      	mov	r0, r3
 8009746:	3710      	adds	r7, #16
 8009748:	46bd      	mov	sp, r7
 800974a:	bd80      	pop	{r7, pc}

0800974c <USBH_CDC_SOFProcess>:
 800974c:	b480      	push	{r7}
 800974e:	b083      	sub	sp, #12
 8009750:	af00      	add	r7, sp, #0
 8009752:	6078      	str	r0, [r7, #4]
 8009754:	2300      	movs	r3, #0
 8009756:	4618      	mov	r0, r3
 8009758:	370c      	adds	r7, #12
 800975a:	46bd      	mov	sp, r7
 800975c:	f85d 7b04 	ldr.w	r7, [sp], #4
 8009760:	4770      	bx	lr

08009762 <GetLineCoding>:
 8009762:	b580      	push	{r7, lr}
 8009764:	b082      	sub	sp, #8
 8009766:	af00      	add	r7, sp, #0
 8009768:	6078      	str	r0, [r7, #4]
 800976a:	6039      	str	r1, [r7, #0]
 800976c:	687b      	ldr	r3, [r7, #4]
 800976e:	22a1      	movs	r2, #161	; 0xa1
 8009770:	741a      	strb	r2, [r3, #16]
 8009772:	687b      	ldr	r3, [r7, #4]
 8009774:	2221      	movs	r2, #33	; 0x21
 8009776:	745a      	strb	r2, [r3, #17]
 8009778:	687b      	ldr	r3, [r7, #4]
 800977a:	2200      	movs	r2, #0
 800977c:	825a      	strh	r2, [r3, #18]
 800977e:	687b      	ldr	r3, [r7, #4]
 8009780:	2200      	movs	r2, #0
 8009782:	829a      	strh	r2, [r3, #20]
 8009784:	687b      	ldr	r3, [r7, #4]
 8009786:	2207      	movs	r2, #7
 8009788:	82da      	strh	r2, [r3, #22]
 800978a:	683b      	ldr	r3, [r7, #0]
 800978c:	2207      	movs	r2, #7
 800978e:	4619      	mov	r1, r3
 8009790:	6878      	ldr	r0, [r7, #4]
 8009792:	f000 faf1 	bl	8009d78 <USBH_CtlReq>
 8009796:	4603      	mov	r3, r0
 8009798:	4618      	mov	r0, r3
 800979a:	3708      	adds	r7, #8
 800979c:	46bd      	mov	sp, r7
 800979e:	bd80      	pop	{r7, pc}

080097a0 <SetLineCoding>:
 80097a0:	b580      	push	{r7, lr}
 80097a2:	b082      	sub	sp, #8
 80097a4:	af00      	add	r7, sp, #0
 80097a6:	6078      	str	r0, [r7, #4]
 80097a8:	6039      	str	r1, [r7, #0]
 80097aa:	687b      	ldr	r3, [r7, #4]
 80097ac:	2221      	movs	r2, #33	; 0x21
 80097ae:	741a      	strb	r2, [r3, #16]
 80097b0:	687b      	ldr	r3, [r7, #4]
 80097b2:	2220      	movs	r2, #32
 80097b4:	745a      	strb	r2, [r3, #17]
 80097b6:	687b      	ldr	r3, [r7, #4]
 80097b8:	2200      	movs	r2, #0
 80097ba:	825a      	strh	r2, [r3, #18]
 80097bc:	687b      	ldr	r3, [r7, #4]
 80097be:	2200      	movs	r2, #0
 80097c0:	829a      	strh	r2, [r3, #20]
 80097c2:	687b      	ldr	r3, [r7, #4]
 80097c4:	2207      	movs	r2, #7
 80097c6:	82da      	strh	r2, [r3, #22]
 80097c8:	683b      	ldr	r3, [r7, #0]
 80097ca:	2207      	movs	r2, #7
 80097cc:	4619      	mov	r1, r3
 80097ce:	6878      	ldr	r0, [r7, #4]
 80097d0:	f000 fad2 	bl	8009d78 <USBH_CtlReq>
 80097d4:	4603      	mov	r3, r0
 80097d6:	4618      	mov	r0, r3
 80097d8:	3708      	adds	r7, #8
 80097da:	46bd      	mov	sp, r7
 80097dc:	bd80      	pop	{r7, pc}

080097de <CDC_ProcessTransmission>:
 80097de:	b580      	push	{r7, lr}
 80097e0:	b086      	sub	sp, #24
 80097e2:	af02      	add	r7, sp, #8
 80097e4:	6078      	str	r0, [r7, #4]
 80097e6:	687b      	ldr	r3, [r7, #4]
 80097e8:	f8d3 3378 	ldr.w	r3, [r3, #888]	; 0x378
 80097ec:	69db      	ldr	r3, [r3, #28]
 80097ee:	60fb      	str	r3, [r7, #12]
 80097f0:	2300      	movs	r3, #0
 80097f2:	72fb      	strb	r3, [r7, #11]
 80097f4:	68fb      	ldr	r3, [r7, #12]
 80097f6:	f893 304d 	ldrb.w	r3, [r3, #77]	; 0x4d
 80097fa:	2b01      	cmp	r3, #1
 80097fc:	d002      	beq.n	8009804 <CDC_ProcessTransmission+0x26>
 80097fe:	2b02      	cmp	r3, #2
 8009800:	d025      	beq.n	800984e <CDC_ProcessTransmission+0x70>
 8009802:	e060      	b.n	80098c6 <CDC_ProcessTransmission+0xe8>
 8009804:	68fb      	ldr	r3, [r7, #12]
 8009806:	6a5b      	ldr	r3, [r3, #36]	; 0x24
 8009808:	68fa      	ldr	r2, [r7, #12]
 800980a:	8b12      	ldrh	r2, [r2, #24]
 800980c:	4293      	cmp	r3, r2
 800980e:	d90c      	bls.n	800982a <CDC_ProcessTransmission+0x4c>
 8009810:	68fb      	ldr	r3, [r7, #12]
 8009812:	69d9      	ldr	r1, [r3, #28]
 8009814:	68fb      	ldr	r3, [r7, #12]
 8009816:	8b1a      	ldrh	r2, [r3, #24]
 8009818:	68fb      	ldr	r3, [r7, #12]
 800981a:	7b58      	ldrb	r0, [r3, #13]
 800981c:	2301      	movs	r3, #1
 800981e:	9300      	str	r3, [sp, #0]
 8009820:	4603      	mov	r3, r0
 8009822:	6878      	ldr	r0, [r7, #4]
 8009824:	f000 fcb9 	bl	800a19a <USBH_BulkSendData>
 8009828:	e00c      	b.n	8009844 <CDC_ProcessTransmission+0x66>
 800982a:	68fb      	ldr	r3, [r7, #12]
 800982c:	69d9      	ldr	r1, [r3, #28]
 800982e:	68fb      	ldr	r3, [r7, #12]
 8009830:	6a5b      	ldr	r3, [r3, #36]	; 0x24
 8009832:	b29a      	uxth	r2, r3
 8009834:	68fb      	ldr	r3, [r7, #12]
 8009836:	7b58      	ldrb	r0, [r3, #13]
 8009838:	2301      	movs	r3, #1
 800983a:	9300      	str	r3, [sp, #0]
 800983c:	4603      	mov	r3, r0
 800983e:	6878      	ldr	r0, [r7, #4]
 8009840:	f000 fcab 	bl	800a19a <USBH_BulkSendData>
 8009844:	68fb      	ldr	r3, [r7, #12]
 8009846:	2202      	movs	r2, #2
 8009848:	f883 204d 	strb.w	r2, [r3, #77]	; 0x4d
 800984c:	e03b      	b.n	80098c6 <CDC_ProcessTransmission+0xe8>
 800984e:	68fb      	ldr	r3, [r7, #12]
 8009850:	7b5b      	ldrb	r3, [r3, #13]
 8009852:	4619      	mov	r1, r3
 8009854:	6878      	ldr	r0, [r7, #4]
 8009856:	f000 ff81 	bl	800a75c <USBH_LL_GetURBState>
 800985a:	4603      	mov	r3, r0
 800985c:	72fb      	strb	r3, [r7, #11]
 800985e:	7afb      	ldrb	r3, [r7, #11]
 8009860:	2b01      	cmp	r3, #1
 8009862:	d128      	bne.n	80098b6 <CDC_ProcessTransmission+0xd8>
 8009864:	68fb      	ldr	r3, [r7, #12]
 8009866:	6a5b      	ldr	r3, [r3, #36]	; 0x24
 8009868:	68fa      	ldr	r2, [r7, #12]
 800986a:	8b12      	ldrh	r2, [r2, #24]
 800986c:	4293      	cmp	r3, r2
 800986e:	d90e      	bls.n	800988e <CDC_ProcessTransmission+0xb0>
 8009870:	68fb      	ldr	r3, [r7, #12]
 8009872:	6a5b      	ldr	r3, [r3, #36]	; 0x24
 8009874:	68fa      	ldr	r2, [r7, #12]
 8009876:	8b12      	ldrh	r2, [r2, #24]
 8009878:	1a9a      	subs	r2, r3, r2
 800987a:	68fb      	ldr	r3, [r7, #12]
 800987c:	625a      	str	r2, [r3, #36]	; 0x24
 800987e:	68fb      	ldr	r3, [r7, #12]
 8009880:	69db      	ldr	r3, [r3, #28]
 8009882:	68fa      	ldr	r2, [r7, #12]
 8009884:	8b12      	ldrh	r2, [r2, #24]
 8009886:	441a      	add	r2, r3
 8009888:	68fb      	ldr	r3, [r7, #12]
 800988a:	61da      	str	r2, [r3, #28]
 800988c:	e002      	b.n	8009894 <CDC_ProcessTransmission+0xb6>
 800988e:	68fb      	ldr	r3, [r7, #12]
 8009890:	2200      	movs	r2, #0
 8009892:	625a      	str	r2, [r3, #36]	; 0x24
 8009894:	68fb      	ldr	r3, [r7, #12]
 8009896:	6a5b      	ldr	r3, [r3, #36]	; 0x24
 8009898:	2b00      	cmp	r3, #0
 800989a:	d004      	beq.n	80098a6 <CDC_ProcessTransmission+0xc8>
 800989c:	68fb      	ldr	r3, [r7, #12]
 800989e:	2201      	movs	r2, #1
 80098a0:	f883 204d 	strb.w	r2, [r3, #77]	; 0x4d
 80098a4:	e00e      	b.n	80098c4 <CDC_ProcessTransmission+0xe6>
 80098a6:	68fb      	ldr	r3, [r7, #12]
 80098a8:	2200      	movs	r2, #0
 80098aa:	f883 204d 	strb.w	r2, [r3, #77]	; 0x4d
 80098ae:	6878      	ldr	r0, [r7, #4]
 80098b0:	f000 f868 	bl	8009984 <USBH_CDC_TransmitCallback>
 80098b4:	e006      	b.n	80098c4 <CDC_ProcessTransmission+0xe6>
 80098b6:	7afb      	ldrb	r3, [r7, #11]
 80098b8:	2b02      	cmp	r3, #2
 80098ba:	d103      	bne.n	80098c4 <CDC_ProcessTransmission+0xe6>
 80098bc:	68fb      	ldr	r3, [r7, #12]
 80098be:	2201      	movs	r2, #1
 80098c0:	f883 204d 	strb.w	r2, [r3, #77]	; 0x4d
 80098c4:	bf00      	nop
 80098c6:	bf00      	nop
 80098c8:	3710      	adds	r7, #16
 80098ca:	46bd      	mov	sp, r7
 80098cc:	bd80      	pop	{r7, pc}

080098ce <CDC_ProcessReception>:
 80098ce:	b580      	push	{r7, lr}
 80098d0:	b086      	sub	sp, #24
 80098d2:	af00      	add	r7, sp, #0
 80098d4:	6078      	str	r0, [r7, #4]
 80098d6:	687b      	ldr	r3, [r7, #4]
 80098d8:	f8d3 3378 	ldr.w	r3, [r3, #888]	; 0x378
 80098dc:	69db      	ldr	r3, [r3, #28]
 80098de:	617b      	str	r3, [r7, #20]
 80098e0:	2300      	movs	r3, #0
 80098e2:	74fb      	strb	r3, [r7, #19]
 80098e4:	697b      	ldr	r3, [r7, #20]
 80098e6:	f893 304e 	ldrb.w	r3, [r3, #78]	; 0x4e
 80098ea:	2b03      	cmp	r3, #3
 80098ec:	d002      	beq.n	80098f4 <CDC_ProcessReception+0x26>
 80098ee:	2b04      	cmp	r3, #4
 80098f0:	d00e      	beq.n	8009910 <CDC_ProcessReception+0x42>
 80098f2:	e043      	b.n	800997c <CDC_ProcessReception+0xae>
 80098f4:	697b      	ldr	r3, [r7, #20]
 80098f6:	6a19      	ldr	r1, [r3, #32]
 80098f8:	697b      	ldr	r3, [r7, #20]
 80098fa:	8b5a      	ldrh	r2, [r3, #26]
 80098fc:	697b      	ldr	r3, [r7, #20]
 80098fe:	7b1b      	ldrb	r3, [r3, #12]
 8009900:	6878      	ldr	r0, [r7, #4]
 8009902:	f000 fc6f 	bl	800a1e4 <USBH_BulkReceiveData>
 8009906:	697b      	ldr	r3, [r7, #20]
 8009908:	2204      	movs	r2, #4
 800990a:	f883 204e 	strb.w	r2, [r3, #78]	; 0x4e
 800990e:	e035      	b.n	800997c <CDC_ProcessReception+0xae>
 8009910:	697b      	ldr	r3, [r7, #20]
 8009912:	7b1b      	ldrb	r3, [r3, #12]
 8009914:	4619      	mov	r1, r3
 8009916:	6878      	ldr	r0, [r7, #4]
 8009918:	f000 ff20 	bl	800a75c <USBH_LL_GetURBState>
 800991c:	4603      	mov	r3, r0
 800991e:	74fb      	strb	r3, [r7, #19]
 8009920:	7cfb      	ldrb	r3, [r7, #19]
 8009922:	2b01      	cmp	r3, #1
 8009924:	d129      	bne.n	800997a <CDC_ProcessReception+0xac>
 8009926:	697b      	ldr	r3, [r7, #20]
 8009928:	7b1b      	ldrb	r3, [r3, #12]
 800992a:	4619      	mov	r1, r3
 800992c:	6878      	ldr	r0, [r7, #4]
 800992e:	f000 fe83 	bl	800a638 <USBH_LL_GetLastXferSize>
 8009932:	60f8      	str	r0, [r7, #12]
 8009934:	697b      	ldr	r3, [r7, #20]
 8009936:	6a9b      	ldr	r3, [r3, #40]	; 0x28
 8009938:	68fa      	ldr	r2, [r7, #12]
 800993a:	429a      	cmp	r2, r3
 800993c:	d016      	beq.n	800996c <CDC_ProcessReception+0x9e>
 800993e:	697b      	ldr	r3, [r7, #20]
 8009940:	8b5b      	ldrh	r3, [r3, #26]
 8009942:	461a      	mov	r2, r3
 8009944:	68fb      	ldr	r3, [r7, #12]
 8009946:	4293      	cmp	r3, r2
 8009948:	d910      	bls.n	800996c <CDC_ProcessReception+0x9e>
 800994a:	697b      	ldr	r3, [r7, #20]
 800994c:	6a9a      	ldr	r2, [r3, #40]	; 0x28
 800994e:	68fb      	ldr	r3, [r7, #12]
 8009950:	1ad2      	subs	r2, r2, r3
 8009952:	697b      	ldr	r3, [r7, #20]
 8009954:	629a      	str	r2, [r3, #40]	; 0x28
 8009956:	697b      	ldr	r3, [r7, #20]
 8009958:	6a1a      	ldr	r2, [r3, #32]
 800995a:	68fb      	ldr	r3, [r7, #12]
 800995c:	441a      	add	r2, r3
 800995e:	697b      	ldr	r3, [r7, #20]
 8009960:	621a      	str	r2, [r3, #32]
 8009962:	697b      	ldr	r3, [r7, #20]
 8009964:	2203      	movs	r2, #3
 8009966:	f883 204e 	strb.w	r2, [r3, #78]	; 0x4e
 800996a:	e006      	b.n	800997a <CDC_ProcessReception+0xac>
 800996c:	697b      	ldr	r3, [r7, #20]
 800996e:	2200      	movs	r2, #0
 8009970:	f883 204e 	strb.w	r2, [r3, #78]	; 0x4e
 8009974:	6878      	ldr	r0, [r7, #4]
 8009976:	f000 f80f 	bl	8009998 <USBH_CDC_ReceiveCallback>
 800997a:	bf00      	nop
 800997c:	bf00      	nop
 800997e:	3718      	adds	r7, #24
 8009980:	46bd      	mov	sp, r7
 8009982:	bd80      	pop	{r7, pc}

08009984 <USBH_CDC_TransmitCallback>:
 8009984:	b480      	push	{r7}
 8009986:	b083      	sub	sp, #12
 8009988:	af00      	add	r7, sp, #0
 800998a:	6078      	str	r0, [r7, #4]
 800998c:	bf00      	nop
 800998e:	370c      	adds	r7, #12
 8009990:	46bd      	mov	sp, r7
 8009992:	f85d 7b04 	ldr.w	r7, [sp], #4
 8009996:	4770      	bx	lr

08009998 <USBH_CDC_ReceiveCallback>:
 8009998:	b480      	push	{r7}
 800999a:	b083      	sub	sp, #12
 800999c:	af00      	add	r7, sp, #0
 800999e:	6078      	str	r0, [r7, #4]
 80099a0:	bf00      	nop
 80099a2:	370c      	adds	r7, #12
 80099a4:	46bd      	mov	sp, r7
 80099a6:	f85d 7b04 	ldr.w	r7, [sp], #4
 80099aa:	4770      	bx	lr

080099ac <USBH_CDC_LineCodingChanged>:
 80099ac:	b480      	push	{r7}
 80099ae:	b083      	sub	sp, #12
 80099b0:	af00      	add	r7, sp, #0
 80099b2:	6078      	str	r0, [r7, #4]
 80099b4:	bf00      	nop
 80099b6:	370c      	adds	r7, #12
 80099b8:	46bd      	mov	sp, r7
 80099ba:	f85d 7b04 	ldr.w	r7, [sp], #4
 80099be:	4770      	bx	lr

080099c0 <USBH_Init>:
 80099c0:	b580      	push	{r7, lr}
 80099c2:	b084      	sub	sp, #16
 80099c4:	af00      	add	r7, sp, #0
 80099c6:	60f8      	str	r0, [r7, #12]
 80099c8:	60b9      	str	r1, [r7, #8]
 80099ca:	4613      	mov	r3, r2
 80099cc:	71fb      	strb	r3, [r7, #7]
 80099ce:	68fb      	ldr	r3, [r7, #12]
 80099d0:	2b00      	cmp	r3, #0
 80099d2:	d101      	bne.n	80099d8 <USBH_Init+0x18>
 80099d4:	2302      	movs	r3, #2
 80099d6:	e019      	b.n	8009a0c <USBH_Init+0x4c>
 80099d8:	68fb      	ldr	r3, [r7, #12]
 80099da:	79fa      	ldrb	r2, [r7, #7]
 80099dc:	f883 23c0 	strb.w	r2, [r3, #960]	; 0x3c0
 80099e0:	68fb      	ldr	r3, [r7, #12]
 80099e2:	2200      	movs	r2, #0
 80099e4:	f8c3 2378 	str.w	r2, [r3, #888]	; 0x378
 80099e8:	68fb      	ldr	r3, [r7, #12]
 80099ea:	2200      	movs	r2, #0
 80099ec:	f8c3 237c 	str.w	r2, [r3, #892]	; 0x37c
 80099f0:	68f8      	ldr	r0, [r7, #12]
 80099f2:	f000 f80f 	bl	8009a14 <DeInitStateMachine>
 80099f6:	68bb      	ldr	r3, [r7, #8]
 80099f8:	2b00      	cmp	r3, #0
 80099fa:	d003      	beq.n	8009a04 <USBH_Init+0x44>
 80099fc:	68fb      	ldr	r3, [r7, #12]
 80099fe:	68ba      	ldr	r2, [r7, #8]
 8009a00:	f8c3 23c8 	str.w	r2, [r3, #968]	; 0x3c8
 8009a04:	68f8      	ldr	r0, [r7, #12]
 8009a06:	f000 fda5 	bl	800a554 <USBH_LL_Init>
 8009a0a:	2300      	movs	r3, #0
 8009a0c:	4618      	mov	r0, r3
 8009a0e:	3710      	adds	r7, #16
 8009a10:	46bd      	mov	sp, r7
 8009a12:	bd80      	pop	{r7, pc}

08009a14 <DeInitStateMachine>:
 8009a14:	b480      	push	{r7}
 8009a16:	b085      	sub	sp, #20
 8009a18:	af00      	add	r7, sp, #0
 8009a1a:	6078      	str	r0, [r7, #4]
 8009a1c:	2300      	movs	r3, #0
 8009a1e:	60fb      	str	r3, [r7, #12]
 8009a20:	e008      	b.n	8009a34 <DeInitStateMachine+0x20>
 8009a22:	687b      	ldr	r3, [r7, #4]
 8009a24:	68fa      	ldr	r2, [r7, #12]
 8009a26:	32e0      	adds	r2, #224	; 0xe0
 8009a28:	2100      	movs	r1, #0
 8009a2a:	f843 1022 	str.w	r1, [r3, r2, lsl #2]
 8009a2e:	68fb      	ldr	r3, [r7, #12]
 8009a30:	3301      	adds	r3, #1
 8009a32:	60fb      	str	r3, [r7, #12]
 8009a34:	68fb      	ldr	r3, [r7, #12]
 8009a36:	2b0e      	cmp	r3, #14
 8009a38:	d9f3      	bls.n	8009a22 <DeInitStateMachine+0xe>
 8009a3a:	2300      	movs	r3, #0
 8009a3c:	60fb      	str	r3, [r7, #12]
 8009a3e:	e009      	b.n	8009a54 <DeInitStateMachine+0x40>
 8009a40:	687a      	ldr	r2, [r7, #4]
 8009a42:	68fb      	ldr	r3, [r7, #12]
 8009a44:	4413      	add	r3, r2
 8009a46:	f503 738e 	add.w	r3, r3, #284	; 0x11c
 8009a4a:	2200      	movs	r2, #0
 8009a4c:	701a      	strb	r2, [r3, #0]
 8009a4e:	68fb      	ldr	r3, [r7, #12]
 8009a50:	3301      	adds	r3, #1
 8009a52:	60fb      	str	r3, [r7, #12]
 8009a54:	68fb      	ldr	r3, [r7, #12]
 8009a56:	f5b3 7f00 	cmp.w	r3, #512	; 0x200
 8009a5a:	d3f1      	bcc.n	8009a40 <DeInitStateMachine+0x2c>
 8009a5c:	687b      	ldr	r3, [r7, #4]
 8009a5e:	2200      	movs	r2, #0
 8009a60:	701a      	strb	r2, [r3, #0]
 8009a62:	687b      	ldr	r3, [r7, #4]
 8009a64:	2200      	movs	r2, #0
 8009a66:	705a      	strb	r2, [r3, #1]
 8009a68:	687b      	ldr	r3, [r7, #4]
 8009a6a:	2201      	movs	r2, #1
 8009a6c:	709a      	strb	r2, [r3, #2]
 8009a6e:	687b      	ldr	r3, [r7, #4]
 8009a70:	2200      	movs	r2, #0
 8009a72:	f8c3 23bc 	str.w	r2, [r3, #956]	; 0x3bc
 8009a76:	687b      	ldr	r3, [r7, #4]
 8009a78:	2201      	movs	r2, #1
 8009a7a:	761a      	strb	r2, [r3, #24]
 8009a7c:	687b      	ldr	r3, [r7, #4]
 8009a7e:	2240      	movs	r2, #64	; 0x40
 8009a80:	719a      	strb	r2, [r3, #6]
 8009a82:	687b      	ldr	r3, [r7, #4]
 8009a84:	2200      	movs	r2, #0
 8009a86:	765a      	strb	r2, [r3, #25]
 8009a88:	687b      	ldr	r3, [r7, #4]
 8009a8a:	2200      	movs	r2, #0
 8009a8c:	f883 231c 	strb.w	r2, [r3, #796]	; 0x31c
 8009a90:	687b      	ldr	r3, [r7, #4]
 8009a92:	2201      	movs	r2, #1
 8009a94:	f883 231d 	strb.w	r2, [r3, #797]	; 0x31d
 8009a98:	2300      	movs	r3, #0
 8009a9a:	4618      	mov	r0, r3
 8009a9c:	3714      	adds	r7, #20
 8009a9e:	46bd      	mov	sp, r7
 8009aa0:	f85d 7b04 	ldr.w	r7, [sp], #4
 8009aa4:	4770      	bx	lr

08009aa6 <USBH_RegisterClass>:
 8009aa6:	b480      	push	{r7}
 8009aa8:	b085      	sub	sp, #20
 8009aaa:	af00      	add	r7, sp, #0
 8009aac:	6078      	str	r0, [r7, #4]
 8009aae:	6039      	str	r1, [r7, #0]
 8009ab0:	2300      	movs	r3, #0
 8009ab2:	73fb      	strb	r3, [r7, #15]
 8009ab4:	683b      	ldr	r3, [r7, #0]
 8009ab6:	2b00      	cmp	r3, #0
 8009ab8:	d017      	beq.n	8009aea <USBH_RegisterClass+0x44>
 8009aba:	687b      	ldr	r3, [r7, #4]
 8009abc:	f8d3 337c 	ldr.w	r3, [r3, #892]	; 0x37c
 8009ac0:	2b00      	cmp	r3, #0
 8009ac2:	d10f      	bne.n	8009ae4 <USBH_RegisterClass+0x3e>
 8009ac4:	687b      	ldr	r3, [r7, #4]
 8009ac6:	f8d3 337c 	ldr.w	r3, [r3, #892]	; 0x37c
 8009aca:	1c59      	adds	r1, r3, #1
 8009acc:	687a      	ldr	r2, [r7, #4]
 8009ace:	f8c2 137c 	str.w	r1, [r2, #892]	; 0x37c
 8009ad2:	687a      	ldr	r2, [r7, #4]
 8009ad4:	33dc      	adds	r3, #220	; 0xdc
 8009ad6:	009b      	lsls	r3, r3, #2
 8009ad8:	4413      	add	r3, r2
 8009ada:	683a      	ldr	r2, [r7, #0]
 8009adc:	605a      	str	r2, [r3, #4]
 8009ade:	2300      	movs	r3, #0
 8009ae0:	73fb      	strb	r3, [r7, #15]
 8009ae2:	e004      	b.n	8009aee <USBH_RegisterClass+0x48>
 8009ae4:	2302      	movs	r3, #2
 8009ae6:	73fb      	strb	r3, [r7, #15]
 8009ae8:	e001      	b.n	8009aee <USBH_RegisterClass+0x48>
 8009aea:	2302      	movs	r3, #2
 8009aec:	73fb      	strb	r3, [r7, #15]
 8009aee:	7bfb      	ldrb	r3, [r7, #15]
 8009af0:	4618      	mov	r0, r3
 8009af2:	3714      	adds	r7, #20
 8009af4:	46bd      	mov	sp, r7
 8009af6:	f85d 7b04 	ldr.w	r7, [sp], #4
 8009afa:	4770      	bx	lr

08009afc <USBH_SelectInterface>:
 8009afc:	b480      	push	{r7}
 8009afe:	b085      	sub	sp, #20
 8009b00:	af00      	add	r7, sp, #0
 8009b02:	6078      	str	r0, [r7, #4]
 8009b04:	460b      	mov	r3, r1
 8009b06:	70fb      	strb	r3, [r7, #3]
 8009b08:	2300      	movs	r3, #0
 8009b0a:	73fb      	strb	r3, [r7, #15]
 8009b0c:	687b      	ldr	r3, [r7, #4]
 8009b0e:	f893 3338 	ldrb.w	r3, [r3, #824]	; 0x338
 8009b12:	78fa      	ldrb	r2, [r7, #3]
 8009b14:	429a      	cmp	r2, r3
 8009b16:	d204      	bcs.n	8009b22 <USBH_SelectInterface+0x26>
 8009b18:	687b      	ldr	r3, [r7, #4]
 8009b1a:	78fa      	ldrb	r2, [r7, #3]
 8009b1c:	f883 2320 	strb.w	r2, [r3, #800]	; 0x320
 8009b20:	e001      	b.n	8009b26 <USBH_SelectInterface+0x2a>
 8009b22:	2302      	movs	r3, #2
 8009b24:	73fb      	strb	r3, [r7, #15]
 8009b26:	7bfb      	ldrb	r3, [r7, #15]
 8009b28:	4618      	mov	r0, r3
 8009b2a:	3714      	adds	r7, #20
 8009b2c:	46bd      	mov	sp, r7
 8009b2e:	f85d 7b04 	ldr.w	r7, [sp], #4
 8009b32:	4770      	bx	lr

08009b34 <USBH_FindInterface>:
 8009b34:	b480      	push	{r7}
 8009b36:	b087      	sub	sp, #28
 8009b38:	af00      	add	r7, sp, #0
 8009b3a:	6078      	str	r0, [r7, #4]
 8009b3c:	4608      	mov	r0, r1
 8009b3e:	4611      	mov	r1, r2
 8009b40:	461a      	mov	r2, r3
 8009b42:	4603      	mov	r3, r0
 8009b44:	70fb      	strb	r3, [r7, #3]
 8009b46:	460b      	mov	r3, r1
 8009b48:	70bb      	strb	r3, [r7, #2]
 8009b4a:	4613      	mov	r3, r2
 8009b4c:	707b      	strb	r3, [r7, #1]
 8009b4e:	2300      	movs	r3, #0
 8009b50:	75fb      	strb	r3, [r7, #23]
 8009b52:	2300      	movs	r3, #0
 8009b54:	613b      	str	r3, [r7, #16]
 8009b56:	687b      	ldr	r3, [r7, #4]
 8009b58:	f503 734d 	add.w	r3, r3, #820	; 0x334
 8009b5c:	60fb      	str	r3, [r7, #12]
 8009b5e:	e025      	b.n	8009bac <USBH_FindInterface+0x78>
 8009b60:	7dfb      	ldrb	r3, [r7, #23]
 8009b62:	221a      	movs	r2, #26
 8009b64:	fb02 f303 	mul.w	r3, r2, r3
 8009b68:	3308      	adds	r3, #8
 8009b6a:	68fa      	ldr	r2, [r7, #12]
 8009b6c:	4413      	add	r3, r2
 8009b6e:	3302      	adds	r3, #2
 8009b70:	613b      	str	r3, [r7, #16]
 8009b72:	693b      	ldr	r3, [r7, #16]
 8009b74:	795b      	ldrb	r3, [r3, #5]
 8009b76:	78fa      	ldrb	r2, [r7, #3]
 8009b78:	429a      	cmp	r2, r3
 8009b7a:	d002      	beq.n	8009b82 <USBH_FindInterface+0x4e>
 8009b7c:	78fb      	ldrb	r3, [r7, #3]
 8009b7e:	2bff      	cmp	r3, #255	; 0xff
 8009b80:	d111      	bne.n	8009ba6 <USBH_FindInterface+0x72>
 8009b82:	693b      	ldr	r3, [r7, #16]
 8009b84:	799b      	ldrb	r3, [r3, #6]
 8009b86:	78ba      	ldrb	r2, [r7, #2]
 8009b88:	429a      	cmp	r2, r3
 8009b8a:	d002      	beq.n	8009b92 <USBH_FindInterface+0x5e>
 8009b8c:	78bb      	ldrb	r3, [r7, #2]
 8009b8e:	2bff      	cmp	r3, #255	; 0xff
 8009b90:	d109      	bne.n	8009ba6 <USBH_FindInterface+0x72>
 8009b92:	693b      	ldr	r3, [r7, #16]
 8009b94:	79db      	ldrb	r3, [r3, #7]
 8009b96:	787a      	ldrb	r2, [r7, #1]
 8009b98:	429a      	cmp	r2, r3
 8009b9a:	d002      	beq.n	8009ba2 <USBH_FindInterface+0x6e>
 8009b9c:	787b      	ldrb	r3, [r7, #1]
 8009b9e:	2bff      	cmp	r3, #255	; 0xff
 8009ba0:	d101      	bne.n	8009ba6 <USBH_FindInterface+0x72>
 8009ba2:	7dfb      	ldrb	r3, [r7, #23]
 8009ba4:	e006      	b.n	8009bb4 <USBH_FindInterface+0x80>
 8009ba6:	7dfb      	ldrb	r3, [r7, #23]
 8009ba8:	3301      	adds	r3, #1
 8009baa:	75fb      	strb	r3, [r7, #23]
 8009bac:	7dfb      	ldrb	r3, [r7, #23]
 8009bae:	2b01      	cmp	r3, #1
 8009bb0:	d9d6      	bls.n	8009b60 <USBH_FindInterface+0x2c>
 8009bb2:	23ff      	movs	r3, #255	; 0xff
 8009bb4:	4618      	mov	r0, r3
 8009bb6:	371c      	adds	r7, #28
 8009bb8:	46bd      	mov	sp, r7
 8009bba:	f85d 7b04 	ldr.w	r7, [sp], #4
 8009bbe:	4770      	bx	lr

08009bc0 <USBH_Start>:
 8009bc0:	b580      	push	{r7, lr}
 8009bc2:	b082      	sub	sp, #8
 8009bc4:	af00      	add	r7, sp, #0
 8009bc6:	6078      	str	r0, [r7, #4]
 8009bc8:	6878      	ldr	r0, [r7, #4]
 8009bca:	f000 fcff 	bl	800a5cc <USBH_LL_Start>
 8009bce:	2101      	movs	r1, #1
 8009bd0:	6878      	ldr	r0, [r7, #4]
 8009bd2:	f000 fdd6 	bl	800a782 <USBH_LL_DriverVBUS>
 8009bd6:	2300      	movs	r3, #0
 8009bd8:	4618      	mov	r0, r3
 8009bda:	3708      	adds	r7, #8
 8009bdc:	46bd      	mov	sp, r7
 8009bde:	bd80      	pop	{r7, pc}

08009be0 <USBH_LL_SetTimer>:
 8009be0:	b480      	push	{r7}
 8009be2:	b083      	sub	sp, #12
 8009be4:	af00      	add	r7, sp, #0
 8009be6:	6078      	str	r0, [r7, #4]
 8009be8:	6039      	str	r1, [r7, #0]
 8009bea:	687b      	ldr	r3, [r7, #4]
 8009bec:	683a      	ldr	r2, [r7, #0]
 8009bee:	f8c3 23bc 	str.w	r2, [r3, #956]	; 0x3bc
 8009bf2:	bf00      	nop
 8009bf4:	370c      	adds	r7, #12
 8009bf6:	46bd      	mov	sp, r7
 8009bf8:	f85d 7b04 	ldr.w	r7, [sp], #4
 8009bfc:	4770      	bx	lr

08009bfe <USBH_LL_IncTimer>:
 8009bfe:	b580      	push	{r7, lr}
 8009c00:	b082      	sub	sp, #8
 8009c02:	af00      	add	r7, sp, #0
 8009c04:	6078      	str	r0, [r7, #4]
 8009c06:	687b      	ldr	r3, [r7, #4]
 8009c08:	f8d3 33bc 	ldr.w	r3, [r3, #956]	; 0x3bc
 8009c0c:	1c5a      	adds	r2, r3, #1
 8009c0e:	687b      	ldr	r3, [r7, #4]
 8009c10:	f8c3 23bc 	str.w	r2, [r3, #956]	; 0x3bc
 8009c14:	6878      	ldr	r0, [r7, #4]
 8009c16:	f000 f804 	bl	8009c22 <USBH_HandleSof>
 8009c1a:	bf00      	nop
 8009c1c:	3708      	adds	r7, #8
 8009c1e:	46bd      	mov	sp, r7
 8009c20:	bd80      	pop	{r7, pc}

08009c22 <USBH_HandleSof>:
 8009c22:	b580      	push	{r7, lr}
 8009c24:	b082      	sub	sp, #8
 8009c26:	af00      	add	r7, sp, #0
 8009c28:	6078      	str	r0, [r7, #4]
 8009c2a:	687b      	ldr	r3, [r7, #4]
 8009c2c:	781b      	ldrb	r3, [r3, #0]
 8009c2e:	b2db      	uxtb	r3, r3
 8009c30:	2b0b      	cmp	r3, #11
 8009c32:	d10a      	bne.n	8009c4a <USBH_HandleSof+0x28>
 8009c34:	687b      	ldr	r3, [r7, #4]
 8009c36:	f8d3 3378 	ldr.w	r3, [r3, #888]	; 0x378
 8009c3a:	2b00      	cmp	r3, #0
 8009c3c:	d005      	beq.n	8009c4a <USBH_HandleSof+0x28>
 8009c3e:	687b      	ldr	r3, [r7, #4]
 8009c40:	f8d3 3378 	ldr.w	r3, [r3, #888]	; 0x378
 8009c44:	699b      	ldr	r3, [r3, #24]
 8009c46:	6878      	ldr	r0, [r7, #4]
 8009c48:	4798      	blx	r3
 8009c4a:	bf00      	nop
 8009c4c:	3708      	adds	r7, #8
 8009c4e:	46bd      	mov	sp, r7
 8009c50:	bd80      	pop	{r7, pc}

08009c52 <USBH_LL_PortEnabled>:
 8009c52:	b480      	push	{r7}
 8009c54:	b083      	sub	sp, #12
 8009c56:	af00      	add	r7, sp, #0
 8009c58:	6078      	str	r0, [r7, #4]
 8009c5a:	687b      	ldr	r3, [r7, #4]
 8009c5c:	2201      	movs	r2, #1
 8009c5e:	f883 231f 	strb.w	r2, [r3, #799]	; 0x31f
 8009c62:	bf00      	nop
 8009c64:	370c      	adds	r7, #12
 8009c66:	46bd      	mov	sp, r7
 8009c68:	f85d 7b04 	ldr.w	r7, [sp], #4
 8009c6c:	4770      	bx	lr

08009c6e <USBH_LL_PortDisabled>:
 8009c6e:	b480      	push	{r7}
 8009c70:	b083      	sub	sp, #12
 8009c72:	af00      	add	r7, sp, #0
 8009c74:	6078      	str	r0, [r7, #4]
 8009c76:	687b      	ldr	r3, [r7, #4]
 8009c78:	2200      	movs	r2, #0
 8009c7a:	f883 231f 	strb.w	r2, [r3, #799]	; 0x31f
 8009c7e:	bf00      	nop
 8009c80:	370c      	adds	r7, #12
 8009c82:	46bd      	mov	sp, r7
 8009c84:	f85d 7b04 	ldr.w	r7, [sp], #4
 8009c88:	4770      	bx	lr

08009c8a <USBH_LL_Connect>:
 8009c8a:	b580      	push	{r7, lr}
 8009c8c:	b082      	sub	sp, #8
 8009c8e:	af00      	add	r7, sp, #0
 8009c90:	6078      	str	r0, [r7, #4]
 8009c92:	687b      	ldr	r3, [r7, #4]
 8009c94:	781b      	ldrb	r3, [r3, #0]
 8009c96:	b2db      	uxtb	r3, r3
 8009c98:	2b00      	cmp	r3, #0
 8009c9a:	d10f      	bne.n	8009cbc <USBH_LL_Connect+0x32>
 8009c9c:	687b      	ldr	r3, [r7, #4]
 8009c9e:	2201      	movs	r2, #1
 8009ca0:	f883 231e 	strb.w	r2, [r3, #798]	; 0x31e
 8009ca4:	687b      	ldr	r3, [r7, #4]
 8009ca6:	f8d3 33c8 	ldr.w	r3, [r3, #968]	; 0x3c8
 8009caa:	2b00      	cmp	r3, #0
 8009cac:	d00e      	beq.n	8009ccc <USBH_LL_Connect+0x42>
 8009cae:	687b      	ldr	r3, [r7, #4]
 8009cb0:	f8d3 33c8 	ldr.w	r3, [r3, #968]	; 0x3c8
 8009cb4:	2104      	movs	r1, #4
 8009cb6:	6878      	ldr	r0, [r7, #4]
 8009cb8:	4798      	blx	r3
 8009cba:	e007      	b.n	8009ccc <USBH_LL_Connect+0x42>
 8009cbc:	687b      	ldr	r3, [r7, #4]
 8009cbe:	f893 331f 	ldrb.w	r3, [r3, #799]	; 0x31f
 8009cc2:	2b01      	cmp	r3, #1
 8009cc4:	d102      	bne.n	8009ccc <USBH_LL_Connect+0x42>
 8009cc6:	687b      	ldr	r3, [r7, #4]
 8009cc8:	2202      	movs	r2, #2
 8009cca:	701a      	strb	r2, [r3, #0]
 8009ccc:	2300      	movs	r3, #0
 8009cce:	4618      	mov	r0, r3
 8009cd0:	3708      	adds	r7, #8
 8009cd2:	46bd      	mov	sp, r7
 8009cd4:	bd80      	pop	{r7, pc}

08009cd6 <USBH_LL_Disconnect>:
 8009cd6:	b580      	push	{r7, lr}
 8009cd8:	b082      	sub	sp, #8
 8009cda:	af00      	add	r7, sp, #0
 8009cdc:	6078      	str	r0, [r7, #4]
 8009cde:	6878      	ldr	r0, [r7, #4]
 8009ce0:	f000 fc8f 	bl	800a602 <USBH_LL_Stop>
 8009ce4:	687b      	ldr	r3, [r7, #4]
 8009ce6:	791b      	ldrb	r3, [r3, #4]
 8009ce8:	4619      	mov	r1, r3
 8009cea:	6878      	ldr	r0, [r7, #4]
 8009cec:	f000 fae5 	bl	800a2ba <USBH_FreePipe>
 8009cf0:	687b      	ldr	r3, [r7, #4]
 8009cf2:	795b      	ldrb	r3, [r3, #5]
 8009cf4:	4619      	mov	r1, r3
 8009cf6:	6878      	ldr	r0, [r7, #4]
 8009cf8:	f000 fadf 	bl	800a2ba <USBH_FreePipe>
 8009cfc:	687b      	ldr	r3, [r7, #4]
 8009cfe:	2200      	movs	r2, #0
 8009d00:	f883 231e 	strb.w	r2, [r3, #798]	; 0x31e
 8009d04:	687b      	ldr	r3, [r7, #4]
 8009d06:	f8d3 33c8 	ldr.w	r3, [r3, #968]	; 0x3c8
 8009d0a:	2b00      	cmp	r3, #0
 8009d0c:	d005      	beq.n	8009d1a <USBH_LL_Disconnect+0x44>
 8009d0e:	687b      	ldr	r3, [r7, #4]
 8009d10:	f8d3 33c8 	ldr.w	r3, [r3, #968]	; 0x3c8
 8009d14:	2105      	movs	r1, #5
 8009d16:	6878      	ldr	r0, [r7, #4]
 8009d18:	4798      	blx	r3
 8009d1a:	6878      	ldr	r0, [r7, #4]
 8009d1c:	f000 fc56 	bl	800a5cc <USBH_LL_Start>
 8009d20:	687b      	ldr	r3, [r7, #4]
 8009d22:	2203      	movs	r2, #3
 8009d24:	701a      	strb	r2, [r3, #0]
 8009d26:	2300      	movs	r3, #0
 8009d28:	4618      	mov	r0, r3
 8009d2a:	3708      	adds	r7, #8
 8009d2c:	46bd      	mov	sp, r7
 8009d2e:	bd80      	pop	{r7, pc}

08009d30 <USBH_ClrFeature>:
 8009d30:	b580      	push	{r7, lr}
 8009d32:	b082      	sub	sp, #8
 8009d34:	af00      	add	r7, sp, #0
 8009d36:	6078      	str	r0, [r7, #4]
 8009d38:	460b      	mov	r3, r1
 8009d3a:	70fb      	strb	r3, [r7, #3]
 8009d3c:	687b      	ldr	r3, [r7, #4]
 8009d3e:	789b      	ldrb	r3, [r3, #2]
 8009d40:	2b01      	cmp	r3, #1
 8009d42:	d10f      	bne.n	8009d64 <USBH_ClrFeature+0x34>
 8009d44:	687b      	ldr	r3, [r7, #4]
 8009d46:	2202      	movs	r2, #2
 8009d48:	741a      	strb	r2, [r3, #16]
 8009d4a:	687b      	ldr	r3, [r7, #4]
 8009d4c:	2201      	movs	r2, #1
 8009d4e:	745a      	strb	r2, [r3, #17]
 8009d50:	687b      	ldr	r3, [r7, #4]
 8009d52:	2200      	movs	r2, #0
 8009d54:	825a      	strh	r2, [r3, #18]
 8009d56:	78fb      	ldrb	r3, [r7, #3]
 8009d58:	b29a      	uxth	r2, r3
 8009d5a:	687b      	ldr	r3, [r7, #4]
 8009d5c:	829a      	strh	r2, [r3, #20]
 8009d5e:	687b      	ldr	r3, [r7, #4]
 8009d60:	2200      	movs	r2, #0
 8009d62:	82da      	strh	r2, [r3, #22]
 8009d64:	2200      	movs	r2, #0
 8009d66:	2100      	movs	r1, #0
 8009d68:	6878      	ldr	r0, [r7, #4]
 8009d6a:	f000 f805 	bl	8009d78 <USBH_CtlReq>
 8009d6e:	4603      	mov	r3, r0
 8009d70:	4618      	mov	r0, r3
 8009d72:	3708      	adds	r7, #8
 8009d74:	46bd      	mov	sp, r7
 8009d76:	bd80      	pop	{r7, pc}

08009d78 <USBH_CtlReq>:
 8009d78:	b580      	push	{r7, lr}
 8009d7a:	b086      	sub	sp, #24
 8009d7c:	af00      	add	r7, sp, #0
 8009d7e:	60f8      	str	r0, [r7, #12]
 8009d80:	60b9      	str	r1, [r7, #8]
 8009d82:	4613      	mov	r3, r2
 8009d84:	80fb      	strh	r3, [r7, #6]
 8009d86:	2301      	movs	r3, #1
 8009d88:	75fb      	strb	r3, [r7, #23]
 8009d8a:	68fb      	ldr	r3, [r7, #12]
 8009d8c:	789b      	ldrb	r3, [r3, #2]
 8009d8e:	2b01      	cmp	r3, #1
 8009d90:	d002      	beq.n	8009d98 <USBH_CtlReq+0x20>
 8009d92:	2b02      	cmp	r3, #2
 8009d94:	d00f      	beq.n	8009db6 <USBH_CtlReq+0x3e>
 8009d96:	e034      	b.n	8009e02 <USBH_CtlReq+0x8a>
 8009d98:	68fb      	ldr	r3, [r7, #12]
 8009d9a:	68ba      	ldr	r2, [r7, #8]
 8009d9c:	609a      	str	r2, [r3, #8]
 8009d9e:	68fb      	ldr	r3, [r7, #12]
 8009da0:	88fa      	ldrh	r2, [r7, #6]
 8009da2:	819a      	strh	r2, [r3, #12]
 8009da4:	68fb      	ldr	r3, [r7, #12]
 8009da6:	2201      	movs	r2, #1
 8009da8:	761a      	strb	r2, [r3, #24]
 8009daa:	68fb      	ldr	r3, [r7, #12]
 8009dac:	2202      	movs	r2, #2
 8009dae:	709a      	strb	r2, [r3, #2]
 8009db0:	2301      	movs	r3, #1
 8009db2:	75fb      	strb	r3, [r7, #23]
 8009db4:	e025      	b.n	8009e02 <USBH_CtlReq+0x8a>
 8009db6:	68f8      	ldr	r0, [r7, #12]
 8009db8:	f000 f828 	bl	8009e0c <USBH_HandleControl>
 8009dbc:	4603      	mov	r3, r0
 8009dbe:	75fb      	strb	r3, [r7, #23]
 8009dc0:	7dfb      	ldrb	r3, [r7, #23]
 8009dc2:	2b00      	cmp	r3, #0
 8009dc4:	d108      	bne.n	8009dd8 <USBH_CtlReq+0x60>
 8009dc6:	68fb      	ldr	r3, [r7, #12]
 8009dc8:	2201      	movs	r2, #1
 8009dca:	709a      	strb	r2, [r3, #2]
 8009dcc:	68fb      	ldr	r3, [r7, #12]
 8009dce:	2200      	movs	r2, #0
 8009dd0:	761a      	strb	r2, [r3, #24]
 8009dd2:	2300      	movs	r3, #0
 8009dd4:	75fb      	strb	r3, [r7, #23]
 8009dd6:	e013      	b.n	8009e00 <USBH_CtlReq+0x88>
 8009dd8:	7dfb      	ldrb	r3, [r7, #23]
 8009dda:	2b03      	cmp	r3, #3
 8009ddc:	d108      	bne.n	8009df0 <USBH_CtlReq+0x78>
 8009dde:	68fb      	ldr	r3, [r7, #12]
 8009de0:	2201      	movs	r2, #1
 8009de2:	709a      	strb	r2, [r3, #2]
 8009de4:	68fb      	ldr	r3, [r7, #12]
 8009de6:	2200      	movs	r2, #0
 8009de8:	761a      	strb	r2, [r3, #24]
 8009dea:	2303      	movs	r3, #3
 8009dec:	75fb      	strb	r3, [r7, #23]
 8009dee:	e007      	b.n	8009e00 <USBH_CtlReq+0x88>
 8009df0:	7dfb      	ldrb	r3, [r7, #23]
 8009df2:	2b02      	cmp	r3, #2
 8009df4:	d104      	bne.n	8009e00 <USBH_CtlReq+0x88>
 8009df6:	68fb      	ldr	r3, [r7, #12]
 8009df8:	2201      	movs	r2, #1
 8009dfa:	709a      	strb	r2, [r3, #2]
 8009dfc:	2302      	movs	r3, #2
 8009dfe:	75fb      	strb	r3, [r7, #23]
 8009e00:	bf00      	nop
 8009e02:	7dfb      	ldrb	r3, [r7, #23]
 8009e04:	4618      	mov	r0, r3
 8009e06:	3718      	adds	r7, #24
 8009e08:	46bd      	mov	sp, r7
 8009e0a:	bd80      	pop	{r7, pc}

08009e0c <USBH_HandleControl>:
 8009e0c:	b580      	push	{r7, lr}
 8009e0e:	b086      	sub	sp, #24
 8009e10:	af02      	add	r7, sp, #8
 8009e12:	6078      	str	r0, [r7, #4]
 8009e14:	2301      	movs	r3, #1
 8009e16:	73fb      	strb	r3, [r7, #15]
 8009e18:	2300      	movs	r3, #0
 8009e1a:	73bb      	strb	r3, [r7, #14]
 8009e1c:	687b      	ldr	r3, [r7, #4]
 8009e1e:	7e1b      	ldrb	r3, [r3, #24]
 8009e20:	3b01      	subs	r3, #1
 8009e22:	2b0a      	cmp	r3, #10
 8009e24:	f200 814c 	bhi.w	800a0c0 <USBH_HandleControl+0x2b4>
 8009e28:	a201      	add	r2, pc, #4	; (adr r2, 8009e30 <USBH_HandleControl+0x24>)
 8009e2a:	f852 f023 	ldr.w	pc, [r2, r3, lsl #2]
 8009e2e:	bf00      	nop
 8009e30:	08009e5d 	.word	0x08009e5d
 8009e34:	08009e77 	.word	0x08009e77
 8009e38:	08009ee1 	.word	0x08009ee1
 8009e3c:	08009f07 	.word	0x08009f07
 8009e40:	08009f3f 	.word	0x08009f3f
 8009e44:	08009f6b 	.word	0x08009f6b
 8009e48:	08009fbd 	.word	0x08009fbd
 8009e4c:	08009fdf 	.word	0x08009fdf
 8009e50:	0800a01b 	.word	0x0800a01b
 8009e54:	0800a043 	.word	0x0800a043
 8009e58:	0800a081 	.word	0x0800a081
 8009e5c:	687b      	ldr	r3, [r7, #4]
 8009e5e:	f103 0110 	add.w	r1, r3, #16
 8009e62:	687b      	ldr	r3, [r7, #4]
 8009e64:	795b      	ldrb	r3, [r3, #5]
 8009e66:	461a      	mov	r2, r3
 8009e68:	6878      	ldr	r0, [r7, #4]
 8009e6a:	f000 f939 	bl	800a0e0 <USBH_CtlSendSetup>
 8009e6e:	687b      	ldr	r3, [r7, #4]
 8009e70:	2202      	movs	r2, #2
 8009e72:	761a      	strb	r2, [r3, #24]
 8009e74:	e12f      	b.n	800a0d6 <USBH_HandleControl+0x2ca>
 8009e76:	687b      	ldr	r3, [r7, #4]
 8009e78:	795b      	ldrb	r3, [r3, #5]
 8009e7a:	4619      	mov	r1, r3
 8009e7c:	6878      	ldr	r0, [r7, #4]
 8009e7e:	f000 fc6d 	bl	800a75c <USBH_LL_GetURBState>
 8009e82:	4603      	mov	r3, r0
 8009e84:	73bb      	strb	r3, [r7, #14]
 8009e86:	7bbb      	ldrb	r3, [r7, #14]
 8009e88:	2b01      	cmp	r3, #1
 8009e8a:	d11e      	bne.n	8009eca <USBH_HandleControl+0xbe>
 8009e8c:	687b      	ldr	r3, [r7, #4]
 8009e8e:	7c1b      	ldrb	r3, [r3, #16]
 8009e90:	f023 037f 	bic.w	r3, r3, #127	; 0x7f
 8009e94:	737b      	strb	r3, [r7, #13]
 8009e96:	687b      	ldr	r3, [r7, #4]
 8009e98:	8adb      	ldrh	r3, [r3, #22]
 8009e9a:	2b00      	cmp	r3, #0
 8009e9c:	d00a      	beq.n	8009eb4 <USBH_HandleControl+0xa8>
 8009e9e:	7b7b      	ldrb	r3, [r7, #13]
 8009ea0:	2b80      	cmp	r3, #128	; 0x80
 8009ea2:	d103      	bne.n	8009eac <USBH_HandleControl+0xa0>
 8009ea4:	687b      	ldr	r3, [r7, #4]
 8009ea6:	2203      	movs	r2, #3
 8009ea8:	761a      	strb	r2, [r3, #24]
 8009eaa:	e10b      	b.n	800a0c4 <USBH_HandleControl+0x2b8>
 8009eac:	687b      	ldr	r3, [r7, #4]
 8009eae:	2205      	movs	r2, #5
 8009eb0:	761a      	strb	r2, [r3, #24]
 8009eb2:	e107      	b.n	800a0c4 <USBH_HandleControl+0x2b8>
 8009eb4:	7b7b      	ldrb	r3, [r7, #13]
 8009eb6:	2b80      	cmp	r3, #128	; 0x80
 8009eb8:	d103      	bne.n	8009ec2 <USBH_HandleControl+0xb6>
 8009eba:	687b      	ldr	r3, [r7, #4]
 8009ebc:	2209      	movs	r2, #9
 8009ebe:	761a      	strb	r2, [r3, #24]
 8009ec0:	e100      	b.n	800a0c4 <USBH_HandleControl+0x2b8>
 8009ec2:	687b      	ldr	r3, [r7, #4]
 8009ec4:	2207      	movs	r2, #7
 8009ec6:	761a      	strb	r2, [r3, #24]
 8009ec8:	e0fc      	b.n	800a0c4 <USBH_HandleControl+0x2b8>
 8009eca:	7bbb      	ldrb	r3, [r7, #14]
 8009ecc:	2b04      	cmp	r3, #4
 8009ece:	d003      	beq.n	8009ed8 <USBH_HandleControl+0xcc>
 8009ed0:	7bbb      	ldrb	r3, [r7, #14]
 8009ed2:	2b02      	cmp	r3, #2
 8009ed4:	f040 80f6 	bne.w	800a0c4 <USBH_HandleControl+0x2b8>
 8009ed8:	687b      	ldr	r3, [r7, #4]
 8009eda:	220b      	movs	r2, #11
 8009edc:	761a      	strb	r2, [r3, #24]
 8009ede:	e0f1      	b.n	800a0c4 <USBH_HandleControl+0x2b8>
 8009ee0:	687b      	ldr	r3, [r7, #4]
 8009ee2:	f8d3 33bc 	ldr.w	r3, [r3, #956]	; 0x3bc
 8009ee6:	b29a      	uxth	r2, r3
 8009ee8:	687b      	ldr	r3, [r7, #4]
 8009eea:	81da      	strh	r2, [r3, #14]
 8009eec:	687b      	ldr	r3, [r7, #4]
 8009eee:	6899      	ldr	r1, [r3, #8]
 8009ef0:	687b      	ldr	r3, [r7, #4]
 8009ef2:	899a      	ldrh	r2, [r3, #12]
 8009ef4:	687b      	ldr	r3, [r7, #4]
 8009ef6:	791b      	ldrb	r3, [r3, #4]
 8009ef8:	6878      	ldr	r0, [r7, #4]
 8009efa:	f000 f930 	bl	800a15e <USBH_CtlReceiveData>
 8009efe:	687b      	ldr	r3, [r7, #4]
 8009f00:	2204      	movs	r2, #4
 8009f02:	761a      	strb	r2, [r3, #24]
 8009f04:	e0e7      	b.n	800a0d6 <USBH_HandleControl+0x2ca>
 8009f06:	687b      	ldr	r3, [r7, #4]
 8009f08:	791b      	ldrb	r3, [r3, #4]
 8009f0a:	4619      	mov	r1, r3
 8009f0c:	6878      	ldr	r0, [r7, #4]
 8009f0e:	f000 fc25 	bl	800a75c <USBH_LL_GetURBState>
 8009f12:	4603      	mov	r3, r0
 8009f14:	73bb      	strb	r3, [r7, #14]
 8009f16:	7bbb      	ldrb	r3, [r7, #14]
 8009f18:	2b01      	cmp	r3, #1
 8009f1a:	d102      	bne.n	8009f22 <USBH_HandleControl+0x116>
 8009f1c:	687b      	ldr	r3, [r7, #4]
 8009f1e:	2209      	movs	r2, #9
 8009f20:	761a      	strb	r2, [r3, #24]
 8009f22:	7bbb      	ldrb	r3, [r7, #14]
 8009f24:	2b05      	cmp	r3, #5
 8009f26:	d102      	bne.n	8009f2e <USBH_HandleControl+0x122>
 8009f28:	2303      	movs	r3, #3
 8009f2a:	73fb      	strb	r3, [r7, #15]
 8009f2c:	e0cc      	b.n	800a0c8 <USBH_HandleControl+0x2bc>
 8009f2e:	7bbb      	ldrb	r3, [r7, #14]
 8009f30:	2b04      	cmp	r3, #4
 8009f32:	f040 80c9 	bne.w	800a0c8 <USBH_HandleControl+0x2bc>
 8009f36:	687b      	ldr	r3, [r7, #4]
 8009f38:	220b      	movs	r2, #11
 8009f3a:	761a      	strb	r2, [r3, #24]
 8009f3c:	e0c4      	b.n	800a0c8 <USBH_HandleControl+0x2bc>
 8009f3e:	687b      	ldr	r3, [r7, #4]
 8009f40:	6899      	ldr	r1, [r3, #8]
 8009f42:	687b      	ldr	r3, [r7, #4]
 8009f44:	899a      	ldrh	r2, [r3, #12]
 8009f46:	687b      	ldr	r3, [r7, #4]
 8009f48:	7958      	ldrb	r0, [r3, #5]
 8009f4a:	2301      	movs	r3, #1
 8009f4c:	9300      	str	r3, [sp, #0]
 8009f4e:	4603      	mov	r3, r0
 8009f50:	6878      	ldr	r0, [r7, #4]
 8009f52:	f000 f8df 	bl	800a114 <USBH_CtlSendData>
 8009f56:	687b      	ldr	r3, [r7, #4]
 8009f58:	f8d3 33bc 	ldr.w	r3, [r3, #956]	; 0x3bc
 8009f5c:	b29a      	uxth	r2, r3
 8009f5e:	687b      	ldr	r3, [r7, #4]
 8009f60:	81da      	strh	r2, [r3, #14]
 8009f62:	687b      	ldr	r3, [r7, #4]
 8009f64:	2206      	movs	r2, #6
 8009f66:	761a      	strb	r2, [r3, #24]
 8009f68:	e0b5      	b.n	800a0d6 <USBH_HandleControl+0x2ca>
 8009f6a:	687b      	ldr	r3, [r7, #4]
 8009f6c:	795b      	ldrb	r3, [r3, #5]
 8009f6e:	4619      	mov	r1, r3
 8009f70:	6878      	ldr	r0, [r7, #4]
 8009f72:	f000 fbf3 	bl	800a75c <USBH_LL_GetURBState>
 8009f76:	4603      	mov	r3, r0
 8009f78:	73bb      	strb	r3, [r7, #14]
 8009f7a:	7bbb      	ldrb	r3, [r7, #14]
 8009f7c:	2b01      	cmp	r3, #1
 8009f7e:	d103      	bne.n	8009f88 <USBH_HandleControl+0x17c>
 8009f80:	687b      	ldr	r3, [r7, #4]
 8009f82:	2207      	movs	r2, #7
 8009f84:	761a      	strb	r2, [r3, #24]
 8009f86:	e0a1      	b.n	800a0cc <USBH_HandleControl+0x2c0>
 8009f88:	7bbb      	ldrb	r3, [r7, #14]
 8009f8a:	2b05      	cmp	r3, #5
 8009f8c:	d105      	bne.n	8009f9a <USBH_HandleControl+0x18e>
 8009f8e:	687b      	ldr	r3, [r7, #4]
 8009f90:	220c      	movs	r2, #12
 8009f92:	761a      	strb	r2, [r3, #24]
 8009f94:	2303      	movs	r3, #3
 8009f96:	73fb      	strb	r3, [r7, #15]
 8009f98:	e098      	b.n	800a0cc <USBH_HandleControl+0x2c0>
 8009f9a:	7bbb      	ldrb	r3, [r7, #14]
 8009f9c:	2b02      	cmp	r3, #2
 8009f9e:	d103      	bne.n	8009fa8 <USBH_HandleControl+0x19c>
 8009fa0:	687b      	ldr	r3, [r7, #4]
 8009fa2:	2205      	movs	r2, #5
 8009fa4:	761a      	strb	r2, [r3, #24]
 8009fa6:	e091      	b.n	800a0cc <USBH_HandleControl+0x2c0>
 8009fa8:	7bbb      	ldrb	r3, [r7, #14]
 8009faa:	2b04      	cmp	r3, #4
 8009fac:	f040 808e 	bne.w	800a0cc <USBH_HandleControl+0x2c0>
 8009fb0:	687b      	ldr	r3, [r7, #4]
 8009fb2:	220b      	movs	r2, #11
 8009fb4:	761a      	strb	r2, [r3, #24]
 8009fb6:	2302      	movs	r3, #2
 8009fb8:	73fb      	strb	r3, [r7, #15]
 8009fba:	e087      	b.n	800a0cc <USBH_HandleControl+0x2c0>
 8009fbc:	687b      	ldr	r3, [r7, #4]
 8009fbe:	791b      	ldrb	r3, [r3, #4]
 8009fc0:	2200      	movs	r2, #0
 8009fc2:	2100      	movs	r1, #0
 8009fc4:	6878      	ldr	r0, [r7, #4]
 8009fc6:	f000 f8ca 	bl	800a15e <USBH_CtlReceiveData>
 8009fca:	687b      	ldr	r3, [r7, #4]
 8009fcc:	f8d3 33bc 	ldr.w	r3, [r3, #956]	; 0x3bc
 8009fd0:	b29a      	uxth	r2, r3
 8009fd2:	687b      	ldr	r3, [r7, #4]
 8009fd4:	81da      	strh	r2, [r3, #14]
 8009fd6:	687b      	ldr	r3, [r7, #4]
 8009fd8:	2208      	movs	r2, #8
 8009fda:	761a      	strb	r2, [r3, #24]
 8009fdc:	e07b      	b.n	800a0d6 <USBH_HandleControl+0x2ca>
 8009fde:	687b      	ldr	r3, [r7, #4]
 8009fe0:	791b      	ldrb	r3, [r3, #4]
 8009fe2:	4619      	mov	r1, r3
 8009fe4:	6878      	ldr	r0, [r7, #4]
 8009fe6:	f000 fbb9 	bl	800a75c <USBH_LL_GetURBState>
 8009fea:	4603      	mov	r3, r0
 8009fec:	73bb      	strb	r3, [r7, #14]
 8009fee:	7bbb      	ldrb	r3, [r7, #14]
 8009ff0:	2b01      	cmp	r3, #1
 8009ff2:	d105      	bne.n	800a000 <USBH_HandleControl+0x1f4>
 8009ff4:	687b      	ldr	r3, [r7, #4]
 8009ff6:	220d      	movs	r2, #13
 8009ff8:	761a      	strb	r2, [r3, #24]
 8009ffa:	2300      	movs	r3, #0
 8009ffc:	73fb      	strb	r3, [r7, #15]
 8009ffe:	e067      	b.n	800a0d0 <USBH_HandleControl+0x2c4>
 800a000:	7bbb      	ldrb	r3, [r7, #14]
 800a002:	2b04      	cmp	r3, #4
 800a004:	d103      	bne.n	800a00e <USBH_HandleControl+0x202>
 800a006:	687b      	ldr	r3, [r7, #4]
 800a008:	220b      	movs	r2, #11
 800a00a:	761a      	strb	r2, [r3, #24]
 800a00c:	e060      	b.n	800a0d0 <USBH_HandleControl+0x2c4>
 800a00e:	7bbb      	ldrb	r3, [r7, #14]
 800a010:	2b05      	cmp	r3, #5
 800a012:	d15d      	bne.n	800a0d0 <USBH_HandleControl+0x2c4>
 800a014:	2303      	movs	r3, #3
 800a016:	73fb      	strb	r3, [r7, #15]
 800a018:	e05a      	b.n	800a0d0 <USBH_HandleControl+0x2c4>
 800a01a:	687b      	ldr	r3, [r7, #4]
 800a01c:	795a      	ldrb	r2, [r3, #5]
 800a01e:	2301      	movs	r3, #1
 800a020:	9300      	str	r3, [sp, #0]
 800a022:	4613      	mov	r3, r2
 800a024:	2200      	movs	r2, #0
 800a026:	2100      	movs	r1, #0
 800a028:	6878      	ldr	r0, [r7, #4]
 800a02a:	f000 f873 	bl	800a114 <USBH_CtlSendData>
 800a02e:	687b      	ldr	r3, [r7, #4]
 800a030:	f8d3 33bc 	ldr.w	r3, [r3, #956]	; 0x3bc
 800a034:	b29a      	uxth	r2, r3
 800a036:	687b      	ldr	r3, [r7, #4]
 800a038:	81da      	strh	r2, [r3, #14]
 800a03a:	687b      	ldr	r3, [r7, #4]
 800a03c:	220a      	movs	r2, #10
 800a03e:	761a      	strb	r2, [r3, #24]
 800a040:	e049      	b.n	800a0d6 <USBH_HandleControl+0x2ca>
 800a042:	687b      	ldr	r3, [r7, #4]
 800a044:	795b      	ldrb	r3, [r3, #5]
 800a046:	4619      	mov	r1, r3
 800a048:	6878      	ldr	r0, [r7, #4]
 800a04a:	f000 fb87 	bl	800a75c <USBH_LL_GetURBState>
 800a04e:	4603      	mov	r3, r0
 800a050:	73bb      	strb	r3, [r7, #14]
 800a052:	7bbb      	ldrb	r3, [r7, #14]
 800a054:	2b01      	cmp	r3, #1
 800a056:	d105      	bne.n	800a064 <USBH_HandleControl+0x258>
 800a058:	2300      	movs	r3, #0
 800a05a:	73fb      	strb	r3, [r7, #15]
 800a05c:	687b      	ldr	r3, [r7, #4]
 800a05e:	220d      	movs	r2, #13
 800a060:	761a      	strb	r2, [r3, #24]
 800a062:	e037      	b.n	800a0d4 <USBH_HandleControl+0x2c8>
 800a064:	7bbb      	ldrb	r3, [r7, #14]
 800a066:	2b02      	cmp	r3, #2
 800a068:	d103      	bne.n	800a072 <USBH_HandleControl+0x266>
 800a06a:	687b      	ldr	r3, [r7, #4]
 800a06c:	2209      	movs	r2, #9
 800a06e:	761a      	strb	r2, [r3, #24]
 800a070:	e030      	b.n	800a0d4 <USBH_HandleControl+0x2c8>
 800a072:	7bbb      	ldrb	r3, [r7, #14]
 800a074:	2b04      	cmp	r3, #4
 800a076:	d12d      	bne.n	800a0d4 <USBH_HandleControl+0x2c8>
 800a078:	687b      	ldr	r3, [r7, #4]
 800a07a:	220b      	movs	r2, #11
 800a07c:	761a      	strb	r2, [r3, #24]
 800a07e:	e029      	b.n	800a0d4 <USBH_HandleControl+0x2c8>
 800a080:	687b      	ldr	r3, [r7, #4]
 800a082:	7e5b      	ldrb	r3, [r3, #25]
 800a084:	3301      	adds	r3, #1
 800a086:	b2da      	uxtb	r2, r3
 800a088:	687b      	ldr	r3, [r7, #4]
 800a08a:	765a      	strb	r2, [r3, #25]
 800a08c:	687b      	ldr	r3, [r7, #4]
 800a08e:	7e5b      	ldrb	r3, [r3, #25]
 800a090:	2b02      	cmp	r3, #2
 800a092:	d809      	bhi.n	800a0a8 <USBH_HandleControl+0x29c>
 800a094:	6878      	ldr	r0, [r7, #4]
 800a096:	f000 fab4 	bl	800a602 <USBH_LL_Stop>
 800a09a:	687b      	ldr	r3, [r7, #4]
 800a09c:	2201      	movs	r2, #1
 800a09e:	761a      	strb	r2, [r3, #24]
 800a0a0:	687b      	ldr	r3, [r7, #4]
 800a0a2:	2201      	movs	r2, #1
 800a0a4:	709a      	strb	r2, [r3, #2]
 800a0a6:	e016      	b.n	800a0d6 <USBH_HandleControl+0x2ca>
 800a0a8:	687b      	ldr	r3, [r7, #4]
 800a0aa:	f8d3 33c8 	ldr.w	r3, [r3, #968]	; 0x3c8
 800a0ae:	2106      	movs	r1, #6
 800a0b0:	6878      	ldr	r0, [r7, #4]
 800a0b2:	4798      	blx	r3
 800a0b4:	687b      	ldr	r3, [r7, #4]
 800a0b6:	2200      	movs	r2, #0
 800a0b8:	765a      	strb	r2, [r3, #25]
 800a0ba:	2302      	movs	r3, #2
 800a0bc:	73fb      	strb	r3, [r7, #15]
 800a0be:	e00a      	b.n	800a0d6 <USBH_HandleControl+0x2ca>
 800a0c0:	bf00      	nop
 800a0c2:	e008      	b.n	800a0d6 <USBH_HandleControl+0x2ca>
 800a0c4:	bf00      	nop
 800a0c6:	e006      	b.n	800a0d6 <USBH_HandleControl+0x2ca>
 800a0c8:	bf00      	nop
 800a0ca:	e004      	b.n	800a0d6 <USBH_HandleControl+0x2ca>
 800a0cc:	bf00      	nop
 800a0ce:	e002      	b.n	800a0d6 <USBH_HandleControl+0x2ca>
 800a0d0:	bf00      	nop
 800a0d2:	e000      	b.n	800a0d6 <USBH_HandleControl+0x2ca>
 800a0d4:	bf00      	nop
 800a0d6:	7bfb      	ldrb	r3, [r7, #15]
 800a0d8:	4618      	mov	r0, r3
 800a0da:	3710      	adds	r7, #16
 800a0dc:	46bd      	mov	sp, r7
 800a0de:	bd80      	pop	{r7, pc}

0800a0e0 <USBH_CtlSendSetup>:
 800a0e0:	b580      	push	{r7, lr}
 800a0e2:	b088      	sub	sp, #32
 800a0e4:	af04      	add	r7, sp, #16
 800a0e6:	60f8      	str	r0, [r7, #12]
 800a0e8:	60b9      	str	r1, [r7, #8]
 800a0ea:	4613      	mov	r3, r2
 800a0ec:	71fb      	strb	r3, [r7, #7]
 800a0ee:	79f9      	ldrb	r1, [r7, #7]
 800a0f0:	2300      	movs	r3, #0
 800a0f2:	9303      	str	r3, [sp, #12]
 800a0f4:	2308      	movs	r3, #8
 800a0f6:	9302      	str	r3, [sp, #8]
 800a0f8:	68bb      	ldr	r3, [r7, #8]
 800a0fa:	9301      	str	r3, [sp, #4]
 800a0fc:	2300      	movs	r3, #0
 800a0fe:	9300      	str	r3, [sp, #0]
 800a100:	2300      	movs	r3, #0
 800a102:	2200      	movs	r2, #0
 800a104:	68f8      	ldr	r0, [r7, #12]
 800a106:	f000 faf8 	bl	800a6fa <USBH_LL_SubmitURB>
 800a10a:	2300      	movs	r3, #0
 800a10c:	4618      	mov	r0, r3
 800a10e:	3710      	adds	r7, #16
 800a110:	46bd      	mov	sp, r7
 800a112:	bd80      	pop	{r7, pc}

0800a114 <USBH_CtlSendData>:
 800a114:	b580      	push	{r7, lr}
 800a116:	b088      	sub	sp, #32
 800a118:	af04      	add	r7, sp, #16
 800a11a:	60f8      	str	r0, [r7, #12]
 800a11c:	60b9      	str	r1, [r7, #8]
 800a11e:	4611      	mov	r1, r2
 800a120:	461a      	mov	r2, r3
 800a122:	460b      	mov	r3, r1
 800a124:	80fb      	strh	r3, [r7, #6]
 800a126:	4613      	mov	r3, r2
 800a128:	717b      	strb	r3, [r7, #5]
 800a12a:	68fb      	ldr	r3, [r7, #12]
 800a12c:	f893 331d 	ldrb.w	r3, [r3, #797]	; 0x31d
 800a130:	2b00      	cmp	r3, #0
 800a132:	d001      	beq.n	800a138 <USBH_CtlSendData+0x24>
 800a134:	2300      	movs	r3, #0
 800a136:	763b      	strb	r3, [r7, #24]
 800a138:	7979      	ldrb	r1, [r7, #5]
 800a13a:	7e3b      	ldrb	r3, [r7, #24]
 800a13c:	9303      	str	r3, [sp, #12]
 800a13e:	88fb      	ldrh	r3, [r7, #6]
 800a140:	9302      	str	r3, [sp, #8]
 800a142:	68bb      	ldr	r3, [r7, #8]
 800a144:	9301      	str	r3, [sp, #4]
 800a146:	2301      	movs	r3, #1
 800a148:	9300      	str	r3, [sp, #0]
 800a14a:	2300      	movs	r3, #0
 800a14c:	2200      	movs	r2, #0
 800a14e:	68f8      	ldr	r0, [r7, #12]
 800a150:	f000 fad3 	bl	800a6fa <USBH_LL_SubmitURB>
 800a154:	2300      	movs	r3, #0
 800a156:	4618      	mov	r0, r3
 800a158:	3710      	adds	r7, #16
 800a15a:	46bd      	mov	sp, r7
 800a15c:	bd80      	pop	{r7, pc}

0800a15e <USBH_CtlReceiveData>:
 800a15e:	b580      	push	{r7, lr}
 800a160:	b088      	sub	sp, #32
 800a162:	af04      	add	r7, sp, #16
 800a164:	60f8      	str	r0, [r7, #12]
 800a166:	60b9      	str	r1, [r7, #8]
 800a168:	4611      	mov	r1, r2
 800a16a:	461a      	mov	r2, r3
 800a16c:	460b      	mov	r3, r1
 800a16e:	80fb      	strh	r3, [r7, #6]
 800a170:	4613      	mov	r3, r2
 800a172:	717b      	strb	r3, [r7, #5]
 800a174:	7979      	ldrb	r1, [r7, #5]
 800a176:	2300      	movs	r3, #0
 800a178:	9303      	str	r3, [sp, #12]
 800a17a:	88fb      	ldrh	r3, [r7, #6]
 800a17c:	9302      	str	r3, [sp, #8]
 800a17e:	68bb      	ldr	r3, [r7, #8]
 800a180:	9301      	str	r3, [sp, #4]
 800a182:	2301      	movs	r3, #1
 800a184:	9300      	str	r3, [sp, #0]
 800a186:	2300      	movs	r3, #0
 800a188:	2201      	movs	r2, #1
 800a18a:	68f8      	ldr	r0, [r7, #12]
 800a18c:	f000 fab5 	bl	800a6fa <USBH_LL_SubmitURB>
 800a190:	2300      	movs	r3, #0
 800a192:	4618      	mov	r0, r3
 800a194:	3710      	adds	r7, #16
 800a196:	46bd      	mov	sp, r7
 800a198:	bd80      	pop	{r7, pc}

0800a19a <USBH_BulkSendData>:
 800a19a:	b580      	push	{r7, lr}
 800a19c:	b088      	sub	sp, #32
 800a19e:	af04      	add	r7, sp, #16
 800a1a0:	60f8      	str	r0, [r7, #12]
 800a1a2:	60b9      	str	r1, [r7, #8]
 800a1a4:	4611      	mov	r1, r2
 800a1a6:	461a      	mov	r2, r3
 800a1a8:	460b      	mov	r3, r1
 800a1aa:	80fb      	strh	r3, [r7, #6]
 800a1ac:	4613      	mov	r3, r2
 800a1ae:	717b      	strb	r3, [r7, #5]
 800a1b0:	68fb      	ldr	r3, [r7, #12]
 800a1b2:	f893 331d 	ldrb.w	r3, [r3, #797]	; 0x31d
 800a1b6:	2b00      	cmp	r3, #0
 800a1b8:	d001      	beq.n	800a1be <USBH_BulkSendData+0x24>
 800a1ba:	2300      	movs	r3, #0
 800a1bc:	763b      	strb	r3, [r7, #24]
 800a1be:	7979      	ldrb	r1, [r7, #5]
 800a1c0:	7e3b      	ldrb	r3, [r7, #24]
 800a1c2:	9303      	str	r3, [sp, #12]
 800a1c4:	88fb      	ldrh	r3, [r7, #6]
 800a1c6:	9302      	str	r3, [sp, #8]
 800a1c8:	68bb      	ldr	r3, [r7, #8]
 800a1ca:	9301      	str	r3, [sp, #4]
 800a1cc:	2301      	movs	r3, #1
 800a1ce:	9300      	str	r3, [sp, #0]
 800a1d0:	2302      	movs	r3, #2
 800a1d2:	2200      	movs	r2, #0
 800a1d4:	68f8      	ldr	r0, [r7, #12]
 800a1d6:	f000 fa90 	bl	800a6fa <USBH_LL_SubmitURB>
 800a1da:	2300      	movs	r3, #0
 800a1dc:	4618      	mov	r0, r3
 800a1de:	3710      	adds	r7, #16
 800a1e0:	46bd      	mov	sp, r7
 800a1e2:	bd80      	pop	{r7, pc}

0800a1e4 <USBH_BulkReceiveData>:
 800a1e4:	b580      	push	{r7, lr}
 800a1e6:	b088      	sub	sp, #32
 800a1e8:	af04      	add	r7, sp, #16
 800a1ea:	60f8      	str	r0, [r7, #12]
 800a1ec:	60b9      	str	r1, [r7, #8]
 800a1ee:	4611      	mov	r1, r2
 800a1f0:	461a      	mov	r2, r3
 800a1f2:	460b      	mov	r3, r1
 800a1f4:	80fb      	strh	r3, [r7, #6]
 800a1f6:	4613      	mov	r3, r2
 800a1f8:	717b      	strb	r3, [r7, #5]
 800a1fa:	7979      	ldrb	r1, [r7, #5]
 800a1fc:	2300      	movs	r3, #0
 800a1fe:	9303      	str	r3, [sp, #12]
 800a200:	88fb      	ldrh	r3, [r7, #6]
 800a202:	9302      	str	r3, [sp, #8]
 800a204:	68bb      	ldr	r3, [r7, #8]
 800a206:	9301      	str	r3, [sp, #4]
 800a208:	2301      	movs	r3, #1
 800a20a:	9300      	str	r3, [sp, #0]
 800a20c:	2302      	movs	r3, #2
 800a20e:	2201      	movs	r2, #1
 800a210:	68f8      	ldr	r0, [r7, #12]
 800a212:	f000 fa72 	bl	800a6fa <USBH_LL_SubmitURB>
 800a216:	2300      	movs	r3, #0
 800a218:	4618      	mov	r0, r3
 800a21a:	3710      	adds	r7, #16
 800a21c:	46bd      	mov	sp, r7
 800a21e:	bd80      	pop	{r7, pc}

0800a220 <USBH_OpenPipe>:
 800a220:	b580      	push	{r7, lr}
 800a222:	b086      	sub	sp, #24
 800a224:	af04      	add	r7, sp, #16
 800a226:	6078      	str	r0, [r7, #4]
 800a228:	4608      	mov	r0, r1
 800a22a:	4611      	mov	r1, r2
 800a22c:	461a      	mov	r2, r3
 800a22e:	4603      	mov	r3, r0
 800a230:	70fb      	strb	r3, [r7, #3]
 800a232:	460b      	mov	r3, r1
 800a234:	70bb      	strb	r3, [r7, #2]
 800a236:	4613      	mov	r3, r2
 800a238:	707b      	strb	r3, [r7, #1]
 800a23a:	7878      	ldrb	r0, [r7, #1]
 800a23c:	78ba      	ldrb	r2, [r7, #2]
 800a23e:	78f9      	ldrb	r1, [r7, #3]
 800a240:	8b3b      	ldrh	r3, [r7, #24]
 800a242:	9302      	str	r3, [sp, #8]
 800a244:	7d3b      	ldrb	r3, [r7, #20]
 800a246:	9301      	str	r3, [sp, #4]
 800a248:	7c3b      	ldrb	r3, [r7, #16]
 800a24a:	9300      	str	r3, [sp, #0]
 800a24c:	4603      	mov	r3, r0
 800a24e:	6878      	ldr	r0, [r7, #4]
 800a250:	f000 fa05 	bl	800a65e <USBH_LL_OpenPipe>
 800a254:	2300      	movs	r3, #0
 800a256:	4618      	mov	r0, r3
 800a258:	3708      	adds	r7, #8
 800a25a:	46bd      	mov	sp, r7
 800a25c:	bd80      	pop	{r7, pc}

0800a25e <USBH_ClosePipe>:
 800a25e:	b580      	push	{r7, lr}
 800a260:	b082      	sub	sp, #8
 800a262:	af00      	add	r7, sp, #0
 800a264:	6078      	str	r0, [r7, #4]
 800a266:	460b      	mov	r3, r1
 800a268:	70fb      	strb	r3, [r7, #3]
 800a26a:	78fb      	ldrb	r3, [r7, #3]
 800a26c:	4619      	mov	r1, r3
 800a26e:	6878      	ldr	r0, [r7, #4]
 800a270:	f000 fa24 	bl	800a6bc <USBH_LL_ClosePipe>
 800a274:	2300      	movs	r3, #0
 800a276:	4618      	mov	r0, r3
 800a278:	3708      	adds	r7, #8
 800a27a:	46bd      	mov	sp, r7
 800a27c:	bd80      	pop	{r7, pc}

0800a27e <USBH_AllocPipe>:
 800a27e:	b580      	push	{r7, lr}
 800a280:	b084      	sub	sp, #16
 800a282:	af00      	add	r7, sp, #0
 800a284:	6078      	str	r0, [r7, #4]
 800a286:	460b      	mov	r3, r1
 800a288:	70fb      	strb	r3, [r7, #3]
 800a28a:	6878      	ldr	r0, [r7, #4]
 800a28c:	f000 f831 	bl	800a2f2 <USBH_GetFreePipe>
 800a290:	4603      	mov	r3, r0
 800a292:	81fb      	strh	r3, [r7, #14]
 800a294:	89fb      	ldrh	r3, [r7, #14]
 800a296:	f64f 72ff 	movw	r2, #65535	; 0xffff
 800a29a:	4293      	cmp	r3, r2
 800a29c:	d007      	beq.n	800a2ae <USBH_AllocPipe+0x30>
 800a29e:	78fb      	ldrb	r3, [r7, #3]
 800a2a0:	89fa      	ldrh	r2, [r7, #14]
 800a2a2:	f443 4100 	orr.w	r1, r3, #32768	; 0x8000
 800a2a6:	687b      	ldr	r3, [r7, #4]
 800a2a8:	32e0      	adds	r2, #224	; 0xe0
 800a2aa:	f843 1022 	str.w	r1, [r3, r2, lsl #2]
 800a2ae:	89fb      	ldrh	r3, [r7, #14]
 800a2b0:	b2db      	uxtb	r3, r3
 800a2b2:	4618      	mov	r0, r3
 800a2b4:	3710      	adds	r7, #16
 800a2b6:	46bd      	mov	sp, r7
 800a2b8:	bd80      	pop	{r7, pc}

0800a2ba <USBH_FreePipe>:
 800a2ba:	b480      	push	{r7}
 800a2bc:	b083      	sub	sp, #12
 800a2be:	af00      	add	r7, sp, #0
 800a2c0:	6078      	str	r0, [r7, #4]
 800a2c2:	460b      	mov	r3, r1
 800a2c4:	70fb      	strb	r3, [r7, #3]
 800a2c6:	78fb      	ldrb	r3, [r7, #3]
 800a2c8:	2b0a      	cmp	r3, #10
 800a2ca:	d80b      	bhi.n	800a2e4 <USBH_FreePipe+0x2a>
 800a2cc:	78fa      	ldrb	r2, [r7, #3]
 800a2ce:	687b      	ldr	r3, [r7, #4]
 800a2d0:	32e0      	adds	r2, #224	; 0xe0
 800a2d2:	f853 3022 	ldr.w	r3, [r3, r2, lsl #2]
 800a2d6:	78fa      	ldrb	r2, [r7, #3]
 800a2d8:	f3c3 010e 	ubfx	r1, r3, #0, #15
 800a2dc:	687b      	ldr	r3, [r7, #4]
 800a2de:	32e0      	adds	r2, #224	; 0xe0
 800a2e0:	f843 1022 	str.w	r1, [r3, r2, lsl #2]
 800a2e4:	2300      	movs	r3, #0
 800a2e6:	4618      	mov	r0, r3
 800a2e8:	370c      	adds	r7, #12
 800a2ea:	46bd      	mov	sp, r7
 800a2ec:	f85d 7b04 	ldr.w	r7, [sp], #4
 800a2f0:	4770      	bx	lr

0800a2f2 <USBH_GetFreePipe>:
 800a2f2:	b480      	push	{r7}
 800a2f4:	b085      	sub	sp, #20
 800a2f6:	af00      	add	r7, sp, #0
 800a2f8:	6078      	str	r0, [r7, #4]
 800a2fa:	2300      	movs	r3, #0
 800a2fc:	73fb      	strb	r3, [r7, #15]
 800a2fe:	2300      	movs	r3, #0
 800a300:	73fb      	strb	r3, [r7, #15]
 800a302:	e00e      	b.n	800a322 <USBH_GetFreePipe+0x30>
 800a304:	7bfa      	ldrb	r2, [r7, #15]
 800a306:	687b      	ldr	r3, [r7, #4]
 800a308:	32e0      	adds	r2, #224	; 0xe0
 800a30a:	f853 3022 	ldr.w	r3, [r3, r2, lsl #2]
 800a30e:	f403 4300 	and.w	r3, r3, #32768	; 0x8000
 800a312:	2b00      	cmp	r3, #0
 800a314:	d102      	bne.n	800a31c <USBH_GetFreePipe+0x2a>
 800a316:	7bfb      	ldrb	r3, [r7, #15]
 800a318:	b29b      	uxth	r3, r3
 800a31a:	e007      	b.n	800a32c <USBH_GetFreePipe+0x3a>
 800a31c:	7bfb      	ldrb	r3, [r7, #15]
 800a31e:	3301      	adds	r3, #1
 800a320:	73fb      	strb	r3, [r7, #15]
 800a322:	7bfb      	ldrb	r3, [r7, #15]
 800a324:	2b0a      	cmp	r3, #10
 800a326:	d9ed      	bls.n	800a304 <USBH_GetFreePipe+0x12>
 800a328:	f64f 73ff 	movw	r3, #65535	; 0xffff
 800a32c:	4618      	mov	r0, r3
 800a32e:	3714      	adds	r7, #20
 800a330:	46bd      	mov	sp, r7
 800a332:	f85d 7b04 	ldr.w	r7, [sp], #4
 800a336:	4770      	bx	lr

0800a338 <MX_USB_HOST_Init>:
 800a338:	b580      	push	{r7, lr}
 800a33a:	af00      	add	r7, sp, #0
 800a33c:	2201      	movs	r2, #1
 800a33e:	490e      	ldr	r1, [pc, #56]	; (800a378 <MX_USB_HOST_Init+0x40>)
 800a340:	480e      	ldr	r0, [pc, #56]	; (800a37c <MX_USB_HOST_Init+0x44>)
 800a342:	f7ff fb3d 	bl	80099c0 <USBH_Init>
 800a346:	4603      	mov	r3, r0
 800a348:	2b00      	cmp	r3, #0
 800a34a:	d001      	beq.n	800a350 <MX_USB_HOST_Init+0x18>
 800a34c:	f7f6 fdda 	bl	8000f04 <Error_Handler>
 800a350:	490b      	ldr	r1, [pc, #44]	; (800a380 <MX_USB_HOST_Init+0x48>)
 800a352:	480a      	ldr	r0, [pc, #40]	; (800a37c <MX_USB_HOST_Init+0x44>)
 800a354:	f7ff fba7 	bl	8009aa6 <USBH_RegisterClass>
 800a358:	4603      	mov	r3, r0
 800a35a:	2b00      	cmp	r3, #0
 800a35c:	d001      	beq.n	800a362 <MX_USB_HOST_Init+0x2a>
 800a35e:	f7f6 fdd1 	bl	8000f04 <Error_Handler>
 800a362:	4806      	ldr	r0, [pc, #24]	; (800a37c <MX_USB_HOST_Init+0x44>)
 800a364:	f7ff fc2c 	bl	8009bc0 <USBH_Start>
 800a368:	4603      	mov	r3, r0
 800a36a:	2b00      	cmp	r3, #0
 800a36c:	d001      	beq.n	800a372 <MX_USB_HOST_Init+0x3a>
 800a36e:	f7f6 fdc9 	bl	8000f04 <Error_Handler>
 800a372:	bf00      	nop
 800a374:	bd80      	pop	{r7, pc}
 800a376:	bf00      	nop
 800a378:	0800a385 	.word	0x0800a385
 800a37c:	200004b4 	.word	0x200004b4
 800a380:	2000000c 	.word	0x2000000c

0800a384 <USBH_UserProcess>:
 800a384:	b480      	push	{r7}
 800a386:	b083      	sub	sp, #12
 800a388:	af00      	add	r7, sp, #0
 800a38a:	6078      	str	r0, [r7, #4]
 800a38c:	460b      	mov	r3, r1
 800a38e:	70fb      	strb	r3, [r7, #3]
 800a390:	78fb      	ldrb	r3, [r7, #3]
 800a392:	3b01      	subs	r3, #1
 800a394:	2b04      	cmp	r3, #4
 800a396:	d819      	bhi.n	800a3cc <USBH_UserProcess+0x48>
 800a398:	a201      	add	r2, pc, #4	; (adr r2, 800a3a0 <USBH_UserProcess+0x1c>)
 800a39a:	f852 f023 	ldr.w	pc, [r2, r3, lsl #2]
 800a39e:	bf00      	nop
 800a3a0:	0800a3cd 	.word	0x0800a3cd
 800a3a4:	0800a3bd 	.word	0x0800a3bd
 800a3a8:	0800a3cd 	.word	0x0800a3cd
 800a3ac:	0800a3c5 	.word	0x0800a3c5
 800a3b0:	0800a3b5 	.word	0x0800a3b5
 800a3b4:	4b09      	ldr	r3, [pc, #36]	; (800a3dc <USBH_UserProcess+0x58>)
 800a3b6:	2203      	movs	r2, #3
 800a3b8:	701a      	strb	r2, [r3, #0]
 800a3ba:	e008      	b.n	800a3ce <USBH_UserProcess+0x4a>
 800a3bc:	4b07      	ldr	r3, [pc, #28]	; (800a3dc <USBH_UserProcess+0x58>)
 800a3be:	2202      	movs	r2, #2
 800a3c0:	701a      	strb	r2, [r3, #0]
 800a3c2:	e004      	b.n	800a3ce <USBH_UserProcess+0x4a>
 800a3c4:	4b05      	ldr	r3, [pc, #20]	; (800a3dc <USBH_UserProcess+0x58>)
 800a3c6:	2201      	movs	r2, #1
 800a3c8:	701a      	strb	r2, [r3, #0]
 800a3ca:	e000      	b.n	800a3ce <USBH_UserProcess+0x4a>
 800a3cc:	bf00      	nop
 800a3ce:	bf00      	nop
 800a3d0:	370c      	adds	r7, #12
 800a3d2:	46bd      	mov	sp, r7
 800a3d4:	f85d 7b04 	ldr.w	r7, [sp], #4
 800a3d8:	4770      	bx	lr
 800a3da:	bf00      	nop
 800a3dc:	200000bc 	.word	0x200000bc

0800a3e0 <HAL_HCD_MspInit>:
 800a3e0:	b580      	push	{r7, lr}
 800a3e2:	b08a      	sub	sp, #40	; 0x28
 800a3e4:	af00      	add	r7, sp, #0
 800a3e6:	6078      	str	r0, [r7, #4]
 800a3e8:	f107 0314 	add.w	r3, r7, #20
 800a3ec:	2200      	movs	r2, #0
 800a3ee:	601a      	str	r2, [r3, #0]
 800a3f0:	605a      	str	r2, [r3, #4]
 800a3f2:	609a      	str	r2, [r3, #8]
 800a3f4:	60da      	str	r2, [r3, #12]
 800a3f6:	611a      	str	r2, [r3, #16]
 800a3f8:	687b      	ldr	r3, [r7, #4]
 800a3fa:	681b      	ldr	r3, [r3, #0]
 800a3fc:	f1b3 4fa0 	cmp.w	r3, #1342177280	; 0x50000000
 800a400:	d14e      	bne.n	800a4a0 <HAL_HCD_MspInit+0xc0>
 800a402:	4b29      	ldr	r3, [pc, #164]	; (800a4a8 <HAL_HCD_MspInit+0xc8>)
 800a404:	6cdb      	ldr	r3, [r3, #76]	; 0x4c
 800a406:	4a28      	ldr	r2, [pc, #160]	; (800a4a8 <HAL_HCD_MspInit+0xc8>)
 800a408:	f043 0301 	orr.w	r3, r3, #1
 800a40c:	64d3      	str	r3, [r2, #76]	; 0x4c
 800a40e:	4b26      	ldr	r3, [pc, #152]	; (800a4a8 <HAL_HCD_MspInit+0xc8>)
 800a410:	6cdb      	ldr	r3, [r3, #76]	; 0x4c
 800a412:	f003 0301 	and.w	r3, r3, #1
 800a416:	613b      	str	r3, [r7, #16]
 800a418:	693b      	ldr	r3, [r7, #16]
 800a41a:	f44f 53c0 	mov.w	r3, #6144	; 0x1800
 800a41e:	617b      	str	r3, [r7, #20]
 800a420:	2302      	movs	r3, #2
 800a422:	61bb      	str	r3, [r7, #24]
 800a424:	2300      	movs	r3, #0
 800a426:	61fb      	str	r3, [r7, #28]
 800a428:	2303      	movs	r3, #3
 800a42a:	623b      	str	r3, [r7, #32]
 800a42c:	230a      	movs	r3, #10
 800a42e:	627b      	str	r3, [r7, #36]	; 0x24
 800a430:	f107 0314 	add.w	r3, r7, #20
 800a434:	4619      	mov	r1, r3
 800a436:	f04f 4090 	mov.w	r0, #1207959552	; 0x48000000
 800a43a:	f7f9 f847 	bl	80034cc <HAL_GPIO_Init>
 800a43e:	4b1a      	ldr	r3, [pc, #104]	; (800a4a8 <HAL_HCD_MspInit+0xc8>)
 800a440:	6cdb      	ldr	r3, [r3, #76]	; 0x4c
 800a442:	4a19      	ldr	r2, [pc, #100]	; (800a4a8 <HAL_HCD_MspInit+0xc8>)
 800a444:	f443 5380 	orr.w	r3, r3, #4096	; 0x1000
 800a448:	64d3      	str	r3, [r2, #76]	; 0x4c
 800a44a:	4b17      	ldr	r3, [pc, #92]	; (800a4a8 <HAL_HCD_MspInit+0xc8>)
 800a44c:	6cdb      	ldr	r3, [r3, #76]	; 0x4c
 800a44e:	f403 5380 	and.w	r3, r3, #4096	; 0x1000
 800a452:	60fb      	str	r3, [r7, #12]
 800a454:	68fb      	ldr	r3, [r7, #12]
 800a456:	4b14      	ldr	r3, [pc, #80]	; (800a4a8 <HAL_HCD_MspInit+0xc8>)
 800a458:	6d9b      	ldr	r3, [r3, #88]	; 0x58
 800a45a:	f003 5380 	and.w	r3, r3, #268435456	; 0x10000000
 800a45e:	2b00      	cmp	r3, #0
 800a460:	d114      	bne.n	800a48c <HAL_HCD_MspInit+0xac>
 800a462:	4b11      	ldr	r3, [pc, #68]	; (800a4a8 <HAL_HCD_MspInit+0xc8>)
 800a464:	6d9b      	ldr	r3, [r3, #88]	; 0x58
 800a466:	4a10      	ldr	r2, [pc, #64]	; (800a4a8 <HAL_HCD_MspInit+0xc8>)
 800a468:	f043 5380 	orr.w	r3, r3, #268435456	; 0x10000000
 800a46c:	6593      	str	r3, [r2, #88]	; 0x58
 800a46e:	4b0e      	ldr	r3, [pc, #56]	; (800a4a8 <HAL_HCD_MspInit+0xc8>)
 800a470:	6d9b      	ldr	r3, [r3, #88]	; 0x58
 800a472:	f003 5380 	and.w	r3, r3, #268435456	; 0x10000000
 800a476:	60bb      	str	r3, [r7, #8]
 800a478:	68bb      	ldr	r3, [r7, #8]
 800a47a:	f7fb f87f 	bl	800557c <HAL_PWREx_EnableVddUSB>
 800a47e:	4b0a      	ldr	r3, [pc, #40]	; (800a4a8 <HAL_HCD_MspInit+0xc8>)
 800a480:	6d9b      	ldr	r3, [r3, #88]	; 0x58
 800a482:	4a09      	ldr	r2, [pc, #36]	; (800a4a8 <HAL_HCD_MspInit+0xc8>)
 800a484:	f023 5380 	bic.w	r3, r3, #268435456	; 0x10000000
 800a488:	6593      	str	r3, [r2, #88]	; 0x58
 800a48a:	e001      	b.n	800a490 <HAL_HCD_MspInit+0xb0>
 800a48c:	f7fb f876 	bl	800557c <HAL_PWREx_EnableVddUSB>
 800a490:	2200      	movs	r2, #0
 800a492:	2100      	movs	r1, #0
 800a494:	2043      	movs	r0, #67	; 0x43
 800a496:	f7f8 ffe2 	bl	800345e <HAL_NVIC_SetPriority>
 800a49a:	2043      	movs	r0, #67	; 0x43
 800a49c:	f7f8 fffb 	bl	8003496 <HAL_NVIC_EnableIRQ>
 800a4a0:	bf00      	nop
 800a4a2:	3728      	adds	r7, #40	; 0x28
 800a4a4:	46bd      	mov	sp, r7
 800a4a6:	bd80      	pop	{r7, pc}
 800a4a8:	40021000 	.word	0x40021000

0800a4ac <HAL_HCD_SOF_Callback>:
 800a4ac:	b580      	push	{r7, lr}
 800a4ae:	b082      	sub	sp, #8
 800a4b0:	af00      	add	r7, sp, #0
 800a4b2:	6078      	str	r0, [r7, #4]
 800a4b4:	687b      	ldr	r3, [r7, #4]
 800a4b6:	f8d3 32c0 	ldr.w	r3, [r3, #704]	; 0x2c0
 800a4ba:	4618      	mov	r0, r3
 800a4bc:	f7ff fb9f 	bl	8009bfe <USBH_LL_IncTimer>
 800a4c0:	bf00      	nop
 800a4c2:	3708      	adds	r7, #8
 800a4c4:	46bd      	mov	sp, r7
 800a4c6:	bd80      	pop	{r7, pc}

0800a4c8 <HAL_HCD_Connect_Callback>:
 800a4c8:	b580      	push	{r7, lr}
 800a4ca:	b082      	sub	sp, #8
 800a4cc:	af00      	add	r7, sp, #0
 800a4ce:	6078      	str	r0, [r7, #4]
 800a4d0:	687b      	ldr	r3, [r7, #4]
 800a4d2:	f8d3 32c0 	ldr.w	r3, [r3, #704]	; 0x2c0
 800a4d6:	4618      	mov	r0, r3
 800a4d8:	f7ff fbd7 	bl	8009c8a <USBH_LL_Connect>
 800a4dc:	bf00      	nop
 800a4de:	3708      	adds	r7, #8
 800a4e0:	46bd      	mov	sp, r7
 800a4e2:	bd80      	pop	{r7, pc}

0800a4e4 <HAL_HCD_Disconnect_Callback>:
 800a4e4:	b580      	push	{r7, lr}
 800a4e6:	b082      	sub	sp, #8
 800a4e8:	af00      	add	r7, sp, #0
 800a4ea:	6078      	str	r0, [r7, #4]
 800a4ec:	687b      	ldr	r3, [r7, #4]
 800a4ee:	f8d3 32c0 	ldr.w	r3, [r3, #704]	; 0x2c0
 800a4f2:	4618      	mov	r0, r3
 800a4f4:	f7ff fbef 	bl	8009cd6 <USBH_LL_Disconnect>
 800a4f8:	bf00      	nop
 800a4fa:	3708      	adds	r7, #8
 800a4fc:	46bd      	mov	sp, r7
 800a4fe:	bd80      	pop	{r7, pc}

0800a500 <HAL_HCD_HC_NotifyURBChange_Callback>:
 800a500:	b480      	push	{r7}
 800a502:	b083      	sub	sp, #12
 800a504:	af00      	add	r7, sp, #0
 800a506:	6078      	str	r0, [r7, #4]
 800a508:	460b      	mov	r3, r1
 800a50a:	70fb      	strb	r3, [r7, #3]
 800a50c:	4613      	mov	r3, r2
 800a50e:	70bb      	strb	r3, [r7, #2]
 800a510:	bf00      	nop
 800a512:	370c      	adds	r7, #12
 800a514:	46bd      	mov	sp, r7
 800a516:	f85d 7b04 	ldr.w	r7, [sp], #4
 800a51a:	4770      	bx	lr

0800a51c <HAL_HCD_PortEnabled_Callback>:
 800a51c:	b580      	push	{r7, lr}
 800a51e:	b082      	sub	sp, #8
 800a520:	af00      	add	r7, sp, #0
 800a522:	6078      	str	r0, [r7, #4]
 800a524:	687b      	ldr	r3, [r7, #4]
 800a526:	f8d3 32c0 	ldr.w	r3, [r3, #704]	; 0x2c0
 800a52a:	4618      	mov	r0, r3
 800a52c:	f7ff fb91 	bl	8009c52 <USBH_LL_PortEnabled>
 800a530:	bf00      	nop
 800a532:	3708      	adds	r7, #8
 800a534:	46bd      	mov	sp, r7
 800a536:	bd80      	pop	{r7, pc}

0800a538 <HAL_HCD_PortDisabled_Callback>:
 800a538:	b580      	push	{r7, lr}
 800a53a:	b082      	sub	sp, #8
 800a53c:	af00      	add	r7, sp, #0
 800a53e:	6078      	str	r0, [r7, #4]
 800a540:	687b      	ldr	r3, [r7, #4]
 800a542:	f8d3 32c0 	ldr.w	r3, [r3, #704]	; 0x2c0
 800a546:	4618      	mov	r0, r3
 800a548:	f7ff fb91 	bl	8009c6e <USBH_LL_PortDisabled>
 800a54c:	bf00      	nop
 800a54e:	3708      	adds	r7, #8
 800a550:	46bd      	mov	sp, r7
 800a552:	bd80      	pop	{r7, pc}

0800a554 <USBH_LL_Init>:
 800a554:	b580      	push	{r7, lr}
 800a556:	b082      	sub	sp, #8
 800a558:	af00      	add	r7, sp, #0
 800a55a:	6078      	str	r0, [r7, #4]
 800a55c:	687b      	ldr	r3, [r7, #4]
 800a55e:	f893 33c0 	ldrb.w	r3, [r3, #960]	; 0x3c0
 800a562:	2b01      	cmp	r3, #1
 800a564:	d12a      	bne.n	800a5bc <USBH_LL_Init+0x68>
 800a566:	4a18      	ldr	r2, [pc, #96]	; (800a5c8 <USBH_LL_Init+0x74>)
 800a568:	687b      	ldr	r3, [r7, #4]
 800a56a:	f8c2 32c0 	str.w	r3, [r2, #704]	; 0x2c0
 800a56e:	687b      	ldr	r3, [r7, #4]
 800a570:	4a15      	ldr	r2, [pc, #84]	; (800a5c8 <USBH_LL_Init+0x74>)
 800a572:	f8c3 23c4 	str.w	r2, [r3, #964]	; 0x3c4
 800a576:	4b14      	ldr	r3, [pc, #80]	; (800a5c8 <USBH_LL_Init+0x74>)
 800a578:	f04f 42a0 	mov.w	r2, #1342177280	; 0x50000000
 800a57c:	601a      	str	r2, [r3, #0]
 800a57e:	4b12      	ldr	r3, [pc, #72]	; (800a5c8 <USBH_LL_Init+0x74>)
 800a580:	2208      	movs	r2, #8
 800a582:	609a      	str	r2, [r3, #8]
 800a584:	4b10      	ldr	r3, [pc, #64]	; (800a5c8 <USBH_LL_Init+0x74>)
 800a586:	2201      	movs	r2, #1
 800a588:	60da      	str	r2, [r3, #12]
 800a58a:	4b0f      	ldr	r3, [pc, #60]	; (800a5c8 <USBH_LL_Init+0x74>)
 800a58c:	2200      	movs	r2, #0
 800a58e:	611a      	str	r2, [r3, #16]
 800a590:	4b0d      	ldr	r3, [pc, #52]	; (800a5c8 <USBH_LL_Init+0x74>)
 800a592:	2202      	movs	r2, #2
 800a594:	619a      	str	r2, [r3, #24]
 800a596:	4b0c      	ldr	r3, [pc, #48]	; (800a5c8 <USBH_LL_Init+0x74>)
 800a598:	2200      	movs	r2, #0
 800a59a:	61da      	str	r2, [r3, #28]
 800a59c:	480a      	ldr	r0, [pc, #40]	; (800a5c8 <USBH_LL_Init+0x74>)
 800a59e:	f7f9 f96e 	bl	800387e <HAL_HCD_Init>
 800a5a2:	4603      	mov	r3, r0
 800a5a4:	2b00      	cmp	r3, #0
 800a5a6:	d001      	beq.n	800a5ac <USBH_LL_Init+0x58>
 800a5a8:	f7f6 fcac 	bl	8000f04 <Error_Handler>
 800a5ac:	4806      	ldr	r0, [pc, #24]	; (800a5c8 <USBH_LL_Init+0x74>)
 800a5ae:	f7f9 fd57 	bl	8004060 <HAL_HCD_GetCurrentFrame>
 800a5b2:	4603      	mov	r3, r0
 800a5b4:	4619      	mov	r1, r3
 800a5b6:	6878      	ldr	r0, [r7, #4]
 800a5b8:	f7ff fb12 	bl	8009be0 <USBH_LL_SetTimer>
 800a5bc:	2300      	movs	r3, #0
 800a5be:	4618      	mov	r0, r3
 800a5c0:	3708      	adds	r7, #8
 800a5c2:	46bd      	mov	sp, r7
 800a5c4:	bd80      	pop	{r7, pc}
 800a5c6:	bf00      	nop
 800a5c8:	20000880 	.word	0x20000880

0800a5cc <USBH_LL_Start>:
 800a5cc:	b580      	push	{r7, lr}
 800a5ce:	b084      	sub	sp, #16
 800a5d0:	af00      	add	r7, sp, #0
 800a5d2:	6078      	str	r0, [r7, #4]
 800a5d4:	2300      	movs	r3, #0
 800a5d6:	73fb      	strb	r3, [r7, #15]
 800a5d8:	2300      	movs	r3, #0
 800a5da:	73bb      	strb	r3, [r7, #14]
 800a5dc:	687b      	ldr	r3, [r7, #4]
 800a5de:	f8d3 33c4 	ldr.w	r3, [r3, #964]	; 0x3c4
 800a5e2:	4618      	mov	r0, r3
 800a5e4:	f7f9 fcd2 	bl	8003f8c <HAL_HCD_Start>
 800a5e8:	4603      	mov	r3, r0
 800a5ea:	73fb      	strb	r3, [r7, #15]
 800a5ec:	7bfb      	ldrb	r3, [r7, #15]
 800a5ee:	4618      	mov	r0, r3
 800a5f0:	f000 f912 	bl	800a818 <USBH_Get_USB_Status>
 800a5f4:	4603      	mov	r3, r0
 800a5f6:	73bb      	strb	r3, [r7, #14]
 800a5f8:	7bbb      	ldrb	r3, [r7, #14]
 800a5fa:	4618      	mov	r0, r3
 800a5fc:	3710      	adds	r7, #16
 800a5fe:	46bd      	mov	sp, r7
 800a600:	bd80      	pop	{r7, pc}

0800a602 <USBH_LL_Stop>:
 800a602:	b580      	push	{r7, lr}
 800a604:	b084      	sub	sp, #16
 800a606:	af00      	add	r7, sp, #0
 800a608:	6078      	str	r0, [r7, #4]
 800a60a:	2300      	movs	r3, #0
 800a60c:	73fb      	strb	r3, [r7, #15]
 800a60e:	2300      	movs	r3, #0
 800a610:	73bb      	strb	r3, [r7, #14]
 800a612:	687b      	ldr	r3, [r7, #4]
 800a614:	f8d3 33c4 	ldr.w	r3, [r3, #964]	; 0x3c4
 800a618:	4618      	mov	r0, r3
 800a61a:	f7f9 fcda 	bl	8003fd2 <HAL_HCD_Stop>
 800a61e:	4603      	mov	r3, r0
 800a620:	73fb      	strb	r3, [r7, #15]
 800a622:	7bfb      	ldrb	r3, [r7, #15]
 800a624:	4618      	mov	r0, r3
 800a626:	f000 f8f7 	bl	800a818 <USBH_Get_USB_Status>
 800a62a:	4603      	mov	r3, r0
 800a62c:	73bb      	strb	r3, [r7, #14]
 800a62e:	7bbb      	ldrb	r3, [r7, #14]
 800a630:	4618      	mov	r0, r3
 800a632:	3710      	adds	r7, #16
 800a634:	46bd      	mov	sp, r7
 800a636:	bd80      	pop	{r7, pc}

0800a638 <USBH_LL_GetLastXferSize>:
 800a638:	b580      	push	{r7, lr}
 800a63a:	b082      	sub	sp, #8
 800a63c:	af00      	add	r7, sp, #0
 800a63e:	6078      	str	r0, [r7, #4]
 800a640:	460b      	mov	r3, r1
 800a642:	70fb      	strb	r3, [r7, #3]
 800a644:	687b      	ldr	r3, [r7, #4]
 800a646:	f8d3 33c4 	ldr.w	r3, [r3, #964]	; 0x3c4
 800a64a:	78fa      	ldrb	r2, [r7, #3]
 800a64c:	4611      	mov	r1, r2
 800a64e:	4618      	mov	r0, r3
 800a650:	f7f9 fcf1 	bl	8004036 <HAL_HCD_HC_GetXferCount>
 800a654:	4603      	mov	r3, r0
 800a656:	4618      	mov	r0, r3
 800a658:	3708      	adds	r7, #8
 800a65a:	46bd      	mov	sp, r7
 800a65c:	bd80      	pop	{r7, pc}

0800a65e <USBH_LL_OpenPipe>:
 800a65e:	b590      	push	{r4, r7, lr}
 800a660:	b089      	sub	sp, #36	; 0x24
 800a662:	af04      	add	r7, sp, #16
 800a664:	6078      	str	r0, [r7, #4]
 800a666:	4608      	mov	r0, r1
 800a668:	4611      	mov	r1, r2
 800a66a:	461a      	mov	r2, r3
 800a66c:	4603      	mov	r3, r0
 800a66e:	70fb      	strb	r3, [r7, #3]
 800a670:	460b      	mov	r3, r1
 800a672:	70bb      	strb	r3, [r7, #2]
 800a674:	4613      	mov	r3, r2
 800a676:	707b      	strb	r3, [r7, #1]
 800a678:	2300      	movs	r3, #0
 800a67a:	73fb      	strb	r3, [r7, #15]
 800a67c:	2300      	movs	r3, #0
 800a67e:	73bb      	strb	r3, [r7, #14]
 800a680:	687b      	ldr	r3, [r7, #4]
 800a682:	f8d3 03c4 	ldr.w	r0, [r3, #964]	; 0x3c4
 800a686:	787c      	ldrb	r4, [r7, #1]
 800a688:	78ba      	ldrb	r2, [r7, #2]
 800a68a:	78f9      	ldrb	r1, [r7, #3]
 800a68c:	8d3b      	ldrh	r3, [r7, #40]	; 0x28
 800a68e:	9302      	str	r3, [sp, #8]
 800a690:	f897 3024 	ldrb.w	r3, [r7, #36]	; 0x24
 800a694:	9301      	str	r3, [sp, #4]
 800a696:	f897 3020 	ldrb.w	r3, [r7, #32]
 800a69a:	9300      	str	r3, [sp, #0]
 800a69c:	4623      	mov	r3, r4
 800a69e:	f7f9 f950 	bl	8003942 <HAL_HCD_HC_Init>
 800a6a2:	4603      	mov	r3, r0
 800a6a4:	73fb      	strb	r3, [r7, #15]
 800a6a6:	7bfb      	ldrb	r3, [r7, #15]
 800a6a8:	4618      	mov	r0, r3
 800a6aa:	f000 f8b5 	bl	800a818 <USBH_Get_USB_Status>
 800a6ae:	4603      	mov	r3, r0
 800a6b0:	73bb      	strb	r3, [r7, #14]
 800a6b2:	7bbb      	ldrb	r3, [r7, #14]
 800a6b4:	4618      	mov	r0, r3
 800a6b6:	3714      	adds	r7, #20
 800a6b8:	46bd      	mov	sp, r7
 800a6ba:	bd90      	pop	{r4, r7, pc}

0800a6bc <USBH_LL_ClosePipe>:
 800a6bc:	b580      	push	{r7, lr}
 800a6be:	b084      	sub	sp, #16
 800a6c0:	af00      	add	r7, sp, #0
 800a6c2:	6078      	str	r0, [r7, #4]
 800a6c4:	460b      	mov	r3, r1
 800a6c6:	70fb      	strb	r3, [r7, #3]
 800a6c8:	2300      	movs	r3, #0
 800a6ca:	73fb      	strb	r3, [r7, #15]
 800a6cc:	2300      	movs	r3, #0
 800a6ce:	73bb      	strb	r3, [r7, #14]
 800a6d0:	687b      	ldr	r3, [r7, #4]
 800a6d2:	f8d3 33c4 	ldr.w	r3, [r3, #964]	; 0x3c4
 800a6d6:	78fa      	ldrb	r2, [r7, #3]
 800a6d8:	4611      	mov	r1, r2
 800a6da:	4618      	mov	r0, r3
 800a6dc:	f7f9 f9c9 	bl	8003a72 <HAL_HCD_HC_Halt>
 800a6e0:	4603      	mov	r3, r0
 800a6e2:	73fb      	strb	r3, [r7, #15]
 800a6e4:	7bfb      	ldrb	r3, [r7, #15]
 800a6e6:	4618      	mov	r0, r3
 800a6e8:	f000 f896 	bl	800a818 <USBH_Get_USB_Status>
 800a6ec:	4603      	mov	r3, r0
 800a6ee:	73bb      	strb	r3, [r7, #14]
 800a6f0:	7bbb      	ldrb	r3, [r7, #14]
 800a6f2:	4618      	mov	r0, r3
 800a6f4:	3710      	adds	r7, #16
 800a6f6:	46bd      	mov	sp, r7
 800a6f8:	bd80      	pop	{r7, pc}

0800a6fa <USBH_LL_SubmitURB>:
 800a6fa:	b590      	push	{r4, r7, lr}
 800a6fc:	b089      	sub	sp, #36	; 0x24
 800a6fe:	af04      	add	r7, sp, #16
 800a700:	6078      	str	r0, [r7, #4]
 800a702:	4608      	mov	r0, r1
 800a704:	4611      	mov	r1, r2
 800a706:	461a      	mov	r2, r3
 800a708:	4603      	mov	r3, r0
 800a70a:	70fb      	strb	r3, [r7, #3]
 800a70c:	460b      	mov	r3, r1
 800a70e:	70bb      	strb	r3, [r7, #2]
 800a710:	4613      	mov	r3, r2
 800a712:	707b      	strb	r3, [r7, #1]
 800a714:	2300      	movs	r3, #0
 800a716:	73fb      	strb	r3, [r7, #15]
 800a718:	2300      	movs	r3, #0
 800a71a:	73bb      	strb	r3, [r7, #14]
 800a71c:	687b      	ldr	r3, [r7, #4]
 800a71e:	f8d3 03c4 	ldr.w	r0, [r3, #964]	; 0x3c4
 800a722:	787c      	ldrb	r4, [r7, #1]
 800a724:	78ba      	ldrb	r2, [r7, #2]
 800a726:	78f9      	ldrb	r1, [r7, #3]
 800a728:	f897 302c 	ldrb.w	r3, [r7, #44]	; 0x2c
 800a72c:	9303      	str	r3, [sp, #12]
 800a72e:	8d3b      	ldrh	r3, [r7, #40]	; 0x28
 800a730:	9302      	str	r3, [sp, #8]
 800a732:	6a7b      	ldr	r3, [r7, #36]	; 0x24
 800a734:	9301      	str	r3, [sp, #4]
 800a736:	f897 3020 	ldrb.w	r3, [r7, #32]
 800a73a:	9300      	str	r3, [sp, #0]
 800a73c:	4623      	mov	r3, r4
 800a73e:	f7f9 f9bb 	bl	8003ab8 <HAL_HCD_HC_SubmitRequest>
 800a742:	4603      	mov	r3, r0
 800a744:	73fb      	strb	r3, [r7, #15]
 800a746:	7bfb      	ldrb	r3, [r7, #15]
 800a748:	4618      	mov	r0, r3
 800a74a:	f000 f865 	bl	800a818 <USBH_Get_USB_Status>
 800a74e:	4603      	mov	r3, r0
 800a750:	73bb      	strb	r3, [r7, #14]
 800a752:	7bbb      	ldrb	r3, [r7, #14]
 800a754:	4618      	mov	r0, r3
 800a756:	3714      	adds	r7, #20
 800a758:	46bd      	mov	sp, r7
 800a75a:	bd90      	pop	{r4, r7, pc}

0800a75c <USBH_LL_GetURBState>:
 800a75c:	b580      	push	{r7, lr}
 800a75e:	b082      	sub	sp, #8
 800a760:	af00      	add	r7, sp, #0
 800a762:	6078      	str	r0, [r7, #4]
 800a764:	460b      	mov	r3, r1
 800a766:	70fb      	strb	r3, [r7, #3]
 800a768:	687b      	ldr	r3, [r7, #4]
 800a76a:	f8d3 33c4 	ldr.w	r3, [r3, #964]	; 0x3c4
 800a76e:	78fa      	ldrb	r2, [r7, #3]
 800a770:	4611      	mov	r1, r2
 800a772:	4618      	mov	r0, r3
 800a774:	f7f9 fc4a 	bl	800400c <HAL_HCD_HC_GetURBState>
 800a778:	4603      	mov	r3, r0
 800a77a:	4618      	mov	r0, r3
 800a77c:	3708      	adds	r7, #8
 800a77e:	46bd      	mov	sp, r7
 800a780:	bd80      	pop	{r7, pc}

0800a782 <USBH_LL_DriverVBUS>:
 800a782:	b580      	push	{r7, lr}
 800a784:	b082      	sub	sp, #8
 800a786:	af00      	add	r7, sp, #0
 800a788:	6078      	str	r0, [r7, #4]
 800a78a:	460b      	mov	r3, r1
 800a78c:	70fb      	strb	r3, [r7, #3]
 800a78e:	687b      	ldr	r3, [r7, #4]
 800a790:	f893 33c0 	ldrb.w	r3, [r3, #960]	; 0x3c0
 800a794:	2b01      	cmp	r3, #1
 800a796:	d103      	bne.n	800a7a0 <USBH_LL_DriverVBUS+0x1e>
 800a798:	78fb      	ldrb	r3, [r7, #3]
 800a79a:	4618      	mov	r0, r3
 800a79c:	f000 f868 	bl	800a870 <MX_DriverVbusFS>
 800a7a0:	20c8      	movs	r0, #200	; 0xc8
 800a7a2:	f7f7 f801 	bl	80017a8 <HAL_Delay>
 800a7a6:	2300      	movs	r3, #0
 800a7a8:	4618      	mov	r0, r3
 800a7aa:	3708      	adds	r7, #8
 800a7ac:	46bd      	mov	sp, r7
 800a7ae:	bd80      	pop	{r7, pc}

0800a7b0 <USBH_LL_SetToggle>:
 800a7b0:	b480      	push	{r7}
 800a7b2:	b085      	sub	sp, #20
 800a7b4:	af00      	add	r7, sp, #0
 800a7b6:	6078      	str	r0, [r7, #4]
 800a7b8:	460b      	mov	r3, r1
 800a7ba:	70fb      	strb	r3, [r7, #3]
 800a7bc:	4613      	mov	r3, r2
 800a7be:	70bb      	strb	r3, [r7, #2]
 800a7c0:	687b      	ldr	r3, [r7, #4]
 800a7c2:	f8d3 33c4 	ldr.w	r3, [r3, #964]	; 0x3c4
 800a7c6:	60fb      	str	r3, [r7, #12]
 800a7c8:	78fa      	ldrb	r2, [r7, #3]
 800a7ca:	68f9      	ldr	r1, [r7, #12]
 800a7cc:	4613      	mov	r3, r2
 800a7ce:	009b      	lsls	r3, r3, #2
 800a7d0:	4413      	add	r3, r2
 800a7d2:	00db      	lsls	r3, r3, #3
 800a7d4:	440b      	add	r3, r1
 800a7d6:	333b      	adds	r3, #59	; 0x3b
 800a7d8:	781b      	ldrb	r3, [r3, #0]
 800a7da:	2b00      	cmp	r3, #0
 800a7dc:	d00a      	beq.n	800a7f4 <USBH_LL_SetToggle+0x44>
 800a7de:	78fa      	ldrb	r2, [r7, #3]
 800a7e0:	68f9      	ldr	r1, [r7, #12]
 800a7e2:	4613      	mov	r3, r2
 800a7e4:	009b      	lsls	r3, r3, #2
 800a7e6:	4413      	add	r3, r2
 800a7e8:	00db      	lsls	r3, r3, #3
 800a7ea:	440b      	add	r3, r1
 800a7ec:	3350      	adds	r3, #80	; 0x50
 800a7ee:	78ba      	ldrb	r2, [r7, #2]
 800a7f0:	701a      	strb	r2, [r3, #0]
 800a7f2:	e009      	b.n	800a808 <USBH_LL_SetToggle+0x58>
 800a7f4:	78fa      	ldrb	r2, [r7, #3]
 800a7f6:	68f9      	ldr	r1, [r7, #12]
 800a7f8:	4613      	mov	r3, r2
 800a7fa:	009b      	lsls	r3, r3, #2
 800a7fc:	4413      	add	r3, r2
 800a7fe:	00db      	lsls	r3, r3, #3
 800a800:	440b      	add	r3, r1
 800a802:	3351      	adds	r3, #81	; 0x51
 800a804:	78ba      	ldrb	r2, [r7, #2]
 800a806:	701a      	strb	r2, [r3, #0]
 800a808:	2300      	movs	r3, #0
 800a80a:	4618      	mov	r0, r3
 800a80c:	3714      	adds	r7, #20
 800a80e:	46bd      	mov	sp, r7
 800a810:	f85d 7b04 	ldr.w	r7, [sp], #4
 800a814:	4770      	bx	lr
	...

0800a818 <USBH_Get_USB_Status>:
 800a818:	b480      	push	{r7}
 800a81a:	b085      	sub	sp, #20
 800a81c:	af00      	add	r7, sp, #0
 800a81e:	4603      	mov	r3, r0
 800a820:	71fb      	strb	r3, [r7, #7]
 800a822:	2300      	movs	r3, #0
 800a824:	73fb      	strb	r3, [r7, #15]
 800a826:	79fb      	ldrb	r3, [r7, #7]
 800a828:	2b03      	cmp	r3, #3
 800a82a:	d817      	bhi.n	800a85c <USBH_Get_USB_Status+0x44>
 800a82c:	a201      	add	r2, pc, #4	; (adr r2, 800a834 <USBH_Get_USB_Status+0x1c>)
 800a82e:	f852 f023 	ldr.w	pc, [r2, r3, lsl #2]
 800a832:	bf00      	nop
 800a834:	0800a845 	.word	0x0800a845
 800a838:	0800a84b 	.word	0x0800a84b
 800a83c:	0800a851 	.word	0x0800a851
 800a840:	0800a857 	.word	0x0800a857
 800a844:	2300      	movs	r3, #0
 800a846:	73fb      	strb	r3, [r7, #15]
 800a848:	e00b      	b.n	800a862 <USBH_Get_USB_Status+0x4a>
 800a84a:	2302      	movs	r3, #2
 800a84c:	73fb      	strb	r3, [r7, #15]
 800a84e:	e008      	b.n	800a862 <USBH_Get_USB_Status+0x4a>
 800a850:	2301      	movs	r3, #1
 800a852:	73fb      	strb	r3, [r7, #15]
 800a854:	e005      	b.n	800a862 <USBH_Get_USB_Status+0x4a>
 800a856:	2302      	movs	r3, #2
 800a858:	73fb      	strb	r3, [r7, #15]
 800a85a:	e002      	b.n	800a862 <USBH_Get_USB_Status+0x4a>
 800a85c:	2302      	movs	r3, #2
 800a85e:	73fb      	strb	r3, [r7, #15]
 800a860:	bf00      	nop
 800a862:	7bfb      	ldrb	r3, [r7, #15]
 800a864:	4618      	mov	r0, r3
 800a866:	3714      	adds	r7, #20
 800a868:	46bd      	mov	sp, r7
 800a86a:	f85d 7b04 	ldr.w	r7, [sp], #4
 800a86e:	4770      	bx	lr

0800a870 <MX_DriverVbusFS>:
 800a870:	b580      	push	{r7, lr}
 800a872:	b084      	sub	sp, #16
 800a874:	af00      	add	r7, sp, #0
 800a876:	4603      	mov	r3, r0
 800a878:	71fb      	strb	r3, [r7, #7]
 800a87a:	79fb      	ldrb	r3, [r7, #7]
 800a87c:	73fb      	strb	r3, [r7, #15]
 800a87e:	79fb      	ldrb	r3, [r7, #7]
 800a880:	2b00      	cmp	r3, #0
 800a882:	d102      	bne.n	800a88a <MX_DriverVbusFS+0x1a>
 800a884:	2301      	movs	r3, #1
 800a886:	73fb      	strb	r3, [r7, #15]
 800a888:	e001      	b.n	800a88e <MX_DriverVbusFS+0x1e>
 800a88a:	2300      	movs	r3, #0
 800a88c:	73fb      	strb	r3, [r7, #15]
 800a88e:	7bfb      	ldrb	r3, [r7, #15]
 800a890:	461a      	mov	r2, r3
 800a892:	f44f 7100 	mov.w	r1, #512	; 0x200
 800a896:	4803      	ldr	r0, [pc, #12]	; (800a8a4 <MX_DriverVbusFS+0x34>)
 800a898:	f7f8 ffc0 	bl	800381c <HAL_GPIO_WritePin>
 800a89c:	bf00      	nop
 800a89e:	3710      	adds	r7, #16
 800a8a0:	46bd      	mov	sp, r7
 800a8a2:	bd80      	pop	{r7, pc}
 800a8a4:	48000800 	.word	0x48000800

0800a8a8 <__errno>:
 800a8a8:	4b01      	ldr	r3, [pc, #4]	; (800a8b0 <__errno+0x8>)
 800a8aa:	6818      	ldr	r0, [r3, #0]
 800a8ac:	4770      	bx	lr
 800a8ae:	bf00      	nop
 800a8b0:	2000002c 	.word	0x2000002c

0800a8b4 <__libc_init_array>:
 800a8b4:	b570      	push	{r4, r5, r6, lr}
 800a8b6:	4e0d      	ldr	r6, [pc, #52]	; (800a8ec <__libc_init_array+0x38>)
 800a8b8:	4c0d      	ldr	r4, [pc, #52]	; (800a8f0 <__libc_init_array+0x3c>)
 800a8ba:	1ba4      	subs	r4, r4, r6
 800a8bc:	10a4      	asrs	r4, r4, #2
 800a8be:	2500      	movs	r5, #0
 800a8c0:	42a5      	cmp	r5, r4
 800a8c2:	d109      	bne.n	800a8d8 <__libc_init_array+0x24>
 800a8c4:	4e0b      	ldr	r6, [pc, #44]	; (800a8f4 <__libc_init_array+0x40>)
 800a8c6:	4c0c      	ldr	r4, [pc, #48]	; (800a8f8 <__libc_init_array+0x44>)
 800a8c8:	f000 f8ea 	bl	800aaa0 <_init>
 800a8cc:	1ba4      	subs	r4, r4, r6
 800a8ce:	10a4      	asrs	r4, r4, #2
 800a8d0:	2500      	movs	r5, #0
 800a8d2:	42a5      	cmp	r5, r4
 800a8d4:	d105      	bne.n	800a8e2 <__libc_init_array+0x2e>
 800a8d6:	bd70      	pop	{r4, r5, r6, pc}
 800a8d8:	f856 3025 	ldr.w	r3, [r6, r5, lsl #2]
 800a8dc:	4798      	blx	r3
 800a8de:	3501      	adds	r5, #1
 800a8e0:	e7ee      	b.n	800a8c0 <__libc_init_array+0xc>
 800a8e2:	f856 3025 	ldr.w	r3, [r6, r5, lsl #2]
 800a8e6:	4798      	blx	r3
 800a8e8:	3501      	adds	r5, #1
 800a8ea:	e7f2      	b.n	800a8d2 <__libc_init_array+0x1e>
 800a8ec:	0800ab0c 	.word	0x0800ab0c
 800a8f0:	0800ab0c 	.word	0x0800ab0c
 800a8f4:	0800ab0c 	.word	0x0800ab0c
 800a8f8:	0800ab10 	.word	0x0800ab10

0800a8fc <malloc>:
 800a8fc:	4b02      	ldr	r3, [pc, #8]	; (800a908 <malloc+0xc>)
 800a8fe:	4601      	mov	r1, r0
 800a900:	6818      	ldr	r0, [r3, #0]
 800a902:	f000 b861 	b.w	800a9c8 <_malloc_r>
 800a906:	bf00      	nop
 800a908:	2000002c 	.word	0x2000002c

0800a90c <free>:
 800a90c:	4b02      	ldr	r3, [pc, #8]	; (800a918 <free+0xc>)
 800a90e:	4601      	mov	r1, r0
 800a910:	6818      	ldr	r0, [r3, #0]
 800a912:	f000 b80b 	b.w	800a92c <_free_r>
 800a916:	bf00      	nop
 800a918:	2000002c 	.word	0x2000002c

0800a91c <memset>:
 800a91c:	4402      	add	r2, r0
 800a91e:	4603      	mov	r3, r0
 800a920:	4293      	cmp	r3, r2
 800a922:	d100      	bne.n	800a926 <memset+0xa>
 800a924:	4770      	bx	lr
 800a926:	f803 1b01 	strb.w	r1, [r3], #1
 800a92a:	e7f9      	b.n	800a920 <memset+0x4>

0800a92c <_free_r>:
 800a92c:	b538      	push	{r3, r4, r5, lr}
 800a92e:	4605      	mov	r5, r0
 800a930:	2900      	cmp	r1, #0
 800a932:	d045      	beq.n	800a9c0 <_free_r+0x94>
 800a934:	f851 3c04 	ldr.w	r3, [r1, #-4]
 800a938:	1f0c      	subs	r4, r1, #4
 800a93a:	2b00      	cmp	r3, #0
 800a93c:	bfb8      	it	lt
 800a93e:	18e4      	addlt	r4, r4, r3
 800a940:	f000 f8ac 	bl	800aa9c <__malloc_lock>
 800a944:	4a1f      	ldr	r2, [pc, #124]	; (800a9c4 <_free_r+0x98>)
 800a946:	6813      	ldr	r3, [r2, #0]
 800a948:	4610      	mov	r0, r2
 800a94a:	b933      	cbnz	r3, 800a95a <_free_r+0x2e>
 800a94c:	6063      	str	r3, [r4, #4]
 800a94e:	6014      	str	r4, [r2, #0]
 800a950:	4628      	mov	r0, r5
 800a952:	e8bd 4038 	ldmia.w	sp!, {r3, r4, r5, lr}
 800a956:	f000 b8a2 	b.w	800aa9e <__malloc_unlock>
 800a95a:	42a3      	cmp	r3, r4
 800a95c:	d90c      	bls.n	800a978 <_free_r+0x4c>
 800a95e:	6821      	ldr	r1, [r4, #0]
 800a960:	1862      	adds	r2, r4, r1
 800a962:	4293      	cmp	r3, r2
 800a964:	bf04      	itt	eq
 800a966:	681a      	ldreq	r2, [r3, #0]
 800a968:	685b      	ldreq	r3, [r3, #4]
 800a96a:	6063      	str	r3, [r4, #4]
 800a96c:	bf04      	itt	eq
 800a96e:	1852      	addeq	r2, r2, r1
 800a970:	6022      	streq	r2, [r4, #0]
 800a972:	6004      	str	r4, [r0, #0]
 800a974:	e7ec      	b.n	800a950 <_free_r+0x24>
 800a976:	4613      	mov	r3, r2
 800a978:	685a      	ldr	r2, [r3, #4]
 800a97a:	b10a      	cbz	r2, 800a980 <_free_r+0x54>
 800a97c:	42a2      	cmp	r2, r4
 800a97e:	d9fa      	bls.n	800a976 <_free_r+0x4a>
 800a980:	6819      	ldr	r1, [r3, #0]
 800a982:	1858      	adds	r0, r3, r1
 800a984:	42a0      	cmp	r0, r4
 800a986:	d10b      	bne.n	800a9a0 <_free_r+0x74>
 800a988:	6820      	ldr	r0, [r4, #0]
 800a98a:	4401      	add	r1, r0
 800a98c:	1858      	adds	r0, r3, r1
 800a98e:	4282      	cmp	r2, r0
 800a990:	6019      	str	r1, [r3, #0]
 800a992:	d1dd      	bne.n	800a950 <_free_r+0x24>
 800a994:	6810      	ldr	r0, [r2, #0]
 800a996:	6852      	ldr	r2, [r2, #4]
 800a998:	605a      	str	r2, [r3, #4]
 800a99a:	4401      	add	r1, r0
 800a99c:	6019      	str	r1, [r3, #0]
 800a99e:	e7d7      	b.n	800a950 <_free_r+0x24>
 800a9a0:	d902      	bls.n	800a9a8 <_free_r+0x7c>
 800a9a2:	230c      	movs	r3, #12
 800a9a4:	602b      	str	r3, [r5, #0]
 800a9a6:	e7d3      	b.n	800a950 <_free_r+0x24>
 800a9a8:	6820      	ldr	r0, [r4, #0]
 800a9aa:	1821      	adds	r1, r4, r0
 800a9ac:	428a      	cmp	r2, r1
 800a9ae:	bf04      	itt	eq
 800a9b0:	6811      	ldreq	r1, [r2, #0]
 800a9b2:	6852      	ldreq	r2, [r2, #4]
 800a9b4:	6062      	str	r2, [r4, #4]
 800a9b6:	bf04      	itt	eq
 800a9b8:	1809      	addeq	r1, r1, r0
 800a9ba:	6021      	streq	r1, [r4, #0]
 800a9bc:	605c      	str	r4, [r3, #4]
 800a9be:	e7c7      	b.n	800a950 <_free_r+0x24>
 800a9c0:	bd38      	pop	{r3, r4, r5, pc}
 800a9c2:	bf00      	nop
 800a9c4:	200000c0 	.word	0x200000c0

0800a9c8 <_malloc_r>:
 800a9c8:	b570      	push	{r4, r5, r6, lr}
 800a9ca:	1ccd      	adds	r5, r1, #3
 800a9cc:	f025 0503 	bic.w	r5, r5, #3
 800a9d0:	3508      	adds	r5, #8
 800a9d2:	2d0c      	cmp	r5, #12
 800a9d4:	bf38      	it	cc
 800a9d6:	250c      	movcc	r5, #12
 800a9d8:	2d00      	cmp	r5, #0
 800a9da:	4606      	mov	r6, r0
 800a9dc:	db01      	blt.n	800a9e2 <_malloc_r+0x1a>
 800a9de:	42a9      	cmp	r1, r5
 800a9e0:	d903      	bls.n	800a9ea <_malloc_r+0x22>
 800a9e2:	230c      	movs	r3, #12
 800a9e4:	6033      	str	r3, [r6, #0]
 800a9e6:	2000      	movs	r0, #0
 800a9e8:	bd70      	pop	{r4, r5, r6, pc}
 800a9ea:	f000 f857 	bl	800aa9c <__malloc_lock>
 800a9ee:	4a21      	ldr	r2, [pc, #132]	; (800aa74 <_malloc_r+0xac>)
 800a9f0:	6814      	ldr	r4, [r2, #0]
 800a9f2:	4621      	mov	r1, r4
 800a9f4:	b991      	cbnz	r1, 800aa1c <_malloc_r+0x54>
 800a9f6:	4c20      	ldr	r4, [pc, #128]	; (800aa78 <_malloc_r+0xb0>)
 800a9f8:	6823      	ldr	r3, [r4, #0]
 800a9fa:	b91b      	cbnz	r3, 800aa04 <_malloc_r+0x3c>
 800a9fc:	4630      	mov	r0, r6
 800a9fe:	f000 f83d 	bl	800aa7c <_sbrk_r>
 800aa02:	6020      	str	r0, [r4, #0]
 800aa04:	4629      	mov	r1, r5
 800aa06:	4630      	mov	r0, r6
 800aa08:	f000 f838 	bl	800aa7c <_sbrk_r>
 800aa0c:	1c43      	adds	r3, r0, #1
 800aa0e:	d124      	bne.n	800aa5a <_malloc_r+0x92>
 800aa10:	230c      	movs	r3, #12
 800aa12:	6033      	str	r3, [r6, #0]
 800aa14:	4630      	mov	r0, r6
 800aa16:	f000 f842 	bl	800aa9e <__malloc_unlock>
 800aa1a:	e7e4      	b.n	800a9e6 <_malloc_r+0x1e>
 800aa1c:	680b      	ldr	r3, [r1, #0]
 800aa1e:	1b5b      	subs	r3, r3, r5
 800aa20:	d418      	bmi.n	800aa54 <_malloc_r+0x8c>
 800aa22:	2b0b      	cmp	r3, #11
 800aa24:	d90f      	bls.n	800aa46 <_malloc_r+0x7e>
 800aa26:	600b      	str	r3, [r1, #0]
 800aa28:	50cd      	str	r5, [r1, r3]
 800aa2a:	18cc      	adds	r4, r1, r3
 800aa2c:	4630      	mov	r0, r6
 800aa2e:	f000 f836 	bl	800aa9e <__malloc_unlock>
 800aa32:	f104 000b 	add.w	r0, r4, #11
 800aa36:	1d23      	adds	r3, r4, #4
 800aa38:	f020 0007 	bic.w	r0, r0, #7
 800aa3c:	1ac3      	subs	r3, r0, r3
 800aa3e:	d0d3      	beq.n	800a9e8 <_malloc_r+0x20>
 800aa40:	425a      	negs	r2, r3
 800aa42:	50e2      	str	r2, [r4, r3]
 800aa44:	e7d0      	b.n	800a9e8 <_malloc_r+0x20>
 800aa46:	428c      	cmp	r4, r1
 800aa48:	684b      	ldr	r3, [r1, #4]
 800aa4a:	bf16      	itet	ne
 800aa4c:	6063      	strne	r3, [r4, #4]
 800aa4e:	6013      	streq	r3, [r2, #0]
 800aa50:	460c      	movne	r4, r1
 800aa52:	e7eb      	b.n	800aa2c <_malloc_r+0x64>
 800aa54:	460c      	mov	r4, r1
 800aa56:	6849      	ldr	r1, [r1, #4]
 800aa58:	e7cc      	b.n	800a9f4 <_malloc_r+0x2c>
 800aa5a:	1cc4      	adds	r4, r0, #3
 800aa5c:	f024 0403 	bic.w	r4, r4, #3
 800aa60:	42a0      	cmp	r0, r4
 800aa62:	d005      	beq.n	800aa70 <_malloc_r+0xa8>
 800aa64:	1a21      	subs	r1, r4, r0
 800aa66:	4630      	mov	r0, r6
 800aa68:	f000 f808 	bl	800aa7c <_sbrk_r>
 800aa6c:	3001      	adds	r0, #1
 800aa6e:	d0cf      	beq.n	800aa10 <_malloc_r+0x48>
 800aa70:	6025      	str	r5, [r4, #0]
 800aa72:	e7db      	b.n	800aa2c <_malloc_r+0x64>
 800aa74:	200000c0 	.word	0x200000c0
 800aa78:	200000c4 	.word	0x200000c4

0800aa7c <_sbrk_r>:
 800aa7c:	b538      	push	{r3, r4, r5, lr}
 800aa7e:	4c06      	ldr	r4, [pc, #24]	; (800aa98 <_sbrk_r+0x1c>)
 800aa80:	2300      	movs	r3, #0
 800aa82:	4605      	mov	r5, r0
 800aa84:	4608      	mov	r0, r1
 800aa86:	6023      	str	r3, [r4, #0]
 800aa88:	f7f6 fd8a 	bl	80015a0 <_sbrk>
 800aa8c:	1c43      	adds	r3, r0, #1
 800aa8e:	d102      	bne.n	800aa96 <_sbrk_r+0x1a>
 800aa90:	6823      	ldr	r3, [r4, #0]
 800aa92:	b103      	cbz	r3, 800aa96 <_sbrk_r+0x1a>
 800aa94:	602b      	str	r3, [r5, #0]
 800aa96:	bd38      	pop	{r3, r4, r5, pc}
 800aa98:	20000b44 	.word	0x20000b44

0800aa9c <__malloc_lock>:
 800aa9c:	4770      	bx	lr

0800aa9e <__malloc_unlock>:
 800aa9e:	4770      	bx	lr

0800aaa0 <_init>:
 800aaa0:	b5f8      	push	{r3, r4, r5, r6, r7, lr}
 800aaa2:	bf00      	nop
 800aaa4:	bcf8      	pop	{r3, r4, r5, r6, r7}
 800aaa6:	bc08      	pop	{r3}
 800aaa8:	469e      	mov	lr, r3
 800aaaa:	4770      	bx	lr

0800aaac <_fini>:
 800aaac:	b5f8      	push	{r3, r4, r5, r6, r7, lr}
 800aaae:	bf00      	nop
 800aab0:	bcf8      	pop	{r3, r4, r5, r6, r7}
 800aab2:	bc08      	pop	{r3}
 800aab4:	469e      	mov	lr, r3
 800aab6:	4770      	bx	lr
